
Sonya Tech Tests.elf:     file format elf32-littlearm

Sections:
Idx Name          Size      VMA       LMA       File off  Algn
  0 .isr_vector   0000010c  08000000  08000000  00001000  2**0
                  CONTENTS, ALLOC, LOAD, READONLY, DATA
  1 .text         000070a4  08000110  08000110  00001110  2**4
                  CONTENTS, ALLOC, LOAD, READONLY, CODE
  2 .rodata       000000b8  080071b4  080071b4  000081b4  2**2
                  CONTENTS, ALLOC, LOAD, READONLY, DATA
  3 .ARM.extab    00000000  0800726c  0800726c  00009068  2**0
                  CONTENTS
  4 .ARM          00000000  0800726c  0800726c  00009068  2**0
                  CONTENTS
  5 .preinit_array 00000000  0800726c  0800726c  00009068  2**0
                  CONTENTS, ALLOC, LOAD, DATA
  6 .init_array   00000004  0800726c  0800726c  0000826c  2**2
                  CONTENTS, ALLOC, LOAD, READONLY, DATA
  7 .fini_array   00000004  08007270  08007270  00008270  2**2
                  CONTENTS, ALLOC, LOAD, READONLY, DATA
  8 .data         00000068  20000000  08007274  00009000  2**2
                  CONTENTS, ALLOC, LOAD, DATA
  9 .bss          00001330  20000068  080072dc  00009068  2**2
                  ALLOC
 10 ._user_heap_stack 00000600  20001398  080072dc  00009398  2**0
                  ALLOC
 11 .ARM.attributes 00000029  00000000  00000000  00009068  2**0
                  CONTENTS, READONLY
 12 .debug_info   000145cd  00000000  00000000  00009091  2**0
                  CONTENTS, READONLY, DEBUGGING, OCTETS
 13 .debug_abbrev 000031a1  00000000  00000000  0001d65e  2**0
                  CONTENTS, READONLY, DEBUGGING, OCTETS
 14 .debug_aranges 00001280  00000000  00000000  00020800  2**3
                  CONTENTS, READONLY, DEBUGGING, OCTETS
 15 .debug_rnglists 00000e60  00000000  00000000  00021a80  2**0
                  CONTENTS, READONLY, DEBUGGING, OCTETS
 16 .debug_macro  0001a010  00000000  00000000  000228e0  2**0
                  CONTENTS, READONLY, DEBUGGING, OCTETS
 17 .debug_line   00015b41  00000000  00000000  0003c8f0  2**0
                  CONTENTS, READONLY, DEBUGGING, OCTETS
 18 .debug_str    00095eee  00000000  00000000  00052431  2**0
                  CONTENTS, READONLY, DEBUGGING, OCTETS
 19 .comment      00000043  00000000  00000000  000e831f  2**0
                  CONTENTS, READONLY
 20 .debug_frame  000053e0  00000000  00000000  000e8364  2**2
                  CONTENTS, READONLY, DEBUGGING, OCTETS
 21 .debug_line_str 00000072  00000000  00000000  000ed744  2**0
                  CONTENTS, READONLY, DEBUGGING, OCTETS

Disassembly of section .text:

08000110 <__do_global_dtors_aux>:
 8000110:	b510      	push	{r4, lr}
 8000112:	4c05      	ldr	r4, [pc, #20]	@ (8000128 <__do_global_dtors_aux+0x18>)
 8000114:	7823      	ldrb	r3, [r4, #0]
 8000116:	b933      	cbnz	r3, 8000126 <__do_global_dtors_aux+0x16>
 8000118:	4b04      	ldr	r3, [pc, #16]	@ (800012c <__do_global_dtors_aux+0x1c>)
 800011a:	b113      	cbz	r3, 8000122 <__do_global_dtors_aux+0x12>
 800011c:	4804      	ldr	r0, [pc, #16]	@ (8000130 <__do_global_dtors_aux+0x20>)
 800011e:	f3af 8000 	nop.w
 8000122:	2301      	movs	r3, #1
 8000124:	7023      	strb	r3, [r4, #0]
 8000126:	bd10      	pop	{r4, pc}
 8000128:	20000068 	.word	0x20000068
 800012c:	00000000 	.word	0x00000000
 8000130:	0800719c 	.word	0x0800719c

08000134 <frame_dummy>:
 8000134:	b508      	push	{r3, lr}
 8000136:	4b03      	ldr	r3, [pc, #12]	@ (8000144 <frame_dummy+0x10>)
 8000138:	b11b      	cbz	r3, 8000142 <frame_dummy+0xe>
 800013a:	4903      	ldr	r1, [pc, #12]	@ (8000148 <frame_dummy+0x14>)
 800013c:	4803      	ldr	r0, [pc, #12]	@ (800014c <frame_dummy+0x18>)
 800013e:	f3af 8000 	nop.w
 8000142:	bd08      	pop	{r3, pc}
 8000144:	00000000 	.word	0x00000000
 8000148:	2000006c 	.word	0x2000006c
 800014c:	0800719c 	.word	0x0800719c

08000150 <__aeabi_drsub>:
 8000150:	f081 4100 	eor.w	r1, r1, #2147483648	@ 0x80000000
 8000154:	e002      	b.n	800015c <__adddf3>
 8000156:	bf00      	nop

08000158 <__aeabi_dsub>:
 8000158:	f083 4300 	eor.w	r3, r3, #2147483648	@ 0x80000000

0800015c <__adddf3>:
 800015c:	b530      	push	{r4, r5, lr}
 800015e:	ea4f 0441 	mov.w	r4, r1, lsl #1
 8000162:	ea4f 0543 	mov.w	r5, r3, lsl #1
 8000166:	ea94 0f05 	teq	r4, r5
 800016a:	bf08      	it	eq
 800016c:	ea90 0f02 	teqeq	r0, r2
 8000170:	bf1f      	itttt	ne
 8000172:	ea54 0c00 	orrsne.w	ip, r4, r0
 8000176:	ea55 0c02 	orrsne.w	ip, r5, r2
 800017a:	ea7f 5c64 	mvnsne.w	ip, r4, asr #21
 800017e:	ea7f 5c65 	mvnsne.w	ip, r5, asr #21
 8000182:	f000 80e2 	beq.w	800034a <__adddf3+0x1ee>
 8000186:	ea4f 5454 	mov.w	r4, r4, lsr #21
 800018a:	ebd4 5555 	rsbs	r5, r4, r5, lsr #21
 800018e:	bfb8      	it	lt
 8000190:	426d      	neglt	r5, r5
 8000192:	dd0c      	ble.n	80001ae <__adddf3+0x52>
 8000194:	442c      	add	r4, r5
 8000196:	ea80 0202 	eor.w	r2, r0, r2
 800019a:	ea81 0303 	eor.w	r3, r1, r3
 800019e:	ea82 0000 	eor.w	r0, r2, r0
 80001a2:	ea83 0101 	eor.w	r1, r3, r1
 80001a6:	ea80 0202 	eor.w	r2, r0, r2
 80001aa:	ea81 0303 	eor.w	r3, r1, r3
 80001ae:	2d36      	cmp	r5, #54	@ 0x36
 80001b0:	bf88      	it	hi
 80001b2:	bd30      	pophi	{r4, r5, pc}
 80001b4:	f011 4f00 	tst.w	r1, #2147483648	@ 0x80000000
 80001b8:	ea4f 3101 	mov.w	r1, r1, lsl #12
 80001bc:	f44f 1c80 	mov.w	ip, #1048576	@ 0x100000
 80001c0:	ea4c 3111 	orr.w	r1, ip, r1, lsr #12
 80001c4:	d002      	beq.n	80001cc <__adddf3+0x70>
 80001c6:	4240      	negs	r0, r0
 80001c8:	eb61 0141 	sbc.w	r1, r1, r1, lsl #1
 80001cc:	f013 4f00 	tst.w	r3, #2147483648	@ 0x80000000
 80001d0:	ea4f 3303 	mov.w	r3, r3, lsl #12
 80001d4:	ea4c 3313 	orr.w	r3, ip, r3, lsr #12
 80001d8:	d002      	beq.n	80001e0 <__adddf3+0x84>
 80001da:	4252      	negs	r2, r2
 80001dc:	eb63 0343 	sbc.w	r3, r3, r3, lsl #1
 80001e0:	ea94 0f05 	teq	r4, r5
 80001e4:	f000 80a7 	beq.w	8000336 <__adddf3+0x1da>
 80001e8:	f1a4 0401 	sub.w	r4, r4, #1
 80001ec:	f1d5 0e20 	rsbs	lr, r5, #32
 80001f0:	db0d      	blt.n	800020e <__adddf3+0xb2>
 80001f2:	fa02 fc0e 	lsl.w	ip, r2, lr
 80001f6:	fa22 f205 	lsr.w	r2, r2, r5
 80001fa:	1880      	adds	r0, r0, r2
 80001fc:	f141 0100 	adc.w	r1, r1, #0
 8000200:	fa03 f20e 	lsl.w	r2, r3, lr
 8000204:	1880      	adds	r0, r0, r2
 8000206:	fa43 f305 	asr.w	r3, r3, r5
 800020a:	4159      	adcs	r1, r3
 800020c:	e00e      	b.n	800022c <__adddf3+0xd0>
 800020e:	f1a5 0520 	sub.w	r5, r5, #32
 8000212:	f10e 0e20 	add.w	lr, lr, #32
 8000216:	2a01      	cmp	r2, #1
 8000218:	fa03 fc0e 	lsl.w	ip, r3, lr
 800021c:	bf28      	it	cs
 800021e:	f04c 0c02 	orrcs.w	ip, ip, #2
 8000222:	fa43 f305 	asr.w	r3, r3, r5
 8000226:	18c0      	adds	r0, r0, r3
 8000228:	eb51 71e3 	adcs.w	r1, r1, r3, asr #31
 800022c:	f001 4500 	and.w	r5, r1, #2147483648	@ 0x80000000
 8000230:	d507      	bpl.n	8000242 <__adddf3+0xe6>
 8000232:	f04f 0e00 	mov.w	lr, #0
 8000236:	f1dc 0c00 	rsbs	ip, ip, #0
 800023a:	eb7e 0000 	sbcs.w	r0, lr, r0
 800023e:	eb6e 0101 	sbc.w	r1, lr, r1
 8000242:	f5b1 1f80 	cmp.w	r1, #1048576	@ 0x100000
 8000246:	d31b      	bcc.n	8000280 <__adddf3+0x124>
 8000248:	f5b1 1f00 	cmp.w	r1, #2097152	@ 0x200000
 800024c:	d30c      	bcc.n	8000268 <__adddf3+0x10c>
 800024e:	0849      	lsrs	r1, r1, #1
 8000250:	ea5f 0030 	movs.w	r0, r0, rrx
 8000254:	ea4f 0c3c 	mov.w	ip, ip, rrx
 8000258:	f104 0401 	add.w	r4, r4, #1
 800025c:	ea4f 5244 	mov.w	r2, r4, lsl #21
 8000260:	f512 0f80 	cmn.w	r2, #4194304	@ 0x400000
 8000264:	f080 809a 	bcs.w	800039c <__adddf3+0x240>
 8000268:	f1bc 4f00 	cmp.w	ip, #2147483648	@ 0x80000000
 800026c:	bf08      	it	eq
 800026e:	ea5f 0c50 	movseq.w	ip, r0, lsr #1
 8000272:	f150 0000 	adcs.w	r0, r0, #0
 8000276:	eb41 5104 	adc.w	r1, r1, r4, lsl #20
 800027a:	ea41 0105 	orr.w	r1, r1, r5
 800027e:	bd30      	pop	{r4, r5, pc}
 8000280:	ea5f 0c4c 	movs.w	ip, ip, lsl #1
 8000284:	4140      	adcs	r0, r0
 8000286:	eb41 0101 	adc.w	r1, r1, r1
 800028a:	3c01      	subs	r4, #1
 800028c:	bf28      	it	cs
 800028e:	f5b1 1f80 	cmpcs.w	r1, #1048576	@ 0x100000
 8000292:	d2e9      	bcs.n	8000268 <__adddf3+0x10c>
 8000294:	f091 0f00 	teq	r1, #0
 8000298:	bf04      	itt	eq
 800029a:	4601      	moveq	r1, r0
 800029c:	2000      	moveq	r0, #0
 800029e:	fab1 f381 	clz	r3, r1
 80002a2:	bf08      	it	eq
 80002a4:	3320      	addeq	r3, #32
 80002a6:	f1a3 030b 	sub.w	r3, r3, #11
 80002aa:	f1b3 0220 	subs.w	r2, r3, #32
 80002ae:	da0c      	bge.n	80002ca <__adddf3+0x16e>
 80002b0:	320c      	adds	r2, #12
 80002b2:	dd08      	ble.n	80002c6 <__adddf3+0x16a>
 80002b4:	f102 0c14 	add.w	ip, r2, #20
 80002b8:	f1c2 020c 	rsb	r2, r2, #12
 80002bc:	fa01 f00c 	lsl.w	r0, r1, ip
 80002c0:	fa21 f102 	lsr.w	r1, r1, r2
 80002c4:	e00c      	b.n	80002e0 <__adddf3+0x184>
 80002c6:	f102 0214 	add.w	r2, r2, #20
 80002ca:	bfd8      	it	le
 80002cc:	f1c2 0c20 	rsble	ip, r2, #32
 80002d0:	fa01 f102 	lsl.w	r1, r1, r2
 80002d4:	fa20 fc0c 	lsr.w	ip, r0, ip
 80002d8:	bfdc      	itt	le
 80002da:	ea41 010c 	orrle.w	r1, r1, ip
 80002de:	4090      	lslle	r0, r2
 80002e0:	1ae4      	subs	r4, r4, r3
 80002e2:	bfa2      	ittt	ge
 80002e4:	eb01 5104 	addge.w	r1, r1, r4, lsl #20
 80002e8:	4329      	orrge	r1, r5
 80002ea:	bd30      	popge	{r4, r5, pc}
 80002ec:	ea6f 0404 	mvn.w	r4, r4
 80002f0:	3c1f      	subs	r4, #31
 80002f2:	da1c      	bge.n	800032e <__adddf3+0x1d2>
 80002f4:	340c      	adds	r4, #12
 80002f6:	dc0e      	bgt.n	8000316 <__adddf3+0x1ba>
 80002f8:	f104 0414 	add.w	r4, r4, #20
 80002fc:	f1c4 0220 	rsb	r2, r4, #32
 8000300:	fa20 f004 	lsr.w	r0, r0, r4
 8000304:	fa01 f302 	lsl.w	r3, r1, r2
 8000308:	ea40 0003 	orr.w	r0, r0, r3
 800030c:	fa21 f304 	lsr.w	r3, r1, r4
 8000310:	ea45 0103 	orr.w	r1, r5, r3
 8000314:	bd30      	pop	{r4, r5, pc}
 8000316:	f1c4 040c 	rsb	r4, r4, #12
 800031a:	f1c4 0220 	rsb	r2, r4, #32
 800031e:	fa20 f002 	lsr.w	r0, r0, r2
 8000322:	fa01 f304 	lsl.w	r3, r1, r4
 8000326:	ea40 0003 	orr.w	r0, r0, r3
 800032a:	4629      	mov	r1, r5
 800032c:	bd30      	pop	{r4, r5, pc}
 800032e:	fa21 f004 	lsr.w	r0, r1, r4
 8000332:	4629      	mov	r1, r5
 8000334:	bd30      	pop	{r4, r5, pc}
 8000336:	f094 0f00 	teq	r4, #0
 800033a:	f483 1380 	eor.w	r3, r3, #1048576	@ 0x100000
 800033e:	bf06      	itte	eq
 8000340:	f481 1180 	eoreq.w	r1, r1, #1048576	@ 0x100000
 8000344:	3401      	addeq	r4, #1
 8000346:	3d01      	subne	r5, #1
 8000348:	e74e      	b.n	80001e8 <__adddf3+0x8c>
 800034a:	ea7f 5c64 	mvns.w	ip, r4, asr #21
 800034e:	bf18      	it	ne
 8000350:	ea7f 5c65 	mvnsne.w	ip, r5, asr #21
 8000354:	d029      	beq.n	80003aa <__adddf3+0x24e>
 8000356:	ea94 0f05 	teq	r4, r5
 800035a:	bf08      	it	eq
 800035c:	ea90 0f02 	teqeq	r0, r2
 8000360:	d005      	beq.n	800036e <__adddf3+0x212>
 8000362:	ea54 0c00 	orrs.w	ip, r4, r0
 8000366:	bf04      	itt	eq
 8000368:	4619      	moveq	r1, r3
 800036a:	4610      	moveq	r0, r2
 800036c:	bd30      	pop	{r4, r5, pc}
 800036e:	ea91 0f03 	teq	r1, r3
 8000372:	bf1e      	ittt	ne
 8000374:	2100      	movne	r1, #0
 8000376:	2000      	movne	r0, #0
 8000378:	bd30      	popne	{r4, r5, pc}
 800037a:	ea5f 5c54 	movs.w	ip, r4, lsr #21
 800037e:	d105      	bne.n	800038c <__adddf3+0x230>
 8000380:	0040      	lsls	r0, r0, #1
 8000382:	4149      	adcs	r1, r1
 8000384:	bf28      	it	cs
 8000386:	f041 4100 	orrcs.w	r1, r1, #2147483648	@ 0x80000000
 800038a:	bd30      	pop	{r4, r5, pc}
 800038c:	f514 0480 	adds.w	r4, r4, #4194304	@ 0x400000
 8000390:	bf3c      	itt	cc
 8000392:	f501 1180 	addcc.w	r1, r1, #1048576	@ 0x100000
 8000396:	bd30      	popcc	{r4, r5, pc}
 8000398:	f001 4500 	and.w	r5, r1, #2147483648	@ 0x80000000
 800039c:	f045 41fe 	orr.w	r1, r5, #2130706432	@ 0x7f000000
 80003a0:	f441 0170 	orr.w	r1, r1, #15728640	@ 0xf00000
 80003a4:	f04f 0000 	mov.w	r0, #0
 80003a8:	bd30      	pop	{r4, r5, pc}
 80003aa:	ea7f 5c64 	mvns.w	ip, r4, asr #21
 80003ae:	bf1a      	itte	ne
 80003b0:	4619      	movne	r1, r3
 80003b2:	4610      	movne	r0, r2
 80003b4:	ea7f 5c65 	mvnseq.w	ip, r5, asr #21
 80003b8:	bf1c      	itt	ne
 80003ba:	460b      	movne	r3, r1
 80003bc:	4602      	movne	r2, r0
 80003be:	ea50 3401 	orrs.w	r4, r0, r1, lsl #12
 80003c2:	bf06      	itte	eq
 80003c4:	ea52 3503 	orrseq.w	r5, r2, r3, lsl #12
 80003c8:	ea91 0f03 	teqeq	r1, r3
 80003cc:	f441 2100 	orrne.w	r1, r1, #524288	@ 0x80000
 80003d0:	bd30      	pop	{r4, r5, pc}
 80003d2:	bf00      	nop

080003d4 <__aeabi_ui2d>:
 80003d4:	f090 0f00 	teq	r0, #0
 80003d8:	bf04      	itt	eq
 80003da:	2100      	moveq	r1, #0
 80003dc:	4770      	bxeq	lr
 80003de:	b530      	push	{r4, r5, lr}
 80003e0:	f44f 6480 	mov.w	r4, #1024	@ 0x400
 80003e4:	f104 0432 	add.w	r4, r4, #50	@ 0x32
 80003e8:	f04f 0500 	mov.w	r5, #0
 80003ec:	f04f 0100 	mov.w	r1, #0
 80003f0:	e750      	b.n	8000294 <__adddf3+0x138>
 80003f2:	bf00      	nop

080003f4 <__aeabi_i2d>:
 80003f4:	f090 0f00 	teq	r0, #0
 80003f8:	bf04      	itt	eq
 80003fa:	2100      	moveq	r1, #0
 80003fc:	4770      	bxeq	lr
 80003fe:	b530      	push	{r4, r5, lr}
 8000400:	f44f 6480 	mov.w	r4, #1024	@ 0x400
 8000404:	f104 0432 	add.w	r4, r4, #50	@ 0x32
 8000408:	f010 4500 	ands.w	r5, r0, #2147483648	@ 0x80000000
 800040c:	bf48      	it	mi
 800040e:	4240      	negmi	r0, r0
 8000410:	f04f 0100 	mov.w	r1, #0
 8000414:	e73e      	b.n	8000294 <__adddf3+0x138>
 8000416:	bf00      	nop

08000418 <__aeabi_f2d>:
 8000418:	0042      	lsls	r2, r0, #1
 800041a:	ea4f 01e2 	mov.w	r1, r2, asr #3
 800041e:	ea4f 0131 	mov.w	r1, r1, rrx
 8000422:	ea4f 7002 	mov.w	r0, r2, lsl #28
 8000426:	bf1f      	itttt	ne
 8000428:	f012 437f 	andsne.w	r3, r2, #4278190080	@ 0xff000000
 800042c:	f093 4f7f 	teqne	r3, #4278190080	@ 0xff000000
 8000430:	f081 5160 	eorne.w	r1, r1, #939524096	@ 0x38000000
 8000434:	4770      	bxne	lr
 8000436:	f032 427f 	bics.w	r2, r2, #4278190080	@ 0xff000000
 800043a:	bf08      	it	eq
 800043c:	4770      	bxeq	lr
 800043e:	f093 4f7f 	teq	r3, #4278190080	@ 0xff000000
 8000442:	bf04      	itt	eq
 8000444:	f441 2100 	orreq.w	r1, r1, #524288	@ 0x80000
 8000448:	4770      	bxeq	lr
 800044a:	b530      	push	{r4, r5, lr}
 800044c:	f44f 7460 	mov.w	r4, #896	@ 0x380
 8000450:	f001 4500 	and.w	r5, r1, #2147483648	@ 0x80000000
 8000454:	f021 4100 	bic.w	r1, r1, #2147483648	@ 0x80000000
 8000458:	e71c      	b.n	8000294 <__adddf3+0x138>
 800045a:	bf00      	nop

0800045c <__aeabi_ul2d>:
 800045c:	ea50 0201 	orrs.w	r2, r0, r1
 8000460:	bf08      	it	eq
 8000462:	4770      	bxeq	lr
 8000464:	b530      	push	{r4, r5, lr}
 8000466:	f04f 0500 	mov.w	r5, #0
 800046a:	e00a      	b.n	8000482 <__aeabi_l2d+0x16>

0800046c <__aeabi_l2d>:
 800046c:	ea50 0201 	orrs.w	r2, r0, r1
 8000470:	bf08      	it	eq
 8000472:	4770      	bxeq	lr
 8000474:	b530      	push	{r4, r5, lr}
 8000476:	f011 4500 	ands.w	r5, r1, #2147483648	@ 0x80000000
 800047a:	d502      	bpl.n	8000482 <__aeabi_l2d+0x16>
 800047c:	4240      	negs	r0, r0
 800047e:	eb61 0141 	sbc.w	r1, r1, r1, lsl #1
 8000482:	f44f 6480 	mov.w	r4, #1024	@ 0x400
 8000486:	f104 0432 	add.w	r4, r4, #50	@ 0x32
 800048a:	ea5f 5c91 	movs.w	ip, r1, lsr #22
 800048e:	f43f aed8 	beq.w	8000242 <__adddf3+0xe6>
 8000492:	f04f 0203 	mov.w	r2, #3
 8000496:	ea5f 0cdc 	movs.w	ip, ip, lsr #3
 800049a:	bf18      	it	ne
 800049c:	3203      	addne	r2, #3
 800049e:	ea5f 0cdc 	movs.w	ip, ip, lsr #3
 80004a2:	bf18      	it	ne
 80004a4:	3203      	addne	r2, #3
 80004a6:	eb02 02dc 	add.w	r2, r2, ip, lsr #3
 80004aa:	f1c2 0320 	rsb	r3, r2, #32
 80004ae:	fa00 fc03 	lsl.w	ip, r0, r3
 80004b2:	fa20 f002 	lsr.w	r0, r0, r2
 80004b6:	fa01 fe03 	lsl.w	lr, r1, r3
 80004ba:	ea40 000e 	orr.w	r0, r0, lr
 80004be:	fa21 f102 	lsr.w	r1, r1, r2
 80004c2:	4414      	add	r4, r2
 80004c4:	e6bd      	b.n	8000242 <__adddf3+0xe6>
 80004c6:	bf00      	nop

080004c8 <__aeabi_dmul>:
 80004c8:	b570      	push	{r4, r5, r6, lr}
 80004ca:	f04f 0cff 	mov.w	ip, #255	@ 0xff
 80004ce:	f44c 6ce0 	orr.w	ip, ip, #1792	@ 0x700
 80004d2:	ea1c 5411 	ands.w	r4, ip, r1, lsr #20
 80004d6:	bf1d      	ittte	ne
 80004d8:	ea1c 5513 	andsne.w	r5, ip, r3, lsr #20
 80004dc:	ea94 0f0c 	teqne	r4, ip
 80004e0:	ea95 0f0c 	teqne	r5, ip
 80004e4:	f000 f8de 	bleq	80006a4 <__aeabi_dmul+0x1dc>
 80004e8:	442c      	add	r4, r5
 80004ea:	ea81 0603 	eor.w	r6, r1, r3
 80004ee:	ea21 514c 	bic.w	r1, r1, ip, lsl #21
 80004f2:	ea23 534c 	bic.w	r3, r3, ip, lsl #21
 80004f6:	ea50 3501 	orrs.w	r5, r0, r1, lsl #12
 80004fa:	bf18      	it	ne
 80004fc:	ea52 3503 	orrsne.w	r5, r2, r3, lsl #12
 8000500:	f441 1180 	orr.w	r1, r1, #1048576	@ 0x100000
 8000504:	f443 1380 	orr.w	r3, r3, #1048576	@ 0x100000
 8000508:	d038      	beq.n	800057c <__aeabi_dmul+0xb4>
 800050a:	fba0 ce02 	umull	ip, lr, r0, r2
 800050e:	f04f 0500 	mov.w	r5, #0
 8000512:	fbe1 e502 	umlal	lr, r5, r1, r2
 8000516:	f006 4200 	and.w	r2, r6, #2147483648	@ 0x80000000
 800051a:	fbe0 e503 	umlal	lr, r5, r0, r3
 800051e:	f04f 0600 	mov.w	r6, #0
 8000522:	fbe1 5603 	umlal	r5, r6, r1, r3
 8000526:	f09c 0f00 	teq	ip, #0
 800052a:	bf18      	it	ne
 800052c:	f04e 0e01 	orrne.w	lr, lr, #1
 8000530:	f1a4 04ff 	sub.w	r4, r4, #255	@ 0xff
 8000534:	f5b6 7f00 	cmp.w	r6, #512	@ 0x200
 8000538:	f564 7440 	sbc.w	r4, r4, #768	@ 0x300
 800053c:	d204      	bcs.n	8000548 <__aeabi_dmul+0x80>
 800053e:	ea5f 0e4e 	movs.w	lr, lr, lsl #1
 8000542:	416d      	adcs	r5, r5
 8000544:	eb46 0606 	adc.w	r6, r6, r6
 8000548:	ea42 21c6 	orr.w	r1, r2, r6, lsl #11
 800054c:	ea41 5155 	orr.w	r1, r1, r5, lsr #21
 8000550:	ea4f 20c5 	mov.w	r0, r5, lsl #11
 8000554:	ea40 505e 	orr.w	r0, r0, lr, lsr #21
 8000558:	ea4f 2ece 	mov.w	lr, lr, lsl #11
 800055c:	f1b4 0cfd 	subs.w	ip, r4, #253	@ 0xfd
 8000560:	bf88      	it	hi
 8000562:	f5bc 6fe0 	cmphi.w	ip, #1792	@ 0x700
 8000566:	d81e      	bhi.n	80005a6 <__aeabi_dmul+0xde>
 8000568:	f1be 4f00 	cmp.w	lr, #2147483648	@ 0x80000000
 800056c:	bf08      	it	eq
 800056e:	ea5f 0e50 	movseq.w	lr, r0, lsr #1
 8000572:	f150 0000 	adcs.w	r0, r0, #0
 8000576:	eb41 5104 	adc.w	r1, r1, r4, lsl #20
 800057a:	bd70      	pop	{r4, r5, r6, pc}
 800057c:	f006 4600 	and.w	r6, r6, #2147483648	@ 0x80000000
 8000580:	ea46 0101 	orr.w	r1, r6, r1
 8000584:	ea40 0002 	orr.w	r0, r0, r2
 8000588:	ea81 0103 	eor.w	r1, r1, r3
 800058c:	ebb4 045c 	subs.w	r4, r4, ip, lsr #1
 8000590:	bfc2      	ittt	gt
 8000592:	ebd4 050c 	rsbsgt	r5, r4, ip
 8000596:	ea41 5104 	orrgt.w	r1, r1, r4, lsl #20
 800059a:	bd70      	popgt	{r4, r5, r6, pc}
 800059c:	f441 1180 	orr.w	r1, r1, #1048576	@ 0x100000
 80005a0:	f04f 0e00 	mov.w	lr, #0
 80005a4:	3c01      	subs	r4, #1
 80005a6:	f300 80ab 	bgt.w	8000700 <__aeabi_dmul+0x238>
 80005aa:	f114 0f36 	cmn.w	r4, #54	@ 0x36
 80005ae:	bfde      	ittt	le
 80005b0:	2000      	movle	r0, #0
 80005b2:	f001 4100 	andle.w	r1, r1, #2147483648	@ 0x80000000
 80005b6:	bd70      	pople	{r4, r5, r6, pc}
 80005b8:	f1c4 0400 	rsb	r4, r4, #0
 80005bc:	3c20      	subs	r4, #32
 80005be:	da35      	bge.n	800062c <__aeabi_dmul+0x164>
 80005c0:	340c      	adds	r4, #12
 80005c2:	dc1b      	bgt.n	80005fc <__aeabi_dmul+0x134>
 80005c4:	f104 0414 	add.w	r4, r4, #20
 80005c8:	f1c4 0520 	rsb	r5, r4, #32
 80005cc:	fa00 f305 	lsl.w	r3, r0, r5
 80005d0:	fa20 f004 	lsr.w	r0, r0, r4
 80005d4:	fa01 f205 	lsl.w	r2, r1, r5
 80005d8:	ea40 0002 	orr.w	r0, r0, r2
 80005dc:	f001 4200 	and.w	r2, r1, #2147483648	@ 0x80000000
 80005e0:	f021 4100 	bic.w	r1, r1, #2147483648	@ 0x80000000
 80005e4:	eb10 70d3 	adds.w	r0, r0, r3, lsr #31
 80005e8:	fa21 f604 	lsr.w	r6, r1, r4
 80005ec:	eb42 0106 	adc.w	r1, r2, r6
 80005f0:	ea5e 0e43 	orrs.w	lr, lr, r3, lsl #1
 80005f4:	bf08      	it	eq
 80005f6:	ea20 70d3 	biceq.w	r0, r0, r3, lsr #31
 80005fa:	bd70      	pop	{r4, r5, r6, pc}
 80005fc:	f1c4 040c 	rsb	r4, r4, #12
 8000600:	f1c4 0520 	rsb	r5, r4, #32
 8000604:	fa00 f304 	lsl.w	r3, r0, r4
 8000608:	fa20 f005 	lsr.w	r0, r0, r5
 800060c:	fa01 f204 	lsl.w	r2, r1, r4
 8000610:	ea40 0002 	orr.w	r0, r0, r2
 8000614:	f001 4100 	and.w	r1, r1, #2147483648	@ 0x80000000
 8000618:	eb10 70d3 	adds.w	r0, r0, r3, lsr #31
 800061c:	f141 0100 	adc.w	r1, r1, #0
 8000620:	ea5e 0e43 	orrs.w	lr, lr, r3, lsl #1
 8000624:	bf08      	it	eq
 8000626:	ea20 70d3 	biceq.w	r0, r0, r3, lsr #31
 800062a:	bd70      	pop	{r4, r5, r6, pc}
 800062c:	f1c4 0520 	rsb	r5, r4, #32
 8000630:	fa00 f205 	lsl.w	r2, r0, r5
 8000634:	ea4e 0e02 	orr.w	lr, lr, r2
 8000638:	fa20 f304 	lsr.w	r3, r0, r4
 800063c:	fa01 f205 	lsl.w	r2, r1, r5
 8000640:	ea43 0302 	orr.w	r3, r3, r2
 8000644:	fa21 f004 	lsr.w	r0, r1, r4
 8000648:	f001 4100 	and.w	r1, r1, #2147483648	@ 0x80000000
 800064c:	fa21 f204 	lsr.w	r2, r1, r4
 8000650:	ea20 0002 	bic.w	r0, r0, r2
 8000654:	eb00 70d3 	add.w	r0, r0, r3, lsr #31
 8000658:	ea5e 0e43 	orrs.w	lr, lr, r3, lsl #1
 800065c:	bf08      	it	eq
 800065e:	ea20 70d3 	biceq.w	r0, r0, r3, lsr #31
 8000662:	bd70      	pop	{r4, r5, r6, pc}
 8000664:	f094 0f00 	teq	r4, #0
 8000668:	d10f      	bne.n	800068a <__aeabi_dmul+0x1c2>
 800066a:	f001 4600 	and.w	r6, r1, #2147483648	@ 0x80000000
 800066e:	0040      	lsls	r0, r0, #1
 8000670:	eb41 0101 	adc.w	r1, r1, r1
 8000674:	f411 1f80 	tst.w	r1, #1048576	@ 0x100000
 8000678:	bf08      	it	eq
 800067a:	3c01      	subeq	r4, #1
 800067c:	d0f7      	beq.n	800066e <__aeabi_dmul+0x1a6>
 800067e:	ea41 0106 	orr.w	r1, r1, r6
 8000682:	f095 0f00 	teq	r5, #0
 8000686:	bf18      	it	ne
 8000688:	4770      	bxne	lr
 800068a:	f003 4600 	and.w	r6, r3, #2147483648	@ 0x80000000
 800068e:	0052      	lsls	r2, r2, #1
 8000690:	eb43 0303 	adc.w	r3, r3, r3
 8000694:	f413 1f80 	tst.w	r3, #1048576	@ 0x100000
 8000698:	bf08      	it	eq
 800069a:	3d01      	subeq	r5, #1
 800069c:	d0f7      	beq.n	800068e <__aeabi_dmul+0x1c6>
 800069e:	ea43 0306 	orr.w	r3, r3, r6
 80006a2:	4770      	bx	lr
 80006a4:	ea94 0f0c 	teq	r4, ip
 80006a8:	ea0c 5513 	and.w	r5, ip, r3, lsr #20
 80006ac:	bf18      	it	ne
 80006ae:	ea95 0f0c 	teqne	r5, ip
 80006b2:	d00c      	beq.n	80006ce <__aeabi_dmul+0x206>
 80006b4:	ea50 0641 	orrs.w	r6, r0, r1, lsl #1
 80006b8:	bf18      	it	ne
 80006ba:	ea52 0643 	orrsne.w	r6, r2, r3, lsl #1
 80006be:	d1d1      	bne.n	8000664 <__aeabi_dmul+0x19c>
 80006c0:	ea81 0103 	eor.w	r1, r1, r3
 80006c4:	f001 4100 	and.w	r1, r1, #2147483648	@ 0x80000000
 80006c8:	f04f 0000 	mov.w	r0, #0
 80006cc:	bd70      	pop	{r4, r5, r6, pc}
 80006ce:	ea50 0641 	orrs.w	r6, r0, r1, lsl #1
 80006d2:	bf06      	itte	eq
 80006d4:	4610      	moveq	r0, r2
 80006d6:	4619      	moveq	r1, r3
 80006d8:	ea52 0643 	orrsne.w	r6, r2, r3, lsl #1
 80006dc:	d019      	beq.n	8000712 <__aeabi_dmul+0x24a>
 80006de:	ea94 0f0c 	teq	r4, ip
 80006e2:	d102      	bne.n	80006ea <__aeabi_dmul+0x222>
 80006e4:	ea50 3601 	orrs.w	r6, r0, r1, lsl #12
 80006e8:	d113      	bne.n	8000712 <__aeabi_dmul+0x24a>
 80006ea:	ea95 0f0c 	teq	r5, ip
 80006ee:	d105      	bne.n	80006fc <__aeabi_dmul+0x234>
 80006f0:	ea52 3603 	orrs.w	r6, r2, r3, lsl #12
 80006f4:	bf1c      	itt	ne
 80006f6:	4610      	movne	r0, r2
 80006f8:	4619      	movne	r1, r3
 80006fa:	d10a      	bne.n	8000712 <__aeabi_dmul+0x24a>
 80006fc:	ea81 0103 	eor.w	r1, r1, r3
 8000700:	f001 4100 	and.w	r1, r1, #2147483648	@ 0x80000000
 8000704:	f041 41fe 	orr.w	r1, r1, #2130706432	@ 0x7f000000
 8000708:	f441 0170 	orr.w	r1, r1, #15728640	@ 0xf00000
 800070c:	f04f 0000 	mov.w	r0, #0
 8000710:	bd70      	pop	{r4, r5, r6, pc}
 8000712:	f041 41fe 	orr.w	r1, r1, #2130706432	@ 0x7f000000
 8000716:	f441 0178 	orr.w	r1, r1, #16252928	@ 0xf80000
 800071a:	bd70      	pop	{r4, r5, r6, pc}

0800071c <__aeabi_ddiv>:
 800071c:	b570      	push	{r4, r5, r6, lr}
 800071e:	f04f 0cff 	mov.w	ip, #255	@ 0xff
 8000722:	f44c 6ce0 	orr.w	ip, ip, #1792	@ 0x700
 8000726:	ea1c 5411 	ands.w	r4, ip, r1, lsr #20
 800072a:	bf1d      	ittte	ne
 800072c:	ea1c 5513 	andsne.w	r5, ip, r3, lsr #20
 8000730:	ea94 0f0c 	teqne	r4, ip
 8000734:	ea95 0f0c 	teqne	r5, ip
 8000738:	f000 f8a7 	bleq	800088a <__aeabi_ddiv+0x16e>
 800073c:	eba4 0405 	sub.w	r4, r4, r5
 8000740:	ea81 0e03 	eor.w	lr, r1, r3
 8000744:	ea52 3503 	orrs.w	r5, r2, r3, lsl #12
 8000748:	ea4f 3101 	mov.w	r1, r1, lsl #12
 800074c:	f000 8088 	beq.w	8000860 <__aeabi_ddiv+0x144>
 8000750:	ea4f 3303 	mov.w	r3, r3, lsl #12
 8000754:	f04f 5580 	mov.w	r5, #268435456	@ 0x10000000
 8000758:	ea45 1313 	orr.w	r3, r5, r3, lsr #4
 800075c:	ea43 6312 	orr.w	r3, r3, r2, lsr #24
 8000760:	ea4f 2202 	mov.w	r2, r2, lsl #8
 8000764:	ea45 1511 	orr.w	r5, r5, r1, lsr #4
 8000768:	ea45 6510 	orr.w	r5, r5, r0, lsr #24
 800076c:	ea4f 2600 	mov.w	r6, r0, lsl #8
 8000770:	f00e 4100 	and.w	r1, lr, #2147483648	@ 0x80000000
 8000774:	429d      	cmp	r5, r3
 8000776:	bf08      	it	eq
 8000778:	4296      	cmpeq	r6, r2
 800077a:	f144 04fd 	adc.w	r4, r4, #253	@ 0xfd
 800077e:	f504 7440 	add.w	r4, r4, #768	@ 0x300
 8000782:	d202      	bcs.n	800078a <__aeabi_ddiv+0x6e>
 8000784:	085b      	lsrs	r3, r3, #1
 8000786:	ea4f 0232 	mov.w	r2, r2, rrx
 800078a:	1ab6      	subs	r6, r6, r2
 800078c:	eb65 0503 	sbc.w	r5, r5, r3
 8000790:	085b      	lsrs	r3, r3, #1
 8000792:	ea4f 0232 	mov.w	r2, r2, rrx
 8000796:	f44f 1080 	mov.w	r0, #1048576	@ 0x100000
 800079a:	f44f 2c00 	mov.w	ip, #524288	@ 0x80000
 800079e:	ebb6 0e02 	subs.w	lr, r6, r2
 80007a2:	eb75 0e03 	sbcs.w	lr, r5, r3
 80007a6:	bf22      	ittt	cs
 80007a8:	1ab6      	subcs	r6, r6, r2
 80007aa:	4675      	movcs	r5, lr
 80007ac:	ea40 000c 	orrcs.w	r0, r0, ip
 80007b0:	085b      	lsrs	r3, r3, #1
 80007b2:	ea4f 0232 	mov.w	r2, r2, rrx
 80007b6:	ebb6 0e02 	subs.w	lr, r6, r2
 80007ba:	eb75 0e03 	sbcs.w	lr, r5, r3
 80007be:	bf22      	ittt	cs
 80007c0:	1ab6      	subcs	r6, r6, r2
 80007c2:	4675      	movcs	r5, lr
 80007c4:	ea40 005c 	orrcs.w	r0, r0, ip, lsr #1
 80007c8:	085b      	lsrs	r3, r3, #1
 80007ca:	ea4f 0232 	mov.w	r2, r2, rrx
 80007ce:	ebb6 0e02 	subs.w	lr, r6, r2
 80007d2:	eb75 0e03 	sbcs.w	lr, r5, r3
 80007d6:	bf22      	ittt	cs
 80007d8:	1ab6      	subcs	r6, r6, r2
 80007da:	4675      	movcs	r5, lr
 80007dc:	ea40 009c 	orrcs.w	r0, r0, ip, lsr #2
 80007e0:	085b      	lsrs	r3, r3, #1
 80007e2:	ea4f 0232 	mov.w	r2, r2, rrx
 80007e6:	ebb6 0e02 	subs.w	lr, r6, r2
 80007ea:	eb75 0e03 	sbcs.w	lr, r5, r3
 80007ee:	bf22      	ittt	cs
 80007f0:	1ab6      	subcs	r6, r6, r2
 80007f2:	4675      	movcs	r5, lr
 80007f4:	ea40 00dc 	orrcs.w	r0, r0, ip, lsr #3
 80007f8:	ea55 0e06 	orrs.w	lr, r5, r6
 80007fc:	d018      	beq.n	8000830 <__aeabi_ddiv+0x114>
 80007fe:	ea4f 1505 	mov.w	r5, r5, lsl #4
 8000802:	ea45 7516 	orr.w	r5, r5, r6, lsr #28
 8000806:	ea4f 1606 	mov.w	r6, r6, lsl #4
 800080a:	ea4f 03c3 	mov.w	r3, r3, lsl #3
 800080e:	ea43 7352 	orr.w	r3, r3, r2, lsr #29
 8000812:	ea4f 02c2 	mov.w	r2, r2, lsl #3
 8000816:	ea5f 1c1c 	movs.w	ip, ip, lsr #4
 800081a:	d1c0      	bne.n	800079e <__aeabi_ddiv+0x82>
 800081c:	f411 1f80 	tst.w	r1, #1048576	@ 0x100000
 8000820:	d10b      	bne.n	800083a <__aeabi_ddiv+0x11e>
 8000822:	ea41 0100 	orr.w	r1, r1, r0
 8000826:	f04f 0000 	mov.w	r0, #0
 800082a:	f04f 4c00 	mov.w	ip, #2147483648	@ 0x80000000
 800082e:	e7b6      	b.n	800079e <__aeabi_ddiv+0x82>
 8000830:	f411 1f80 	tst.w	r1, #1048576	@ 0x100000
 8000834:	bf04      	itt	eq
 8000836:	4301      	orreq	r1, r0
 8000838:	2000      	moveq	r0, #0
 800083a:	f1b4 0cfd 	subs.w	ip, r4, #253	@ 0xfd
 800083e:	bf88      	it	hi
 8000840:	f5bc 6fe0 	cmphi.w	ip, #1792	@ 0x700
 8000844:	f63f aeaf 	bhi.w	80005a6 <__aeabi_dmul+0xde>
 8000848:	ebb5 0c03 	subs.w	ip, r5, r3
 800084c:	bf04      	itt	eq
 800084e:	ebb6 0c02 	subseq.w	ip, r6, r2
 8000852:	ea5f 0c50 	movseq.w	ip, r0, lsr #1
 8000856:	f150 0000 	adcs.w	r0, r0, #0
 800085a:	eb41 5104 	adc.w	r1, r1, r4, lsl #20
 800085e:	bd70      	pop	{r4, r5, r6, pc}
 8000860:	f00e 4e00 	and.w	lr, lr, #2147483648	@ 0x80000000
 8000864:	ea4e 3111 	orr.w	r1, lr, r1, lsr #12
 8000868:	eb14 045c 	adds.w	r4, r4, ip, lsr #1
 800086c:	bfc2      	ittt	gt
 800086e:	ebd4 050c 	rsbsgt	r5, r4, ip
 8000872:	ea41 5104 	orrgt.w	r1, r1, r4, lsl #20
 8000876:	bd70      	popgt	{r4, r5, r6, pc}
 8000878:	f441 1180 	orr.w	r1, r1, #1048576	@ 0x100000
 800087c:	f04f 0e00 	mov.w	lr, #0
 8000880:	3c01      	subs	r4, #1
 8000882:	e690      	b.n	80005a6 <__aeabi_dmul+0xde>
 8000884:	ea45 0e06 	orr.w	lr, r5, r6
 8000888:	e68d      	b.n	80005a6 <__aeabi_dmul+0xde>
 800088a:	ea0c 5513 	and.w	r5, ip, r3, lsr #20
 800088e:	ea94 0f0c 	teq	r4, ip
 8000892:	bf08      	it	eq
 8000894:	ea95 0f0c 	teqeq	r5, ip
 8000898:	f43f af3b 	beq.w	8000712 <__aeabi_dmul+0x24a>
 800089c:	ea94 0f0c 	teq	r4, ip
 80008a0:	d10a      	bne.n	80008b8 <__aeabi_ddiv+0x19c>
 80008a2:	ea50 3401 	orrs.w	r4, r0, r1, lsl #12
 80008a6:	f47f af34 	bne.w	8000712 <__aeabi_dmul+0x24a>
 80008aa:	ea95 0f0c 	teq	r5, ip
 80008ae:	f47f af25 	bne.w	80006fc <__aeabi_dmul+0x234>
 80008b2:	4610      	mov	r0, r2
 80008b4:	4619      	mov	r1, r3
 80008b6:	e72c      	b.n	8000712 <__aeabi_dmul+0x24a>
 80008b8:	ea95 0f0c 	teq	r5, ip
 80008bc:	d106      	bne.n	80008cc <__aeabi_ddiv+0x1b0>
 80008be:	ea52 3503 	orrs.w	r5, r2, r3, lsl #12
 80008c2:	f43f aefd 	beq.w	80006c0 <__aeabi_dmul+0x1f8>
 80008c6:	4610      	mov	r0, r2
 80008c8:	4619      	mov	r1, r3
 80008ca:	e722      	b.n	8000712 <__aeabi_dmul+0x24a>
 80008cc:	ea50 0641 	orrs.w	r6, r0, r1, lsl #1
 80008d0:	bf18      	it	ne
 80008d2:	ea52 0643 	orrsne.w	r6, r2, r3, lsl #1
 80008d6:	f47f aec5 	bne.w	8000664 <__aeabi_dmul+0x19c>
 80008da:	ea50 0441 	orrs.w	r4, r0, r1, lsl #1
 80008de:	f47f af0d 	bne.w	80006fc <__aeabi_dmul+0x234>
 80008e2:	ea52 0543 	orrs.w	r5, r2, r3, lsl #1
 80008e6:	f47f aeeb 	bne.w	80006c0 <__aeabi_dmul+0x1f8>
 80008ea:	e712      	b.n	8000712 <__aeabi_dmul+0x24a>

080008ec <__gedf2>:
 80008ec:	f04f 3cff 	mov.w	ip, #4294967295	@ 0xffffffff
 80008f0:	e006      	b.n	8000900 <__cmpdf2+0x4>
 80008f2:	bf00      	nop

080008f4 <__ledf2>:
 80008f4:	f04f 0c01 	mov.w	ip, #1
 80008f8:	e002      	b.n	8000900 <__cmpdf2+0x4>
 80008fa:	bf00      	nop

080008fc <__cmpdf2>:
 80008fc:	f04f 0c01 	mov.w	ip, #1
 8000900:	f84d cd04 	str.w	ip, [sp, #-4]!
 8000904:	ea4f 0c41 	mov.w	ip, r1, lsl #1
 8000908:	ea7f 5c6c 	mvns.w	ip, ip, asr #21
 800090c:	ea4f 0c43 	mov.w	ip, r3, lsl #1
 8000910:	bf18      	it	ne
 8000912:	ea7f 5c6c 	mvnsne.w	ip, ip, asr #21
 8000916:	d01b      	beq.n	8000950 <__cmpdf2+0x54>
 8000918:	b001      	add	sp, #4
 800091a:	ea50 0c41 	orrs.w	ip, r0, r1, lsl #1
 800091e:	bf0c      	ite	eq
 8000920:	ea52 0c43 	orrseq.w	ip, r2, r3, lsl #1
 8000924:	ea91 0f03 	teqne	r1, r3
 8000928:	bf02      	ittt	eq
 800092a:	ea90 0f02 	teqeq	r0, r2
 800092e:	2000      	moveq	r0, #0
 8000930:	4770      	bxeq	lr
 8000932:	f110 0f00 	cmn.w	r0, #0
 8000936:	ea91 0f03 	teq	r1, r3
 800093a:	bf58      	it	pl
 800093c:	4299      	cmppl	r1, r3
 800093e:	bf08      	it	eq
 8000940:	4290      	cmpeq	r0, r2
 8000942:	bf2c      	ite	cs
 8000944:	17d8      	asrcs	r0, r3, #31
 8000946:	ea6f 70e3 	mvncc.w	r0, r3, asr #31
 800094a:	f040 0001 	orr.w	r0, r0, #1
 800094e:	4770      	bx	lr
 8000950:	ea4f 0c41 	mov.w	ip, r1, lsl #1
 8000954:	ea7f 5c6c 	mvns.w	ip, ip, asr #21
 8000958:	d102      	bne.n	8000960 <__cmpdf2+0x64>
 800095a:	ea50 3c01 	orrs.w	ip, r0, r1, lsl #12
 800095e:	d107      	bne.n	8000970 <__cmpdf2+0x74>
 8000960:	ea4f 0c43 	mov.w	ip, r3, lsl #1
 8000964:	ea7f 5c6c 	mvns.w	ip, ip, asr #21
 8000968:	d1d6      	bne.n	8000918 <__cmpdf2+0x1c>
 800096a:	ea52 3c03 	orrs.w	ip, r2, r3, lsl #12
 800096e:	d0d3      	beq.n	8000918 <__cmpdf2+0x1c>
 8000970:	f85d 0b04 	ldr.w	r0, [sp], #4
 8000974:	4770      	bx	lr
 8000976:	bf00      	nop

08000978 <__aeabi_cdrcmple>:
 8000978:	4684      	mov	ip, r0
 800097a:	4610      	mov	r0, r2
 800097c:	4662      	mov	r2, ip
 800097e:	468c      	mov	ip, r1
 8000980:	4619      	mov	r1, r3
 8000982:	4663      	mov	r3, ip
 8000984:	e000      	b.n	8000988 <__aeabi_cdcmpeq>
 8000986:	bf00      	nop

08000988 <__aeabi_cdcmpeq>:
 8000988:	b501      	push	{r0, lr}
 800098a:	f7ff ffb7 	bl	80008fc <__cmpdf2>
 800098e:	2800      	cmp	r0, #0
 8000990:	bf48      	it	mi
 8000992:	f110 0f00 	cmnmi.w	r0, #0
 8000996:	bd01      	pop	{r0, pc}

08000998 <__aeabi_dcmpeq>:
 8000998:	f84d ed08 	str.w	lr, [sp, #-8]!
 800099c:	f7ff fff4 	bl	8000988 <__aeabi_cdcmpeq>
 80009a0:	bf0c      	ite	eq
 80009a2:	2001      	moveq	r0, #1
 80009a4:	2000      	movne	r0, #0
 80009a6:	f85d fb08 	ldr.w	pc, [sp], #8
 80009aa:	bf00      	nop

080009ac <__aeabi_dcmplt>:
 80009ac:	f84d ed08 	str.w	lr, [sp, #-8]!
 80009b0:	f7ff ffea 	bl	8000988 <__aeabi_cdcmpeq>
 80009b4:	bf34      	ite	cc
 80009b6:	2001      	movcc	r0, #1
 80009b8:	2000      	movcs	r0, #0
 80009ba:	f85d fb08 	ldr.w	pc, [sp], #8
 80009be:	bf00      	nop

080009c0 <__aeabi_dcmple>:
 80009c0:	f84d ed08 	str.w	lr, [sp, #-8]!
 80009c4:	f7ff ffe0 	bl	8000988 <__aeabi_cdcmpeq>
 80009c8:	bf94      	ite	ls
 80009ca:	2001      	movls	r0, #1
 80009cc:	2000      	movhi	r0, #0
 80009ce:	f85d fb08 	ldr.w	pc, [sp], #8
 80009d2:	bf00      	nop

080009d4 <__aeabi_dcmpge>:
 80009d4:	f84d ed08 	str.w	lr, [sp, #-8]!
 80009d8:	f7ff ffce 	bl	8000978 <__aeabi_cdrcmple>
 80009dc:	bf94      	ite	ls
 80009de:	2001      	movls	r0, #1
 80009e0:	2000      	movhi	r0, #0
 80009e2:	f85d fb08 	ldr.w	pc, [sp], #8
 80009e6:	bf00      	nop

080009e8 <__aeabi_dcmpgt>:
 80009e8:	f84d ed08 	str.w	lr, [sp, #-8]!
 80009ec:	f7ff ffc4 	bl	8000978 <__aeabi_cdrcmple>
 80009f0:	bf34      	ite	cc
 80009f2:	2001      	movcc	r0, #1
 80009f4:	2000      	movcs	r0, #0
 80009f6:	f85d fb08 	ldr.w	pc, [sp], #8
 80009fa:	bf00      	nop

080009fc <__aeabi_dcmpun>:
 80009fc:	ea4f 0c41 	mov.w	ip, r1, lsl #1
 8000a00:	ea7f 5c6c 	mvns.w	ip, ip, asr #21
 8000a04:	d102      	bne.n	8000a0c <__aeabi_dcmpun+0x10>
 8000a06:	ea50 3c01 	orrs.w	ip, r0, r1, lsl #12
 8000a0a:	d10a      	bne.n	8000a22 <__aeabi_dcmpun+0x26>
 8000a0c:	ea4f 0c43 	mov.w	ip, r3, lsl #1
 8000a10:	ea7f 5c6c 	mvns.w	ip, ip, asr #21
 8000a14:	d102      	bne.n	8000a1c <__aeabi_dcmpun+0x20>
 8000a16:	ea52 3c03 	orrs.w	ip, r2, r3, lsl #12
 8000a1a:	d102      	bne.n	8000a22 <__aeabi_dcmpun+0x26>
 8000a1c:	f04f 0000 	mov.w	r0, #0
 8000a20:	4770      	bx	lr
 8000a22:	f04f 0001 	mov.w	r0, #1
 8000a26:	4770      	bx	lr

08000a28 <__aeabi_d2uiz>:
 8000a28:	004a      	lsls	r2, r1, #1
 8000a2a:	d211      	bcs.n	8000a50 <__aeabi_d2uiz+0x28>
 8000a2c:	f512 1200 	adds.w	r2, r2, #2097152	@ 0x200000
 8000a30:	d211      	bcs.n	8000a56 <__aeabi_d2uiz+0x2e>
 8000a32:	d50d      	bpl.n	8000a50 <__aeabi_d2uiz+0x28>
 8000a34:	f46f 7378 	mvn.w	r3, #992	@ 0x3e0
 8000a38:	ebb3 5262 	subs.w	r2, r3, r2, asr #21
 8000a3c:	d40e      	bmi.n	8000a5c <__aeabi_d2uiz+0x34>
 8000a3e:	ea4f 23c1 	mov.w	r3, r1, lsl #11
 8000a42:	f043 4300 	orr.w	r3, r3, #2147483648	@ 0x80000000
 8000a46:	ea43 5350 	orr.w	r3, r3, r0, lsr #21
 8000a4a:	fa23 f002 	lsr.w	r0, r3, r2
 8000a4e:	4770      	bx	lr
 8000a50:	f04f 0000 	mov.w	r0, #0
 8000a54:	4770      	bx	lr
 8000a56:	ea50 3001 	orrs.w	r0, r0, r1, lsl #12
 8000a5a:	d102      	bne.n	8000a62 <__aeabi_d2uiz+0x3a>
 8000a5c:	f04f 30ff 	mov.w	r0, #4294967295	@ 0xffffffff
 8000a60:	4770      	bx	lr
 8000a62:	f04f 0000 	mov.w	r0, #0
 8000a66:	4770      	bx	lr

08000a68 <__aeabi_d2f>:
 8000a68:	ea4f 0241 	mov.w	r2, r1, lsl #1
 8000a6c:	f1b2 43e0 	subs.w	r3, r2, #1879048192	@ 0x70000000
 8000a70:	bf24      	itt	cs
 8000a72:	f5b3 1c00 	subscs.w	ip, r3, #2097152	@ 0x200000
 8000a76:	f1dc 5cfe 	rsbscs	ip, ip, #532676608	@ 0x1fc00000
 8000a7a:	d90d      	bls.n	8000a98 <__aeabi_d2f+0x30>
 8000a7c:	f001 4c00 	and.w	ip, r1, #2147483648	@ 0x80000000
 8000a80:	ea4f 02c0 	mov.w	r2, r0, lsl #3
 8000a84:	ea4c 7050 	orr.w	r0, ip, r0, lsr #29
 8000a88:	f1b2 4f00 	cmp.w	r2, #2147483648	@ 0x80000000
 8000a8c:	eb40 0083 	adc.w	r0, r0, r3, lsl #2
 8000a90:	bf08      	it	eq
 8000a92:	f020 0001 	biceq.w	r0, r0, #1
 8000a96:	4770      	bx	lr
 8000a98:	f011 4f80 	tst.w	r1, #1073741824	@ 0x40000000
 8000a9c:	d121      	bne.n	8000ae2 <__aeabi_d2f+0x7a>
 8000a9e:	f113 7238 	adds.w	r2, r3, #48234496	@ 0x2e00000
 8000aa2:	bfbc      	itt	lt
 8000aa4:	f001 4000 	andlt.w	r0, r1, #2147483648	@ 0x80000000
 8000aa8:	4770      	bxlt	lr
 8000aaa:	f441 1180 	orr.w	r1, r1, #1048576	@ 0x100000
 8000aae:	ea4f 5252 	mov.w	r2, r2, lsr #21
 8000ab2:	f1c2 0218 	rsb	r2, r2, #24
 8000ab6:	f1c2 0c20 	rsb	ip, r2, #32
 8000aba:	fa10 f30c 	lsls.w	r3, r0, ip
 8000abe:	fa20 f002 	lsr.w	r0, r0, r2
 8000ac2:	bf18      	it	ne
 8000ac4:	f040 0001 	orrne.w	r0, r0, #1
 8000ac8:	ea4f 23c1 	mov.w	r3, r1, lsl #11
 8000acc:	ea4f 23d3 	mov.w	r3, r3, lsr #11
 8000ad0:	fa03 fc0c 	lsl.w	ip, r3, ip
 8000ad4:	ea40 000c 	orr.w	r0, r0, ip
 8000ad8:	fa23 f302 	lsr.w	r3, r3, r2
 8000adc:	ea4f 0343 	mov.w	r3, r3, lsl #1
 8000ae0:	e7cc      	b.n	8000a7c <__aeabi_d2f+0x14>
 8000ae2:	ea7f 5362 	mvns.w	r3, r2, asr #21
 8000ae6:	d107      	bne.n	8000af8 <__aeabi_d2f+0x90>
 8000ae8:	ea50 3301 	orrs.w	r3, r0, r1, lsl #12
 8000aec:	bf1e      	ittt	ne
 8000aee:	f04f 40fe 	movne.w	r0, #2130706432	@ 0x7f000000
 8000af2:	f440 0040 	orrne.w	r0, r0, #12582912	@ 0xc00000
 8000af6:	4770      	bxne	lr
 8000af8:	f001 4000 	and.w	r0, r1, #2147483648	@ 0x80000000
 8000afc:	f040 40fe 	orr.w	r0, r0, #2130706432	@ 0x7f000000
 8000b00:	f440 0000 	orr.w	r0, r0, #8388608	@ 0x800000
 8000b04:	4770      	bx	lr
 8000b06:	bf00      	nop

08000b08 <__aeabi_frsub>:
 8000b08:	f080 4000 	eor.w	r0, r0, #2147483648	@ 0x80000000
 8000b0c:	e002      	b.n	8000b14 <__addsf3>
 8000b0e:	bf00      	nop

08000b10 <__aeabi_fsub>:
 8000b10:	f081 4100 	eor.w	r1, r1, #2147483648	@ 0x80000000

08000b14 <__addsf3>:
 8000b14:	0042      	lsls	r2, r0, #1
 8000b16:	bf1f      	itttt	ne
 8000b18:	ea5f 0341 	movsne.w	r3, r1, lsl #1
 8000b1c:	ea92 0f03 	teqne	r2, r3
 8000b20:	ea7f 6c22 	mvnsne.w	ip, r2, asr #24
 8000b24:	ea7f 6c23 	mvnsne.w	ip, r3, asr #24
 8000b28:	d06a      	beq.n	8000c00 <__addsf3+0xec>
 8000b2a:	ea4f 6212 	mov.w	r2, r2, lsr #24
 8000b2e:	ebd2 6313 	rsbs	r3, r2, r3, lsr #24
 8000b32:	bfc1      	itttt	gt
 8000b34:	18d2      	addgt	r2, r2, r3
 8000b36:	4041      	eorgt	r1, r0
 8000b38:	4048      	eorgt	r0, r1
 8000b3a:	4041      	eorgt	r1, r0
 8000b3c:	bfb8      	it	lt
 8000b3e:	425b      	neglt	r3, r3
 8000b40:	2b19      	cmp	r3, #25
 8000b42:	bf88      	it	hi
 8000b44:	4770      	bxhi	lr
 8000b46:	f010 4f00 	tst.w	r0, #2147483648	@ 0x80000000
 8000b4a:	f440 0000 	orr.w	r0, r0, #8388608	@ 0x800000
 8000b4e:	f020 407f 	bic.w	r0, r0, #4278190080	@ 0xff000000
 8000b52:	bf18      	it	ne
 8000b54:	4240      	negne	r0, r0
 8000b56:	f011 4f00 	tst.w	r1, #2147483648	@ 0x80000000
 8000b5a:	f441 0100 	orr.w	r1, r1, #8388608	@ 0x800000
 8000b5e:	f021 417f 	bic.w	r1, r1, #4278190080	@ 0xff000000
 8000b62:	bf18      	it	ne
 8000b64:	4249      	negne	r1, r1
 8000b66:	ea92 0f03 	teq	r2, r3
 8000b6a:	d03f      	beq.n	8000bec <__addsf3+0xd8>
 8000b6c:	f1a2 0201 	sub.w	r2, r2, #1
 8000b70:	fa41 fc03 	asr.w	ip, r1, r3
 8000b74:	eb10 000c 	adds.w	r0, r0, ip
 8000b78:	f1c3 0320 	rsb	r3, r3, #32
 8000b7c:	fa01 f103 	lsl.w	r1, r1, r3
 8000b80:	f000 4300 	and.w	r3, r0, #2147483648	@ 0x80000000
 8000b84:	d502      	bpl.n	8000b8c <__addsf3+0x78>
 8000b86:	4249      	negs	r1, r1
 8000b88:	eb60 0040 	sbc.w	r0, r0, r0, lsl #1
 8000b8c:	f5b0 0f00 	cmp.w	r0, #8388608	@ 0x800000
 8000b90:	d313      	bcc.n	8000bba <__addsf3+0xa6>
 8000b92:	f1b0 7f80 	cmp.w	r0, #16777216	@ 0x1000000
 8000b96:	d306      	bcc.n	8000ba6 <__addsf3+0x92>
 8000b98:	0840      	lsrs	r0, r0, #1
 8000b9a:	ea4f 0131 	mov.w	r1, r1, rrx
 8000b9e:	f102 0201 	add.w	r2, r2, #1
 8000ba2:	2afe      	cmp	r2, #254	@ 0xfe
 8000ba4:	d251      	bcs.n	8000c4a <__addsf3+0x136>
 8000ba6:	f1b1 4f00 	cmp.w	r1, #2147483648	@ 0x80000000
 8000baa:	eb40 50c2 	adc.w	r0, r0, r2, lsl #23
 8000bae:	bf08      	it	eq
 8000bb0:	f020 0001 	biceq.w	r0, r0, #1
 8000bb4:	ea40 0003 	orr.w	r0, r0, r3
 8000bb8:	4770      	bx	lr
 8000bba:	0049      	lsls	r1, r1, #1
 8000bbc:	eb40 0000 	adc.w	r0, r0, r0
 8000bc0:	3a01      	subs	r2, #1
 8000bc2:	bf28      	it	cs
 8000bc4:	f5b0 0f00 	cmpcs.w	r0, #8388608	@ 0x800000
 8000bc8:	d2ed      	bcs.n	8000ba6 <__addsf3+0x92>
 8000bca:	fab0 fc80 	clz	ip, r0
 8000bce:	f1ac 0c08 	sub.w	ip, ip, #8
 8000bd2:	ebb2 020c 	subs.w	r2, r2, ip
 8000bd6:	fa00 f00c 	lsl.w	r0, r0, ip
 8000bda:	bfaa      	itet	ge
 8000bdc:	eb00 50c2 	addge.w	r0, r0, r2, lsl #23
 8000be0:	4252      	neglt	r2, r2
 8000be2:	4318      	orrge	r0, r3
 8000be4:	bfbc      	itt	lt
 8000be6:	40d0      	lsrlt	r0, r2
 8000be8:	4318      	orrlt	r0, r3
 8000bea:	4770      	bx	lr
 8000bec:	f092 0f00 	teq	r2, #0
 8000bf0:	f481 0100 	eor.w	r1, r1, #8388608	@ 0x800000
 8000bf4:	bf06      	itte	eq
 8000bf6:	f480 0000 	eoreq.w	r0, r0, #8388608	@ 0x800000
 8000bfa:	3201      	addeq	r2, #1
 8000bfc:	3b01      	subne	r3, #1
 8000bfe:	e7b5      	b.n	8000b6c <__addsf3+0x58>
 8000c00:	ea4f 0341 	mov.w	r3, r1, lsl #1
 8000c04:	ea7f 6c22 	mvns.w	ip, r2, asr #24
 8000c08:	bf18      	it	ne
 8000c0a:	ea7f 6c23 	mvnsne.w	ip, r3, asr #24
 8000c0e:	d021      	beq.n	8000c54 <__addsf3+0x140>
 8000c10:	ea92 0f03 	teq	r2, r3
 8000c14:	d004      	beq.n	8000c20 <__addsf3+0x10c>
 8000c16:	f092 0f00 	teq	r2, #0
 8000c1a:	bf08      	it	eq
 8000c1c:	4608      	moveq	r0, r1
 8000c1e:	4770      	bx	lr
 8000c20:	ea90 0f01 	teq	r0, r1
 8000c24:	bf1c      	itt	ne
 8000c26:	2000      	movne	r0, #0
 8000c28:	4770      	bxne	lr
 8000c2a:	f012 4f7f 	tst.w	r2, #4278190080	@ 0xff000000
 8000c2e:	d104      	bne.n	8000c3a <__addsf3+0x126>
 8000c30:	0040      	lsls	r0, r0, #1
 8000c32:	bf28      	it	cs
 8000c34:	f040 4000 	orrcs.w	r0, r0, #2147483648	@ 0x80000000
 8000c38:	4770      	bx	lr
 8000c3a:	f112 7200 	adds.w	r2, r2, #33554432	@ 0x2000000
 8000c3e:	bf3c      	itt	cc
 8000c40:	f500 0000 	addcc.w	r0, r0, #8388608	@ 0x800000
 8000c44:	4770      	bxcc	lr
 8000c46:	f000 4300 	and.w	r3, r0, #2147483648	@ 0x80000000
 8000c4a:	f043 40fe 	orr.w	r0, r3, #2130706432	@ 0x7f000000
 8000c4e:	f440 0000 	orr.w	r0, r0, #8388608	@ 0x800000
 8000c52:	4770      	bx	lr
 8000c54:	ea7f 6222 	mvns.w	r2, r2, asr #24
 8000c58:	bf16      	itet	ne
 8000c5a:	4608      	movne	r0, r1
 8000c5c:	ea7f 6323 	mvnseq.w	r3, r3, asr #24
 8000c60:	4601      	movne	r1, r0
 8000c62:	0242      	lsls	r2, r0, #9
 8000c64:	bf06      	itte	eq
 8000c66:	ea5f 2341 	movseq.w	r3, r1, lsl #9
 8000c6a:	ea90 0f01 	teqeq	r0, r1
 8000c6e:	f440 0080 	orrne.w	r0, r0, #4194304	@ 0x400000
 8000c72:	4770      	bx	lr

08000c74 <__aeabi_ui2f>:
 8000c74:	f04f 0300 	mov.w	r3, #0
 8000c78:	e004      	b.n	8000c84 <__aeabi_i2f+0x8>
 8000c7a:	bf00      	nop

08000c7c <__aeabi_i2f>:
 8000c7c:	f010 4300 	ands.w	r3, r0, #2147483648	@ 0x80000000
 8000c80:	bf48      	it	mi
 8000c82:	4240      	negmi	r0, r0
 8000c84:	ea5f 0c00 	movs.w	ip, r0
 8000c88:	bf08      	it	eq
 8000c8a:	4770      	bxeq	lr
 8000c8c:	f043 4396 	orr.w	r3, r3, #1258291200	@ 0x4b000000
 8000c90:	4601      	mov	r1, r0
 8000c92:	f04f 0000 	mov.w	r0, #0
 8000c96:	e01c      	b.n	8000cd2 <__aeabi_l2f+0x2a>

08000c98 <__aeabi_ul2f>:
 8000c98:	ea50 0201 	orrs.w	r2, r0, r1
 8000c9c:	bf08      	it	eq
 8000c9e:	4770      	bxeq	lr
 8000ca0:	f04f 0300 	mov.w	r3, #0
 8000ca4:	e00a      	b.n	8000cbc <__aeabi_l2f+0x14>
 8000ca6:	bf00      	nop

08000ca8 <__aeabi_l2f>:
 8000ca8:	ea50 0201 	orrs.w	r2, r0, r1
 8000cac:	bf08      	it	eq
 8000cae:	4770      	bxeq	lr
 8000cb0:	f011 4300 	ands.w	r3, r1, #2147483648	@ 0x80000000
 8000cb4:	d502      	bpl.n	8000cbc <__aeabi_l2f+0x14>
 8000cb6:	4240      	negs	r0, r0
 8000cb8:	eb61 0141 	sbc.w	r1, r1, r1, lsl #1
 8000cbc:	ea5f 0c01 	movs.w	ip, r1
 8000cc0:	bf02      	ittt	eq
 8000cc2:	4684      	moveq	ip, r0
 8000cc4:	4601      	moveq	r1, r0
 8000cc6:	2000      	moveq	r0, #0
 8000cc8:	f043 43b6 	orr.w	r3, r3, #1526726656	@ 0x5b000000
 8000ccc:	bf08      	it	eq
 8000cce:	f1a3 5380 	subeq.w	r3, r3, #268435456	@ 0x10000000
 8000cd2:	f5a3 0300 	sub.w	r3, r3, #8388608	@ 0x800000
 8000cd6:	fabc f28c 	clz	r2, ip
 8000cda:	3a08      	subs	r2, #8
 8000cdc:	eba3 53c2 	sub.w	r3, r3, r2, lsl #23
 8000ce0:	db10      	blt.n	8000d04 <__aeabi_l2f+0x5c>
 8000ce2:	fa01 fc02 	lsl.w	ip, r1, r2
 8000ce6:	4463      	add	r3, ip
 8000ce8:	fa00 fc02 	lsl.w	ip, r0, r2
 8000cec:	f1c2 0220 	rsb	r2, r2, #32
 8000cf0:	f1bc 4f00 	cmp.w	ip, #2147483648	@ 0x80000000
 8000cf4:	fa20 f202 	lsr.w	r2, r0, r2
 8000cf8:	eb43 0002 	adc.w	r0, r3, r2
 8000cfc:	bf08      	it	eq
 8000cfe:	f020 0001 	biceq.w	r0, r0, #1
 8000d02:	4770      	bx	lr
 8000d04:	f102 0220 	add.w	r2, r2, #32
 8000d08:	fa01 fc02 	lsl.w	ip, r1, r2
 8000d0c:	f1c2 0220 	rsb	r2, r2, #32
 8000d10:	ea50 004c 	orrs.w	r0, r0, ip, lsl #1
 8000d14:	fa21 f202 	lsr.w	r2, r1, r2
 8000d18:	eb43 0002 	adc.w	r0, r3, r2
 8000d1c:	bf08      	it	eq
 8000d1e:	ea20 70dc 	biceq.w	r0, r0, ip, lsr #31
 8000d22:	4770      	bx	lr

08000d24 <__aeabi_fmul>:
 8000d24:	f04f 0cff 	mov.w	ip, #255	@ 0xff
 8000d28:	ea1c 52d0 	ands.w	r2, ip, r0, lsr #23
 8000d2c:	bf1e      	ittt	ne
 8000d2e:	ea1c 53d1 	andsne.w	r3, ip, r1, lsr #23
 8000d32:	ea92 0f0c 	teqne	r2, ip
 8000d36:	ea93 0f0c 	teqne	r3, ip
 8000d3a:	d06f      	beq.n	8000e1c <__aeabi_fmul+0xf8>
 8000d3c:	441a      	add	r2, r3
 8000d3e:	ea80 0c01 	eor.w	ip, r0, r1
 8000d42:	0240      	lsls	r0, r0, #9
 8000d44:	bf18      	it	ne
 8000d46:	ea5f 2141 	movsne.w	r1, r1, lsl #9
 8000d4a:	d01e      	beq.n	8000d8a <__aeabi_fmul+0x66>
 8000d4c:	f04f 6300 	mov.w	r3, #134217728	@ 0x8000000
 8000d50:	ea43 1050 	orr.w	r0, r3, r0, lsr #5
 8000d54:	ea43 1151 	orr.w	r1, r3, r1, lsr #5
 8000d58:	fba0 3101 	umull	r3, r1, r0, r1
 8000d5c:	f00c 4000 	and.w	r0, ip, #2147483648	@ 0x80000000
 8000d60:	f5b1 0f00 	cmp.w	r1, #8388608	@ 0x800000
 8000d64:	bf3e      	ittt	cc
 8000d66:	0049      	lslcc	r1, r1, #1
 8000d68:	ea41 71d3 	orrcc.w	r1, r1, r3, lsr #31
 8000d6c:	005b      	lslcc	r3, r3, #1
 8000d6e:	ea40 0001 	orr.w	r0, r0, r1
 8000d72:	f162 027f 	sbc.w	r2, r2, #127	@ 0x7f
 8000d76:	2afd      	cmp	r2, #253	@ 0xfd
 8000d78:	d81d      	bhi.n	8000db6 <__aeabi_fmul+0x92>
 8000d7a:	f1b3 4f00 	cmp.w	r3, #2147483648	@ 0x80000000
 8000d7e:	eb40 50c2 	adc.w	r0, r0, r2, lsl #23
 8000d82:	bf08      	it	eq
 8000d84:	f020 0001 	biceq.w	r0, r0, #1
 8000d88:	4770      	bx	lr
 8000d8a:	f090 0f00 	teq	r0, #0
 8000d8e:	f00c 4c00 	and.w	ip, ip, #2147483648	@ 0x80000000
 8000d92:	bf08      	it	eq
 8000d94:	0249      	lsleq	r1, r1, #9
 8000d96:	ea4c 2050 	orr.w	r0, ip, r0, lsr #9
 8000d9a:	ea40 2051 	orr.w	r0, r0, r1, lsr #9
 8000d9e:	3a7f      	subs	r2, #127	@ 0x7f
 8000da0:	bfc2      	ittt	gt
 8000da2:	f1d2 03ff 	rsbsgt	r3, r2, #255	@ 0xff
 8000da6:	ea40 50c2 	orrgt.w	r0, r0, r2, lsl #23
 8000daa:	4770      	bxgt	lr
 8000dac:	f440 0000 	orr.w	r0, r0, #8388608	@ 0x800000
 8000db0:	f04f 0300 	mov.w	r3, #0
 8000db4:	3a01      	subs	r2, #1
 8000db6:	dc5d      	bgt.n	8000e74 <__aeabi_fmul+0x150>
 8000db8:	f112 0f19 	cmn.w	r2, #25
 8000dbc:	bfdc      	itt	le
 8000dbe:	f000 4000 	andle.w	r0, r0, #2147483648	@ 0x80000000
 8000dc2:	4770      	bxle	lr
 8000dc4:	f1c2 0200 	rsb	r2, r2, #0
 8000dc8:	0041      	lsls	r1, r0, #1
 8000dca:	fa21 f102 	lsr.w	r1, r1, r2
 8000dce:	f1c2 0220 	rsb	r2, r2, #32
 8000dd2:	fa00 fc02 	lsl.w	ip, r0, r2
 8000dd6:	ea5f 0031 	movs.w	r0, r1, rrx
 8000dda:	f140 0000 	adc.w	r0, r0, #0
 8000dde:	ea53 034c 	orrs.w	r3, r3, ip, lsl #1
 8000de2:	bf08      	it	eq
 8000de4:	ea20 70dc 	biceq.w	r0, r0, ip, lsr #31
 8000de8:	4770      	bx	lr
 8000dea:	f092 0f00 	teq	r2, #0
 8000dee:	f000 4c00 	and.w	ip, r0, #2147483648	@ 0x80000000
 8000df2:	bf02      	ittt	eq
 8000df4:	0040      	lsleq	r0, r0, #1
 8000df6:	f410 0f00 	tsteq.w	r0, #8388608	@ 0x800000
 8000dfa:	3a01      	subeq	r2, #1
 8000dfc:	d0f9      	beq.n	8000df2 <__aeabi_fmul+0xce>
 8000dfe:	ea40 000c 	orr.w	r0, r0, ip
 8000e02:	f093 0f00 	teq	r3, #0
 8000e06:	f001 4c00 	and.w	ip, r1, #2147483648	@ 0x80000000
 8000e0a:	bf02      	ittt	eq
 8000e0c:	0049      	lsleq	r1, r1, #1
 8000e0e:	f411 0f00 	tsteq.w	r1, #8388608	@ 0x800000
 8000e12:	3b01      	subeq	r3, #1
 8000e14:	d0f9      	beq.n	8000e0a <__aeabi_fmul+0xe6>
 8000e16:	ea41 010c 	orr.w	r1, r1, ip
 8000e1a:	e78f      	b.n	8000d3c <__aeabi_fmul+0x18>
 8000e1c:	ea0c 53d1 	and.w	r3, ip, r1, lsr #23
 8000e20:	ea92 0f0c 	teq	r2, ip
 8000e24:	bf18      	it	ne
 8000e26:	ea93 0f0c 	teqne	r3, ip
 8000e2a:	d00a      	beq.n	8000e42 <__aeabi_fmul+0x11e>
 8000e2c:	f030 4c00 	bics.w	ip, r0, #2147483648	@ 0x80000000
 8000e30:	bf18      	it	ne
 8000e32:	f031 4c00 	bicsne.w	ip, r1, #2147483648	@ 0x80000000
 8000e36:	d1d8      	bne.n	8000dea <__aeabi_fmul+0xc6>
 8000e38:	ea80 0001 	eor.w	r0, r0, r1
 8000e3c:	f000 4000 	and.w	r0, r0, #2147483648	@ 0x80000000
 8000e40:	4770      	bx	lr
 8000e42:	f090 0f00 	teq	r0, #0
 8000e46:	bf17      	itett	ne
 8000e48:	f090 4f00 	teqne	r0, #2147483648	@ 0x80000000
 8000e4c:	4608      	moveq	r0, r1
 8000e4e:	f091 0f00 	teqne	r1, #0
 8000e52:	f091 4f00 	teqne	r1, #2147483648	@ 0x80000000
 8000e56:	d014      	beq.n	8000e82 <__aeabi_fmul+0x15e>
 8000e58:	ea92 0f0c 	teq	r2, ip
 8000e5c:	d101      	bne.n	8000e62 <__aeabi_fmul+0x13e>
 8000e5e:	0242      	lsls	r2, r0, #9
 8000e60:	d10f      	bne.n	8000e82 <__aeabi_fmul+0x15e>
 8000e62:	ea93 0f0c 	teq	r3, ip
 8000e66:	d103      	bne.n	8000e70 <__aeabi_fmul+0x14c>
 8000e68:	024b      	lsls	r3, r1, #9
 8000e6a:	bf18      	it	ne
 8000e6c:	4608      	movne	r0, r1
 8000e6e:	d108      	bne.n	8000e82 <__aeabi_fmul+0x15e>
 8000e70:	ea80 0001 	eor.w	r0, r0, r1
 8000e74:	f000 4000 	and.w	r0, r0, #2147483648	@ 0x80000000
 8000e78:	f040 40fe 	orr.w	r0, r0, #2130706432	@ 0x7f000000
 8000e7c:	f440 0000 	orr.w	r0, r0, #8388608	@ 0x800000
 8000e80:	4770      	bx	lr
 8000e82:	f040 40fe 	orr.w	r0, r0, #2130706432	@ 0x7f000000
 8000e86:	f440 0040 	orr.w	r0, r0, #12582912	@ 0xc00000
 8000e8a:	4770      	bx	lr

08000e8c <__aeabi_fdiv>:
 8000e8c:	f04f 0cff 	mov.w	ip, #255	@ 0xff
 8000e90:	ea1c 52d0 	ands.w	r2, ip, r0, lsr #23
 8000e94:	bf1e      	ittt	ne
 8000e96:	ea1c 53d1 	andsne.w	r3, ip, r1, lsr #23
 8000e9a:	ea92 0f0c 	teqne	r2, ip
 8000e9e:	ea93 0f0c 	teqne	r3, ip
 8000ea2:	d069      	beq.n	8000f78 <__aeabi_fdiv+0xec>
 8000ea4:	eba2 0203 	sub.w	r2, r2, r3
 8000ea8:	ea80 0c01 	eor.w	ip, r0, r1
 8000eac:	0249      	lsls	r1, r1, #9
 8000eae:	ea4f 2040 	mov.w	r0, r0, lsl #9
 8000eb2:	d037      	beq.n	8000f24 <__aeabi_fdiv+0x98>
 8000eb4:	f04f 5380 	mov.w	r3, #268435456	@ 0x10000000
 8000eb8:	ea43 1111 	orr.w	r1, r3, r1, lsr #4
 8000ebc:	ea43 1310 	orr.w	r3, r3, r0, lsr #4
 8000ec0:	f00c 4000 	and.w	r0, ip, #2147483648	@ 0x80000000
 8000ec4:	428b      	cmp	r3, r1
 8000ec6:	bf38      	it	cc
 8000ec8:	005b      	lslcc	r3, r3, #1
 8000eca:	f142 027d 	adc.w	r2, r2, #125	@ 0x7d
 8000ece:	f44f 0c00 	mov.w	ip, #8388608	@ 0x800000
 8000ed2:	428b      	cmp	r3, r1
 8000ed4:	bf24      	itt	cs
 8000ed6:	1a5b      	subcs	r3, r3, r1
 8000ed8:	ea40 000c 	orrcs.w	r0, r0, ip
 8000edc:	ebb3 0f51 	cmp.w	r3, r1, lsr #1
 8000ee0:	bf24      	itt	cs
 8000ee2:	eba3 0351 	subcs.w	r3, r3, r1, lsr #1
 8000ee6:	ea40 005c 	orrcs.w	r0, r0, ip, lsr #1
 8000eea:	ebb3 0f91 	cmp.w	r3, r1, lsr #2
 8000eee:	bf24      	itt	cs
 8000ef0:	eba3 0391 	subcs.w	r3, r3, r1, lsr #2
 8000ef4:	ea40 009c 	orrcs.w	r0, r0, ip, lsr #2
 8000ef8:	ebb3 0fd1 	cmp.w	r3, r1, lsr #3
 8000efc:	bf24      	itt	cs
 8000efe:	eba3 03d1 	subcs.w	r3, r3, r1, lsr #3
 8000f02:	ea40 00dc 	orrcs.w	r0, r0, ip, lsr #3
 8000f06:	011b      	lsls	r3, r3, #4
 8000f08:	bf18      	it	ne
 8000f0a:	ea5f 1c1c 	movsne.w	ip, ip, lsr #4
 8000f0e:	d1e0      	bne.n	8000ed2 <__aeabi_fdiv+0x46>
 8000f10:	2afd      	cmp	r2, #253	@ 0xfd
 8000f12:	f63f af50 	bhi.w	8000db6 <__aeabi_fmul+0x92>
 8000f16:	428b      	cmp	r3, r1
 8000f18:	eb40 50c2 	adc.w	r0, r0, r2, lsl #23
 8000f1c:	bf08      	it	eq
 8000f1e:	f020 0001 	biceq.w	r0, r0, #1
 8000f22:	4770      	bx	lr
 8000f24:	f00c 4c00 	and.w	ip, ip, #2147483648	@ 0x80000000
 8000f28:	ea4c 2050 	orr.w	r0, ip, r0, lsr #9
 8000f2c:	327f      	adds	r2, #127	@ 0x7f
 8000f2e:	bfc2      	ittt	gt
 8000f30:	f1d2 03ff 	rsbsgt	r3, r2, #255	@ 0xff
 8000f34:	ea40 50c2 	orrgt.w	r0, r0, r2, lsl #23
 8000f38:	4770      	bxgt	lr
 8000f3a:	f440 0000 	orr.w	r0, r0, #8388608	@ 0x800000
 8000f3e:	f04f 0300 	mov.w	r3, #0
 8000f42:	3a01      	subs	r2, #1
 8000f44:	e737      	b.n	8000db6 <__aeabi_fmul+0x92>
 8000f46:	f092 0f00 	teq	r2, #0
 8000f4a:	f000 4c00 	and.w	ip, r0, #2147483648	@ 0x80000000
 8000f4e:	bf02      	ittt	eq
 8000f50:	0040      	lsleq	r0, r0, #1
 8000f52:	f410 0f00 	tsteq.w	r0, #8388608	@ 0x800000
 8000f56:	3a01      	subeq	r2, #1
 8000f58:	d0f9      	beq.n	8000f4e <__aeabi_fdiv+0xc2>
 8000f5a:	ea40 000c 	orr.w	r0, r0, ip
 8000f5e:	f093 0f00 	teq	r3, #0
 8000f62:	f001 4c00 	and.w	ip, r1, #2147483648	@ 0x80000000
 8000f66:	bf02      	ittt	eq
 8000f68:	0049      	lsleq	r1, r1, #1
 8000f6a:	f411 0f00 	tsteq.w	r1, #8388608	@ 0x800000
 8000f6e:	3b01      	subeq	r3, #1
 8000f70:	d0f9      	beq.n	8000f66 <__aeabi_fdiv+0xda>
 8000f72:	ea41 010c 	orr.w	r1, r1, ip
 8000f76:	e795      	b.n	8000ea4 <__aeabi_fdiv+0x18>
 8000f78:	ea0c 53d1 	and.w	r3, ip, r1, lsr #23
 8000f7c:	ea92 0f0c 	teq	r2, ip
 8000f80:	d108      	bne.n	8000f94 <__aeabi_fdiv+0x108>
 8000f82:	0242      	lsls	r2, r0, #9
 8000f84:	f47f af7d 	bne.w	8000e82 <__aeabi_fmul+0x15e>
 8000f88:	ea93 0f0c 	teq	r3, ip
 8000f8c:	f47f af70 	bne.w	8000e70 <__aeabi_fmul+0x14c>
 8000f90:	4608      	mov	r0, r1
 8000f92:	e776      	b.n	8000e82 <__aeabi_fmul+0x15e>
 8000f94:	ea93 0f0c 	teq	r3, ip
 8000f98:	d104      	bne.n	8000fa4 <__aeabi_fdiv+0x118>
 8000f9a:	024b      	lsls	r3, r1, #9
 8000f9c:	f43f af4c 	beq.w	8000e38 <__aeabi_fmul+0x114>
 8000fa0:	4608      	mov	r0, r1
 8000fa2:	e76e      	b.n	8000e82 <__aeabi_fmul+0x15e>
 8000fa4:	f030 4c00 	bics.w	ip, r0, #2147483648	@ 0x80000000
 8000fa8:	bf18      	it	ne
 8000faa:	f031 4c00 	bicsne.w	ip, r1, #2147483648	@ 0x80000000
 8000fae:	d1ca      	bne.n	8000f46 <__aeabi_fdiv+0xba>
 8000fb0:	f030 4200 	bics.w	r2, r0, #2147483648	@ 0x80000000
 8000fb4:	f47f af5c 	bne.w	8000e70 <__aeabi_fmul+0x14c>
 8000fb8:	f031 4300 	bics.w	r3, r1, #2147483648	@ 0x80000000
 8000fbc:	f47f af3c 	bne.w	8000e38 <__aeabi_fmul+0x114>
 8000fc0:	e75f      	b.n	8000e82 <__aeabi_fmul+0x15e>
 8000fc2:	bf00      	nop

08000fc4 <__gesf2>:
 8000fc4:	f04f 3cff 	mov.w	ip, #4294967295	@ 0xffffffff
 8000fc8:	e006      	b.n	8000fd8 <__cmpsf2+0x4>
 8000fca:	bf00      	nop

08000fcc <__lesf2>:
 8000fcc:	f04f 0c01 	mov.w	ip, #1
 8000fd0:	e002      	b.n	8000fd8 <__cmpsf2+0x4>
 8000fd2:	bf00      	nop

08000fd4 <__cmpsf2>:
 8000fd4:	f04f 0c01 	mov.w	ip, #1
 8000fd8:	f84d cd04 	str.w	ip, [sp, #-4]!
 8000fdc:	ea4f 0240 	mov.w	r2, r0, lsl #1
 8000fe0:	ea4f 0341 	mov.w	r3, r1, lsl #1
 8000fe4:	ea7f 6c22 	mvns.w	ip, r2, asr #24
 8000fe8:	bf18      	it	ne
 8000fea:	ea7f 6c23 	mvnsne.w	ip, r3, asr #24
 8000fee:	d011      	beq.n	8001014 <__cmpsf2+0x40>
 8000ff0:	b001      	add	sp, #4
 8000ff2:	ea52 0c53 	orrs.w	ip, r2, r3, lsr #1
 8000ff6:	bf18      	it	ne
 8000ff8:	ea90 0f01 	teqne	r0, r1
 8000ffc:	bf58      	it	pl
 8000ffe:	ebb2 0003 	subspl.w	r0, r2, r3
 8001002:	bf88      	it	hi
 8001004:	17c8      	asrhi	r0, r1, #31
 8001006:	bf38      	it	cc
 8001008:	ea6f 70e1 	mvncc.w	r0, r1, asr #31
 800100c:	bf18      	it	ne
 800100e:	f040 0001 	orrne.w	r0, r0, #1
 8001012:	4770      	bx	lr
 8001014:	ea7f 6c22 	mvns.w	ip, r2, asr #24
 8001018:	d102      	bne.n	8001020 <__cmpsf2+0x4c>
 800101a:	ea5f 2c40 	movs.w	ip, r0, lsl #9
 800101e:	d105      	bne.n	800102c <__cmpsf2+0x58>
 8001020:	ea7f 6c23 	mvns.w	ip, r3, asr #24
 8001024:	d1e4      	bne.n	8000ff0 <__cmpsf2+0x1c>
 8001026:	ea5f 2c41 	movs.w	ip, r1, lsl #9
 800102a:	d0e1      	beq.n	8000ff0 <__cmpsf2+0x1c>
 800102c:	f85d 0b04 	ldr.w	r0, [sp], #4
 8001030:	4770      	bx	lr
 8001032:	bf00      	nop

08001034 <__aeabi_cfrcmple>:
 8001034:	4684      	mov	ip, r0
 8001036:	4608      	mov	r0, r1
 8001038:	4661      	mov	r1, ip
 800103a:	e7ff      	b.n	800103c <__aeabi_cfcmpeq>

0800103c <__aeabi_cfcmpeq>:
 800103c:	b50f      	push	{r0, r1, r2, r3, lr}
 800103e:	f7ff ffc9 	bl	8000fd4 <__cmpsf2>
 8001042:	2800      	cmp	r0, #0
 8001044:	bf48      	it	mi
 8001046:	f110 0f00 	cmnmi.w	r0, #0
 800104a:	bd0f      	pop	{r0, r1, r2, r3, pc}

0800104c <__aeabi_fcmpeq>:
 800104c:	f84d ed08 	str.w	lr, [sp, #-8]!
 8001050:	f7ff fff4 	bl	800103c <__aeabi_cfcmpeq>
 8001054:	bf0c      	ite	eq
 8001056:	2001      	moveq	r0, #1
 8001058:	2000      	movne	r0, #0
 800105a:	f85d fb08 	ldr.w	pc, [sp], #8
 800105e:	bf00      	nop

08001060 <__aeabi_fcmplt>:
 8001060:	f84d ed08 	str.w	lr, [sp, #-8]!
 8001064:	f7ff ffea 	bl	800103c <__aeabi_cfcmpeq>
 8001068:	bf34      	ite	cc
 800106a:	2001      	movcc	r0, #1
 800106c:	2000      	movcs	r0, #0
 800106e:	f85d fb08 	ldr.w	pc, [sp], #8
 8001072:	bf00      	nop

08001074 <__aeabi_fcmple>:
 8001074:	f84d ed08 	str.w	lr, [sp, #-8]!
 8001078:	f7ff ffe0 	bl	800103c <__aeabi_cfcmpeq>
 800107c:	bf94      	ite	ls
 800107e:	2001      	movls	r0, #1
 8001080:	2000      	movhi	r0, #0
 8001082:	f85d fb08 	ldr.w	pc, [sp], #8
 8001086:	bf00      	nop

08001088 <__aeabi_fcmpge>:
 8001088:	f84d ed08 	str.w	lr, [sp, #-8]!
 800108c:	f7ff ffd2 	bl	8001034 <__aeabi_cfrcmple>
 8001090:	bf94      	ite	ls
 8001092:	2001      	movls	r0, #1
 8001094:	2000      	movhi	r0, #0
 8001096:	f85d fb08 	ldr.w	pc, [sp], #8
 800109a:	bf00      	nop

0800109c <__aeabi_fcmpgt>:
 800109c:	f84d ed08 	str.w	lr, [sp, #-8]!
 80010a0:	f7ff ffc8 	bl	8001034 <__aeabi_cfrcmple>
 80010a4:	bf34      	ite	cc
 80010a6:	2001      	movcc	r0, #1
 80010a8:	2000      	movcs	r0, #0
 80010aa:	f85d fb08 	ldr.w	pc, [sp], #8
 80010ae:	bf00      	nop

080010b0 <__aeabi_f2uiz>:
 80010b0:	0042      	lsls	r2, r0, #1
 80010b2:	d20e      	bcs.n	80010d2 <__aeabi_f2uiz+0x22>
 80010b4:	f1b2 4ffe 	cmp.w	r2, #2130706432	@ 0x7f000000
 80010b8:	d30b      	bcc.n	80010d2 <__aeabi_f2uiz+0x22>
 80010ba:	f04f 039e 	mov.w	r3, #158	@ 0x9e
 80010be:	ebb3 6212 	subs.w	r2, r3, r2, lsr #24
 80010c2:	d409      	bmi.n	80010d8 <__aeabi_f2uiz+0x28>
 80010c4:	ea4f 2300 	mov.w	r3, r0, lsl #8
 80010c8:	f043 4300 	orr.w	r3, r3, #2147483648	@ 0x80000000
 80010cc:	fa23 f002 	lsr.w	r0, r3, r2
 80010d0:	4770      	bx	lr
 80010d2:	f04f 0000 	mov.w	r0, #0
 80010d6:	4770      	bx	lr
 80010d8:	f112 0f61 	cmn.w	r2, #97	@ 0x61
 80010dc:	d101      	bne.n	80010e2 <__aeabi_f2uiz+0x32>
 80010de:	0242      	lsls	r2, r0, #9
 80010e0:	d102      	bne.n	80010e8 <__aeabi_f2uiz+0x38>
 80010e2:	f04f 30ff 	mov.w	r0, #4294967295	@ 0xffffffff
 80010e6:	4770      	bx	lr
 80010e8:	f04f 0000 	mov.w	r0, #0
 80010ec:	4770      	bx	lr
 80010ee:	bf00      	nop

080010f0 <coolerOn>:

    return (uint16_t)output;
}

void coolerOn(TIM_HandleTypeDef *htim2, ADC_HandleTypeDef *hadc1)
{
 80010f0:	b590      	push	{r4, r7, lr}
 80010f2:	b085      	sub	sp, #20
 80010f4:	af00      	add	r7, sp, #0
 80010f6:	6078      	str	r0, [r7, #4]
 80010f8:	6039      	str	r1, [r7, #0]
	float average = 0;               //Variable to store the average of ADC samples
 80010fa:	f04f 0300 	mov.w	r3, #0
 80010fe:	60fb      	str	r3, [r7, #12]
	float cooler_temperature;                   //Variable to store the calculated temperature in Celsius

	for (i = 0; i < NUMSAMPLES; i++)
 8001100:	4b71      	ldr	r3, [pc, #452]	@ (80012c8 <coolerOn+0x1d8>)
 8001102:	2200      	movs	r2, #0
 8001104:	701a      	strb	r2, [r3, #0]
 8001106:	e01e      	b.n	8001146 <coolerOn+0x56>
	{
		  HAL_ADC_Start(hadc1);                              //Start the ADC conversion
 8001108:	6838      	ldr	r0, [r7, #0]
 800110a:	f001 f895 	bl	8002238 <HAL_ADC_Start>
		  HAL_ADC_PollForConversion(hadc1, HAL_MAX_DELAY);   //Wait for the conversion to complete
 800110e:	f04f 31ff 	mov.w	r1, #4294967295	@ 0xffffffff
 8001112:	6838      	ldr	r0, [r7, #0]
 8001114:	f001 f93e 	bl	8002394 <HAL_ADC_PollForConversion>
		  samples[i] = HAL_ADC_GetValue(hadc1);              //Read the ADC conversion result
 8001118:	6838      	ldr	r0, [r7, #0]
 800111a:	f001 fa41 	bl	80025a0 <HAL_ADC_GetValue>
 800111e:	4603      	mov	r3, r0
 8001120:	4a69      	ldr	r2, [pc, #420]	@ (80012c8 <coolerOn+0x1d8>)
 8001122:	7812      	ldrb	r2, [r2, #0]
 8001124:	4614      	mov	r4, r2
 8001126:	4618      	mov	r0, r3
 8001128:	f7ff fda4 	bl	8000c74 <__aeabi_ui2f>
 800112c:	4603      	mov	r3, r0
 800112e:	4a67      	ldr	r2, [pc, #412]	@ (80012cc <coolerOn+0x1dc>)
 8001130:	f842 3024 	str.w	r3, [r2, r4, lsl #2]
		  osDelay(10);                                      //Delay between samples to stabilize the ADC readings
 8001134:	200a      	movs	r0, #10
 8001136:	f004 fba8 	bl	800588a <osDelay>
	for (i = 0; i < NUMSAMPLES; i++)
 800113a:	4b63      	ldr	r3, [pc, #396]	@ (80012c8 <coolerOn+0x1d8>)
 800113c:	781b      	ldrb	r3, [r3, #0]
 800113e:	3301      	adds	r3, #1
 8001140:	b2da      	uxtb	r2, r3
 8001142:	4b61      	ldr	r3, [pc, #388]	@ (80012c8 <coolerOn+0x1d8>)
 8001144:	701a      	strb	r2, [r3, #0]
 8001146:	4b60      	ldr	r3, [pc, #384]	@ (80012c8 <coolerOn+0x1d8>)
 8001148:	781b      	ldrb	r3, [r3, #0]
 800114a:	2b13      	cmp	r3, #19
 800114c:	d9dc      	bls.n	8001108 <coolerOn+0x18>
	}

	for (i = 0; i < NUMSAMPLES; i++)
 800114e:	4b5e      	ldr	r3, [pc, #376]	@ (80012c8 <coolerOn+0x1d8>)
 8001150:	2200      	movs	r2, #0
 8001152:	701a      	strb	r2, [r3, #0]
 8001154:	e011      	b.n	800117a <coolerOn+0x8a>
	{
		average += samples[i];  //Sum up all the ADC sample values
 8001156:	4b5c      	ldr	r3, [pc, #368]	@ (80012c8 <coolerOn+0x1d8>)
 8001158:	781b      	ldrb	r3, [r3, #0]
 800115a:	461a      	mov	r2, r3
 800115c:	4b5b      	ldr	r3, [pc, #364]	@ (80012cc <coolerOn+0x1dc>)
 800115e:	f853 3022 	ldr.w	r3, [r3, r2, lsl #2]
 8001162:	4619      	mov	r1, r3
 8001164:	68f8      	ldr	r0, [r7, #12]
 8001166:	f7ff fcd5 	bl	8000b14 <__addsf3>
 800116a:	4603      	mov	r3, r0
 800116c:	60fb      	str	r3, [r7, #12]
	for (i = 0; i < NUMSAMPLES; i++)
 800116e:	4b56      	ldr	r3, [pc, #344]	@ (80012c8 <coolerOn+0x1d8>)
 8001170:	781b      	ldrb	r3, [r3, #0]
 8001172:	3301      	adds	r3, #1
 8001174:	b2da      	uxtb	r2, r3
 8001176:	4b54      	ldr	r3, [pc, #336]	@ (80012c8 <coolerOn+0x1d8>)
 8001178:	701a      	strb	r2, [r3, #0]
 800117a:	4b53      	ldr	r3, [pc, #332]	@ (80012c8 <coolerOn+0x1d8>)
 800117c:	781b      	ldrb	r3, [r3, #0]
 800117e:	2b13      	cmp	r3, #19
 8001180:	d9e9      	bls.n	8001156 <coolerOn+0x66>
	}

    average /= NUMSAMPLES;  //Calculate the average of the ADC samples
 8001182:	4953      	ldr	r1, [pc, #332]	@ (80012d0 <coolerOn+0x1e0>)
 8001184:	68f8      	ldr	r0, [r7, #12]
 8001186:	f7ff fe81 	bl	8000e8c <__aeabi_fdiv>
 800118a:	4603      	mov	r3, r0
 800118c:	60fb      	str	r3, [r7, #12]

    if (average > 0)
 800118e:	f04f 0100 	mov.w	r1, #0
 8001192:	68f8      	ldr	r0, [r7, #12]
 8001194:	f7ff ff82 	bl	800109c <__aeabi_fcmpgt>
 8001198:	4603      	mov	r3, r0
 800119a:	2b00      	cmp	r3, #0
 800119c:	d055      	beq.n	800124a <coolerOn+0x15a>
    {  // Ensure the average is not zero to avoid division errors
        average = 4094 / average - 1;  // Convert ADC reading to resistance using 12-bit ADC resolution
 800119e:	68f9      	ldr	r1, [r7, #12]
 80011a0:	484c      	ldr	r0, [pc, #304]	@ (80012d4 <coolerOn+0x1e4>)
 80011a2:	f7ff fe73 	bl	8000e8c <__aeabi_fdiv>
 80011a6:	4603      	mov	r3, r0
 80011a8:	f04f 517e 	mov.w	r1, #1065353216	@ 0x3f800000
 80011ac:	4618      	mov	r0, r3
 80011ae:	f7ff fcaf 	bl	8000b10 <__aeabi_fsub>
 80011b2:	4603      	mov	r3, r0
 80011b4:	60fb      	str	r3, [r7, #12]
        average = SERIESRESISTOR / average;  // Calculate the thermistor resistance
 80011b6:	68f9      	ldr	r1, [r7, #12]
 80011b8:	4847      	ldr	r0, [pc, #284]	@ (80012d8 <coolerOn+0x1e8>)
 80011ba:	f7ff fe67 	bl	8000e8c <__aeabi_fdiv>
 80011be:	4603      	mov	r3, r0
 80011c0:	60fb      	str	r3, [r7, #12]

        // Apply the cooler_temperature-Hart equation to convert resistance to temperature
        cooler_temperature = average / THERMISTORNOMINAL;  //Compute the ratio of thermistor resistance to nominal resistance
 80011c2:	4945      	ldr	r1, [pc, #276]	@ (80012d8 <coolerOn+0x1e8>)
 80011c4:	68f8      	ldr	r0, [r7, #12]
 80011c6:	f7ff fe61 	bl	8000e8c <__aeabi_fdiv>
 80011ca:	4603      	mov	r3, r0
 80011cc:	60bb      	str	r3, [r7, #8]
        cooler_temperature = log(cooler_temperature);  //Compute the natural logarithm of the resistance ratio
 80011ce:	68b8      	ldr	r0, [r7, #8]
 80011d0:	f7ff f922 	bl	8000418 <__aeabi_f2d>
 80011d4:	4602      	mov	r2, r0
 80011d6:	460b      	mov	r3, r1
 80011d8:	4610      	mov	r0, r2
 80011da:	4619      	mov	r1, r3
 80011dc:	f005 fdf2 	bl	8006dc4 <log>
 80011e0:	4602      	mov	r2, r0
 80011e2:	460b      	mov	r3, r1
 80011e4:	4610      	mov	r0, r2
 80011e6:	4619      	mov	r1, r3
 80011e8:	f7ff fc3e 	bl	8000a68 <__aeabi_d2f>
 80011ec:	4603      	mov	r3, r0
 80011ee:	60bb      	str	r3, [r7, #8]
        cooler_temperature /= BCOEFFICIENT;  //Divide by the thermistor's Beta coefficient
 80011f0:	493a      	ldr	r1, [pc, #232]	@ (80012dc <coolerOn+0x1ec>)
 80011f2:	68b8      	ldr	r0, [r7, #8]
 80011f4:	f7ff fe4a 	bl	8000e8c <__aeabi_fdiv>
 80011f8:	4603      	mov	r3, r0
 80011fa:	60bb      	str	r3, [r7, #8]
        cooler_temperature += 1.0 / (TEMPERATURENOMINAL + 273.15);  //Add the reciprocal of the nominal temperature in Kelvin
 80011fc:	68b8      	ldr	r0, [r7, #8]
 80011fe:	f7ff f90b 	bl	8000418 <__aeabi_f2d>
 8001202:	a32d      	add	r3, pc, #180	@ (adr r3, 80012b8 <coolerOn+0x1c8>)
 8001204:	e9d3 2300 	ldrd	r2, r3, [r3]
 8001208:	f7fe ffa8 	bl	800015c <__adddf3>
 800120c:	4602      	mov	r2, r0
 800120e:	460b      	mov	r3, r1
 8001210:	4610      	mov	r0, r2
 8001212:	4619      	mov	r1, r3
 8001214:	f7ff fc28 	bl	8000a68 <__aeabi_d2f>
 8001218:	4603      	mov	r3, r0
 800121a:	60bb      	str	r3, [r7, #8]
        cooler_temperature = 1.0 / cooler_temperature;  //Compute the reciprocal to get the temperature in Kelvin
 800121c:	68b9      	ldr	r1, [r7, #8]
 800121e:	f04f 507e 	mov.w	r0, #1065353216	@ 0x3f800000
 8001222:	f7ff fe33 	bl	8000e8c <__aeabi_fdiv>
 8001226:	4603      	mov	r3, r0
 8001228:	60bb      	str	r3, [r7, #8]
        cooler_temperature -= 273.15;  //Convert the temperature from Kelvin to Celsius
 800122a:	68b8      	ldr	r0, [r7, #8]
 800122c:	f7ff f8f4 	bl	8000418 <__aeabi_f2d>
 8001230:	a323      	add	r3, pc, #140	@ (adr r3, 80012c0 <coolerOn+0x1d0>)
 8001232:	e9d3 2300 	ldrd	r2, r3, [r3]
 8001236:	f7fe ff8f 	bl	8000158 <__aeabi_dsub>
 800123a:	4602      	mov	r2, r0
 800123c:	460b      	mov	r3, r1
 800123e:	4610      	mov	r0, r2
 8001240:	4619      	mov	r1, r3
 8001242:	f7ff fc11 	bl	8000a68 <__aeabi_d2f>
 8001246:	4603      	mov	r3, r0
 8001248:	60bb      	str	r3, [r7, #8]
    else
    {
        //HANDLE THE ERROR
    }

    osDelay(5000);
 800124a:	f241 3088 	movw	r0, #5000	@ 0x1388
 800124e:	f004 fb1c 	bl	800588a <osDelay>


    HAL_GPIO_WritePin(GPIOB, GPIO_PIN_3,1);   //PWM pin for cooler
 8001252:	2201      	movs	r2, #1
 8001254:	2108      	movs	r1, #8
 8001256:	4822      	ldr	r0, [pc, #136]	@ (80012e0 <coolerOn+0x1f0>)
 8001258:	f001 fd9e 	bl	8002d98 <HAL_GPIO_WritePin>
    //TIM2->CCR2 = calculatePIDCooler(cooler_temperature, -18);
    //HAL_TIM_PWM_Start(htim2, TIM_CHANNEL_2);  //Select the write channel for pin

    if(cooler_temperature > (SET_COOLER_TEMP+5))
 800125c:	f04f 0100 	mov.w	r1, #0
 8001260:	68b8      	ldr	r0, [r7, #8]
 8001262:	f7ff ff1b 	bl	800109c <__aeabi_fcmpgt>
 8001266:	4603      	mov	r3, r0
 8001268:	2b00      	cmp	r3, #0
 800126a:	d008      	beq.n	800127e <coolerOn+0x18e>
    {
    	TIM2->CCR2 = 100;
 800126c:	f04f 4380 	mov.w	r3, #1073741824	@ 0x40000000
 8001270:	2264      	movs	r2, #100	@ 0x64
 8001272:	639a      	str	r2, [r3, #56]	@ 0x38
    	HAL_TIM_PWM_Start(htim2, TIM_CHANNEL_2);
 8001274:	2104      	movs	r1, #4
 8001276:	6878      	ldr	r0, [r7, #4]
 8001278:	f003 fc02 	bl	8004a80 <HAL_TIM_PWM_Start>
    else
	{
		TIM2->CCR2 = 60;
		HAL_TIM_PWM_Start(htim2, TIM_CHANNEL_2);
	}
}
 800127c:	e017      	b.n	80012ae <coolerOn+0x1be>
    else if (cooler_temperature > (SET_COOLER_TEMP+2))
 800127e:	4919      	ldr	r1, [pc, #100]	@ (80012e4 <coolerOn+0x1f4>)
 8001280:	68b8      	ldr	r0, [r7, #8]
 8001282:	f7ff ff0b 	bl	800109c <__aeabi_fcmpgt>
 8001286:	4603      	mov	r3, r0
 8001288:	2b00      	cmp	r3, #0
 800128a:	d008      	beq.n	800129e <coolerOn+0x1ae>
    	TIM2->CCR2 = 80;
 800128c:	f04f 4380 	mov.w	r3, #1073741824	@ 0x40000000
 8001290:	2250      	movs	r2, #80	@ 0x50
 8001292:	639a      	str	r2, [r3, #56]	@ 0x38
    	HAL_TIM_PWM_Start(htim2, TIM_CHANNEL_2);
 8001294:	2104      	movs	r1, #4
 8001296:	6878      	ldr	r0, [r7, #4]
 8001298:	f003 fbf2 	bl	8004a80 <HAL_TIM_PWM_Start>
}
 800129c:	e007      	b.n	80012ae <coolerOn+0x1be>
		TIM2->CCR2 = 60;
 800129e:	f04f 4380 	mov.w	r3, #1073741824	@ 0x40000000
 80012a2:	223c      	movs	r2, #60	@ 0x3c
 80012a4:	639a      	str	r2, [r3, #56]	@ 0x38
		HAL_TIM_PWM_Start(htim2, TIM_CHANNEL_2);
 80012a6:	2104      	movs	r1, #4
 80012a8:	6878      	ldr	r0, [r7, #4]
 80012aa:	f003 fbe9 	bl	8004a80 <HAL_TIM_PWM_Start>
}
 80012ae:	bf00      	nop
 80012b0:	3714      	adds	r7, #20
 80012b2:	46bd      	mov	sp, r7
 80012b4:	bd90      	pop	{r4, r7, pc}
 80012b6:	bf00      	nop
 80012b8:	dcb5db83 	.word	0xdcb5db83
 80012bc:	3f6b79e1 	.word	0x3f6b79e1
 80012c0:	66666666 	.word	0x66666666
 80012c4:	40711266 	.word	0x40711266
 80012c8:	200000d4 	.word	0x200000d4
 80012cc:	20000084 	.word	0x20000084
 80012d0:	41a00000 	.word	0x41a00000
 80012d4:	457fe000 	.word	0x457fe000
 80012d8:	461c4000 	.word	0x461c4000
 80012dc:	4576e000 	.word	0x4576e000
 80012e0:	40010c00 	.word	0x40010c00
 80012e4:	c0400000 	.word	0xc0400000

080012e8 <vApplicationGetIdleTaskMemory>:
/* USER CODE BEGIN GET_IDLE_TASK_MEMORY */
static StaticTask_t xIdleTaskTCBBuffer;
static StackType_t xIdleStack[configMINIMAL_STACK_SIZE];

void vApplicationGetIdleTaskMemory( StaticTask_t **ppxIdleTaskTCBBuffer, StackType_t **ppxIdleTaskStackBuffer, uint32_t *pulIdleTaskStackSize )
{
 80012e8:	b480      	push	{r7}
 80012ea:	b085      	sub	sp, #20
 80012ec:	af00      	add	r7, sp, #0
 80012ee:	60f8      	str	r0, [r7, #12]
 80012f0:	60b9      	str	r1, [r7, #8]
 80012f2:	607a      	str	r2, [r7, #4]
  *ppxIdleTaskTCBBuffer = &xIdleTaskTCBBuffer;
 80012f4:	68fb      	ldr	r3, [r7, #12]
 80012f6:	4a06      	ldr	r2, [pc, #24]	@ (8001310 <vApplicationGetIdleTaskMemory+0x28>)
 80012f8:	601a      	str	r2, [r3, #0]
  *ppxIdleTaskStackBuffer = &xIdleStack[0];
 80012fa:	68bb      	ldr	r3, [r7, #8]
 80012fc:	4a05      	ldr	r2, [pc, #20]	@ (8001314 <vApplicationGetIdleTaskMemory+0x2c>)
 80012fe:	601a      	str	r2, [r3, #0]
  *pulIdleTaskStackSize = configMINIMAL_STACK_SIZE;
 8001300:	687b      	ldr	r3, [r7, #4]
 8001302:	2280      	movs	r2, #128	@ 0x80
 8001304:	601a      	str	r2, [r3, #0]
  /* place for user code */
}
 8001306:	bf00      	nop
 8001308:	3714      	adds	r7, #20
 800130a:	46bd      	mov	sp, r7
 800130c:	bc80      	pop	{r7}
 800130e:	4770      	bx	lr
 8001310:	200000d8 	.word	0x200000d8
 8001314:	20000178 	.word	0x20000178

08001318 <calculatePIDHeater>:
float integral = 0.0f;
float previous_error = 0.0f;
static uint32_t last_time;
uint16_t pidOutput;

uint16_t calculatePIDHeater() {
 8001318:	b590      	push	{r4, r7, lr}
 800131a:	b087      	sub	sp, #28
 800131c:	af00      	add	r7, sp, #0

    uint32_t current_time = HAL_GetTick(); // Get current time in milliseconds
 800131e:	f000 fea9 	bl	8002074 <HAL_GetTick>
 8001322:	60f8      	str	r0, [r7, #12]
    float delta_time = (current_time - last_time) / 1000.0f; // Convert to seconds
 8001324:	4b4f      	ldr	r3, [pc, #316]	@ (8001464 <calculatePIDHeater+0x14c>)
 8001326:	681b      	ldr	r3, [r3, #0]
 8001328:	68fa      	ldr	r2, [r7, #12]
 800132a:	1ad3      	subs	r3, r2, r3
 800132c:	4618      	mov	r0, r3
 800132e:	f7ff fca1 	bl	8000c74 <__aeabi_ui2f>
 8001332:	4603      	mov	r3, r0
 8001334:	494c      	ldr	r1, [pc, #304]	@ (8001468 <calculatePIDHeater+0x150>)
 8001336:	4618      	mov	r0, r3
 8001338:	f7ff fda8 	bl	8000e8c <__aeabi_fdiv>
 800133c:	4603      	mov	r3, r0
 800133e:	617b      	str	r3, [r7, #20]
    if (delta_time <= 0) delta_time = 0.001; // Avoid division by zero
 8001340:	f04f 0100 	mov.w	r1, #0
 8001344:	6978      	ldr	r0, [r7, #20]
 8001346:	f7ff fe95 	bl	8001074 <__aeabi_fcmple>
 800134a:	4603      	mov	r3, r0
 800134c:	2b00      	cmp	r3, #0
 800134e:	d001      	beq.n	8001354 <calculatePIDHeater+0x3c>
 8001350:	4b46      	ldr	r3, [pc, #280]	@ (800146c <calculatePIDHeater+0x154>)
 8001352:	617b      	str	r3, [r7, #20]
    last_time = current_time;
 8001354:	4a43      	ldr	r2, [pc, #268]	@ (8001464 <calculatePIDHeater+0x14c>)
 8001356:	68fb      	ldr	r3, [r7, #12]
 8001358:	6013      	str	r3, [r2, #0]

    // Calculate error
    float error = target_temperature - temperature;
 800135a:	4b45      	ldr	r3, [pc, #276]	@ (8001470 <calculatePIDHeater+0x158>)
 800135c:	681b      	ldr	r3, [r3, #0]
 800135e:	4618      	mov	r0, r3
 8001360:	f7ff fc8c 	bl	8000c7c <__aeabi_i2f>
 8001364:	4602      	mov	r2, r0
 8001366:	4b43      	ldr	r3, [pc, #268]	@ (8001474 <calculatePIDHeater+0x15c>)
 8001368:	681b      	ldr	r3, [r3, #0]
 800136a:	4619      	mov	r1, r3
 800136c:	4610      	mov	r0, r2
 800136e:	f7ff fbcf 	bl	8000b10 <__aeabi_fsub>
 8001372:	4603      	mov	r3, r0
 8001374:	60bb      	str	r3, [r7, #8]

    // Calculate integral (with anti-windup)
    integral += error * delta_time;
 8001376:	6979      	ldr	r1, [r7, #20]
 8001378:	68b8      	ldr	r0, [r7, #8]
 800137a:	f7ff fcd3 	bl	8000d24 <__aeabi_fmul>
 800137e:	4603      	mov	r3, r0
 8001380:	461a      	mov	r2, r3
 8001382:	4b3d      	ldr	r3, [pc, #244]	@ (8001478 <calculatePIDHeater+0x160>)
 8001384:	681b      	ldr	r3, [r3, #0]
 8001386:	4619      	mov	r1, r3
 8001388:	4610      	mov	r0, r2
 800138a:	f7ff fbc3 	bl	8000b14 <__addsf3>
 800138e:	4603      	mov	r3, r0
 8001390:	461a      	mov	r2, r3
 8001392:	4b39      	ldr	r3, [pc, #228]	@ (8001478 <calculatePIDHeater+0x160>)
 8001394:	601a      	str	r2, [r3, #0]
    if (integral > PWM_MAX / KI) integral = PWM_MAX / KI;
 8001396:	4b38      	ldr	r3, [pc, #224]	@ (8001478 <calculatePIDHeater+0x160>)
 8001398:	681b      	ldr	r3, [r3, #0]
 800139a:	4938      	ldr	r1, [pc, #224]	@ (800147c <calculatePIDHeater+0x164>)
 800139c:	4618      	mov	r0, r3
 800139e:	f7ff fe7d 	bl	800109c <__aeabi_fcmpgt>
 80013a2:	4603      	mov	r3, r0
 80013a4:	2b00      	cmp	r3, #0
 80013a6:	d002      	beq.n	80013ae <calculatePIDHeater+0x96>
 80013a8:	4b33      	ldr	r3, [pc, #204]	@ (8001478 <calculatePIDHeater+0x160>)
 80013aa:	4a34      	ldr	r2, [pc, #208]	@ (800147c <calculatePIDHeater+0x164>)
 80013ac:	601a      	str	r2, [r3, #0]
    if (integral < PWM_MIN / KI) integral = PWM_MIN / KI;
 80013ae:	4b32      	ldr	r3, [pc, #200]	@ (8001478 <calculatePIDHeater+0x160>)
 80013b0:	681b      	ldr	r3, [r3, #0]
 80013b2:	f04f 0100 	mov.w	r1, #0
 80013b6:	4618      	mov	r0, r3
 80013b8:	f7ff fe52 	bl	8001060 <__aeabi_fcmplt>
 80013bc:	4603      	mov	r3, r0
 80013be:	2b00      	cmp	r3, #0
 80013c0:	d003      	beq.n	80013ca <calculatePIDHeater+0xb2>
 80013c2:	4b2d      	ldr	r3, [pc, #180]	@ (8001478 <calculatePIDHeater+0x160>)
 80013c4:	f04f 0200 	mov.w	r2, #0
 80013c8:	601a      	str	r2, [r3, #0]

    // Calculate derivative
    float derivative = (error - previous_error) / delta_time;
 80013ca:	4b2d      	ldr	r3, [pc, #180]	@ (8001480 <calculatePIDHeater+0x168>)
 80013cc:	681b      	ldr	r3, [r3, #0]
 80013ce:	4619      	mov	r1, r3
 80013d0:	68b8      	ldr	r0, [r7, #8]
 80013d2:	f7ff fb9d 	bl	8000b10 <__aeabi_fsub>
 80013d6:	4603      	mov	r3, r0
 80013d8:	6979      	ldr	r1, [r7, #20]
 80013da:	4618      	mov	r0, r3
 80013dc:	f7ff fd56 	bl	8000e8c <__aeabi_fdiv>
 80013e0:	4603      	mov	r3, r0
 80013e2:	607b      	str	r3, [r7, #4]

    // PID formula
    float output = (KP * error) + (KI * integral) + (KD * derivative);
 80013e4:	4927      	ldr	r1, [pc, #156]	@ (8001484 <calculatePIDHeater+0x16c>)
 80013e6:	68b8      	ldr	r0, [r7, #8]
 80013e8:	f7ff fc9c 	bl	8000d24 <__aeabi_fmul>
 80013ec:	4603      	mov	r3, r0
 80013ee:	461c      	mov	r4, r3
 80013f0:	4b21      	ldr	r3, [pc, #132]	@ (8001478 <calculatePIDHeater+0x160>)
 80013f2:	681b      	ldr	r3, [r3, #0]
 80013f4:	4924      	ldr	r1, [pc, #144]	@ (8001488 <calculatePIDHeater+0x170>)
 80013f6:	4618      	mov	r0, r3
 80013f8:	f7ff fc94 	bl	8000d24 <__aeabi_fmul>
 80013fc:	4603      	mov	r3, r0
 80013fe:	4619      	mov	r1, r3
 8001400:	4620      	mov	r0, r4
 8001402:	f7ff fb87 	bl	8000b14 <__addsf3>
 8001406:	4603      	mov	r3, r0
 8001408:	461c      	mov	r4, r3
 800140a:	f04f 0100 	mov.w	r1, #0
 800140e:	6878      	ldr	r0, [r7, #4]
 8001410:	f7ff fc88 	bl	8000d24 <__aeabi_fmul>
 8001414:	4603      	mov	r3, r0
 8001416:	4619      	mov	r1, r3
 8001418:	4620      	mov	r0, r4
 800141a:	f7ff fb7b 	bl	8000b14 <__addsf3>
 800141e:	4603      	mov	r3, r0
 8001420:	613b      	str	r3, [r7, #16]

    // Clamp output to PWM limits
    if (output > PWM_MAX) output = PWM_MAX;
 8001422:	491a      	ldr	r1, [pc, #104]	@ (800148c <calculatePIDHeater+0x174>)
 8001424:	6938      	ldr	r0, [r7, #16]
 8001426:	f7ff fe39 	bl	800109c <__aeabi_fcmpgt>
 800142a:	4603      	mov	r3, r0
 800142c:	2b00      	cmp	r3, #0
 800142e:	d001      	beq.n	8001434 <calculatePIDHeater+0x11c>
 8001430:	4b16      	ldr	r3, [pc, #88]	@ (800148c <calculatePIDHeater+0x174>)
 8001432:	613b      	str	r3, [r7, #16]
    if (output < PWM_MIN) output = PWM_MIN;
 8001434:	f04f 0100 	mov.w	r1, #0
 8001438:	6938      	ldr	r0, [r7, #16]
 800143a:	f7ff fe11 	bl	8001060 <__aeabi_fcmplt>
 800143e:	4603      	mov	r3, r0
 8001440:	2b00      	cmp	r3, #0
 8001442:	d002      	beq.n	800144a <calculatePIDHeater+0x132>
 8001444:	f04f 0300 	mov.w	r3, #0
 8001448:	613b      	str	r3, [r7, #16]

    // Update previous error
    previous_error = error;
 800144a:	4a0d      	ldr	r2, [pc, #52]	@ (8001480 <calculatePIDHeater+0x168>)
 800144c:	68bb      	ldr	r3, [r7, #8]
 800144e:	6013      	str	r3, [r2, #0]

    return (uint16_t)output;
 8001450:	6938      	ldr	r0, [r7, #16]
 8001452:	f7ff fe2d 	bl	80010b0 <__aeabi_f2uiz>
 8001456:	4603      	mov	r3, r0
 8001458:	b29b      	uxth	r3, r3
}
 800145a:	4618      	mov	r0, r3
 800145c:	371c      	adds	r7, #28
 800145e:	46bd      	mov	sp, r7
 8001460:	bd90      	pop	{r4, r7, pc}
 8001462:	bf00      	nop
 8001464:	20000390 	.word	0x20000390
 8001468:	447a0000 	.word	0x447a0000
 800146c:	3a83126f 	.word	0x3a83126f
 8001470:	20000000 	.word	0x20000000
 8001474:	20000380 	.word	0x20000380
 8001478:	20000388 	.word	0x20000388
 800147c:	44fa0000 	.word	0x44fa0000
 8001480:	2000038c 	.word	0x2000038c
 8001484:	40a00000 	.word	0x40a00000
 8001488:	3d4ccccd 	.word	0x3d4ccccd
 800148c:	42c80000 	.word	0x42c80000

08001490 <heaterOn>:


void heaterOn(I2C_HandleTypeDef *hi2c1, TIM_HandleTypeDef *htim1)
{
 8001490:	b590      	push	{r4, r7, lr}
 8001492:	b089      	sub	sp, #36	@ 0x24
 8001494:	af04      	add	r7, sp, #16
 8001496:	6078      	str	r0, [r7, #4]
 8001498:	6039      	str	r1, [r7, #0]
	if(notConnected && (HAL_I2C_IsDeviceReady(hi2c1, (0x5A << 1), 1, 100) == HAL_OK))
 800149a:	4b5f      	ldr	r3, [pc, #380]	@ (8001618 <heaterOn+0x188>)
 800149c:	781b      	ldrb	r3, [r3, #0]
 800149e:	2b00      	cmp	r3, #0
 80014a0:	d011      	beq.n	80014c6 <heaterOn+0x36>
 80014a2:	2364      	movs	r3, #100	@ 0x64
 80014a4:	2201      	movs	r2, #1
 80014a6:	21b4      	movs	r1, #180	@ 0xb4
 80014a8:	6878      	ldr	r0, [r7, #4]
 80014aa:	f002 f845 	bl	8003538 <HAL_I2C_IsDeviceReady>
 80014ae:	4603      	mov	r3, r0
 80014b0:	2b00      	cmp	r3, #0
 80014b2:	d108      	bne.n	80014c6 <heaterOn+0x36>
		  {
			  HAL_GPIO_WritePin(GPIOA, GPIO_PIN_10,1);
 80014b4:	2201      	movs	r2, #1
 80014b6:	f44f 6180 	mov.w	r1, #1024	@ 0x400
 80014ba:	4858      	ldr	r0, [pc, #352]	@ (800161c <heaterOn+0x18c>)
 80014bc:	f001 fc6c 	bl	8002d98 <HAL_GPIO_WritePin>
			  notConnected = 0;
 80014c0:	4b55      	ldr	r3, [pc, #340]	@ (8001618 <heaterOn+0x188>)
 80014c2:	2200      	movs	r2, #0
 80014c4:	701a      	strb	r2, [r3, #0]

		  }
	uint32_t current_time = HAL_GetTick();
 80014c6:	f000 fdd5 	bl	8002074 <HAL_GetTick>
 80014ca:	60f8      	str	r0, [r7, #12]

	if(turnedOn || temperature > target_temperature - 5)
 80014cc:	4b54      	ldr	r3, [pc, #336]	@ (8001620 <heaterOn+0x190>)
 80014ce:	781b      	ldrb	r3, [r3, #0]
 80014d0:	2b00      	cmp	r3, #0
 80014d2:	d10f      	bne.n	80014f4 <heaterOn+0x64>
 80014d4:	4b53      	ldr	r3, [pc, #332]	@ (8001624 <heaterOn+0x194>)
 80014d6:	681b      	ldr	r3, [r3, #0]
 80014d8:	3b05      	subs	r3, #5
 80014da:	4618      	mov	r0, r3
 80014dc:	f7ff fbce 	bl	8000c7c <__aeabi_i2f>
 80014e0:	4602      	mov	r2, r0
 80014e2:	4b51      	ldr	r3, [pc, #324]	@ (8001628 <heaterOn+0x198>)
 80014e4:	681b      	ldr	r3, [r3, #0]
 80014e6:	4619      	mov	r1, r3
 80014e8:	4610      	mov	r0, r2
 80014ea:	f7ff fdb9 	bl	8001060 <__aeabi_fcmplt>
 80014ee:	4603      	mov	r3, r0
 80014f0:	2b00      	cmp	r3, #0
 80014f2:	d005      	beq.n	8001500 <heaterOn+0x70>
	{
		timeSinceOn = current_time;
 80014f4:	68fb      	ldr	r3, [r7, #12]
 80014f6:	4a4d      	ldr	r2, [pc, #308]	@ (800162c <heaterOn+0x19c>)
 80014f8:	6013      	str	r3, [r2, #0]
		turnedOn = false;
 80014fa:	4b49      	ldr	r3, [pc, #292]	@ (8001620 <heaterOn+0x190>)
 80014fc:	2200      	movs	r2, #0
 80014fe:	701a      	strb	r2, [r3, #0]
	}

	  HAL_I2C_Mem_Read(hi2c1, (0x5A << 1), 0x07, 1, (uint8_t*)i2cdata, 2, 100);
 8001500:	2364      	movs	r3, #100	@ 0x64
 8001502:	9302      	str	r3, [sp, #8]
 8001504:	2302      	movs	r3, #2
 8001506:	9301      	str	r3, [sp, #4]
 8001508:	4b49      	ldr	r3, [pc, #292]	@ (8001630 <heaterOn+0x1a0>)
 800150a:	9300      	str	r3, [sp, #0]
 800150c:	2301      	movs	r3, #1
 800150e:	2207      	movs	r2, #7
 8001510:	21b4      	movs	r1, #180	@ 0xb4
 8001512:	6878      	ldr	r0, [r7, #4]
 8001514:	f001 fd9c 	bl	8003050 <HAL_I2C_Mem_Read>
	  raw_temp = ((i2cdata[1] << 8) | (i2cdata[0]));
 8001518:	4b45      	ldr	r3, [pc, #276]	@ (8001630 <heaterOn+0x1a0>)
 800151a:	785b      	ldrb	r3, [r3, #1]
 800151c:	021b      	lsls	r3, r3, #8
 800151e:	4a44      	ldr	r2, [pc, #272]	@ (8001630 <heaterOn+0x1a0>)
 8001520:	7812      	ldrb	r2, [r2, #0]
 8001522:	4313      	orrs	r3, r2
 8001524:	4a43      	ldr	r2, [pc, #268]	@ (8001634 <heaterOn+0x1a4>)
 8001526:	6013      	str	r3, [r2, #0]
	  temperature = raw_temp*0.02 - 273.15;
 8001528:	4b42      	ldr	r3, [pc, #264]	@ (8001634 <heaterOn+0x1a4>)
 800152a:	681b      	ldr	r3, [r3, #0]
 800152c:	4618      	mov	r0, r3
 800152e:	f7fe ff61 	bl	80003f4 <__aeabi_i2d>
 8001532:	a335      	add	r3, pc, #212	@ (adr r3, 8001608 <heaterOn+0x178>)
 8001534:	e9d3 2300 	ldrd	r2, r3, [r3]
 8001538:	f7fe ffc6 	bl	80004c8 <__aeabi_dmul>
 800153c:	4602      	mov	r2, r0
 800153e:	460b      	mov	r3, r1
 8001540:	4610      	mov	r0, r2
 8001542:	4619      	mov	r1, r3
 8001544:	a332      	add	r3, pc, #200	@ (adr r3, 8001610 <heaterOn+0x180>)
 8001546:	e9d3 2300 	ldrd	r2, r3, [r3]
 800154a:	f7fe fe05 	bl	8000158 <__aeabi_dsub>
 800154e:	4602      	mov	r2, r0
 8001550:	460b      	mov	r3, r1
 8001552:	4610      	mov	r0, r2
 8001554:	4619      	mov	r1, r3
 8001556:	f7ff fa87 	bl	8000a68 <__aeabi_d2f>
 800155a:	4603      	mov	r3, r0
 800155c:	4a32      	ldr	r2, [pc, #200]	@ (8001628 <heaterOn+0x198>)
 800155e:	6013      	str	r3, [r2, #0]


	  osDelay(200);
 8001560:	20c8      	movs	r0, #200	@ 0xc8
 8001562:	f004 f992 	bl	800588a <osDelay>

	  if(temperature < -20 || temperature > 60)  //|| current_time > (timeSinceOn + 150000)
 8001566:	4b30      	ldr	r3, [pc, #192]	@ (8001628 <heaterOn+0x198>)
 8001568:	681b      	ldr	r3, [r3, #0]
 800156a:	4933      	ldr	r1, [pc, #204]	@ (8001638 <heaterOn+0x1a8>)
 800156c:	4618      	mov	r0, r3
 800156e:	f7ff fd77 	bl	8001060 <__aeabi_fcmplt>
 8001572:	4603      	mov	r3, r0
 8001574:	2b00      	cmp	r3, #0
 8001576:	d108      	bne.n	800158a <heaterOn+0xfa>
 8001578:	4b2b      	ldr	r3, [pc, #172]	@ (8001628 <heaterOn+0x198>)
 800157a:	681b      	ldr	r3, [r3, #0]
 800157c:	492f      	ldr	r1, [pc, #188]	@ (800163c <heaterOn+0x1ac>)
 800157e:	4618      	mov	r0, r3
 8001580:	f7ff fd8c 	bl	800109c <__aeabi_fcmpgt>
 8001584:	4603      	mov	r3, r0
 8001586:	2b00      	cmp	r3, #0
 8001588:	d007      	beq.n	800159a <heaterOn+0x10a>
	  {
		  TIM1->CCR1 = 0;				//Select the write channel for pin
 800158a:	4b2d      	ldr	r3, [pc, #180]	@ (8001640 <heaterOn+0x1b0>)
 800158c:	2200      	movs	r2, #0
 800158e:	635a      	str	r2, [r3, #52]	@ 0x34
		  HAL_TIM_PWM_Start(htim1, TIM_CHANNEL_1);
 8001590:	2100      	movs	r1, #0
 8001592:	6838      	ldr	r0, [r7, #0]
 8001594:	f003 fa74 	bl	8004a80 <HAL_TIM_PWM_Start>
 8001598:	e031      	b.n	80015fe <heaterOn+0x16e>
	  }

	  else{

	  HAL_GPIO_WritePin(GPIOA, GPIO_PIN_8,1);   //PWM pin for heater
 800159a:	2201      	movs	r2, #1
 800159c:	f44f 7180 	mov.w	r1, #256	@ 0x100
 80015a0:	481e      	ldr	r0, [pc, #120]	@ (800161c <heaterOn+0x18c>)
 80015a2:	f001 fbf9 	bl	8002d98 <HAL_GPIO_WritePin>
	  HAL_GPIO_WritePin(GPIOA, GPIO_PIN_9, 1);
 80015a6:	2201      	movs	r2, #1
 80015a8:	f44f 7100 	mov.w	r1, #512	@ 0x200
 80015ac:	481b      	ldr	r0, [pc, #108]	@ (800161c <heaterOn+0x18c>)
 80015ae:	f001 fbf3 	bl	8002d98 <HAL_GPIO_WritePin>
	  pidOutput = calculatePIDHeater();
 80015b2:	f7ff feb1 	bl	8001318 <calculatePIDHeater>
 80015b6:	4603      	mov	r3, r0
 80015b8:	461a      	mov	r2, r3
 80015ba:	4b22      	ldr	r3, [pc, #136]	@ (8001644 <heaterOn+0x1b4>)
 80015bc:	801a      	strh	r2, [r3, #0]
	  TIM1->CCR1 = pidOutput;				//Select the write channel for pin
 80015be:	4b21      	ldr	r3, [pc, #132]	@ (8001644 <heaterOn+0x1b4>)
 80015c0:	881a      	ldrh	r2, [r3, #0]
 80015c2:	4b1f      	ldr	r3, [pc, #124]	@ (8001640 <heaterOn+0x1b0>)
 80015c4:	635a      	str	r2, [r3, #52]	@ 0x34
	  TIM1->CCR2 = pidOutput *1.5;
 80015c6:	4b1f      	ldr	r3, [pc, #124]	@ (8001644 <heaterOn+0x1b4>)
 80015c8:	881b      	ldrh	r3, [r3, #0]
 80015ca:	4618      	mov	r0, r3
 80015cc:	f7fe ff12 	bl	80003f4 <__aeabi_i2d>
 80015d0:	f04f 0200 	mov.w	r2, #0
 80015d4:	4b1c      	ldr	r3, [pc, #112]	@ (8001648 <heaterOn+0x1b8>)
 80015d6:	f7fe ff77 	bl	80004c8 <__aeabi_dmul>
 80015da:	4602      	mov	r2, r0
 80015dc:	460b      	mov	r3, r1
 80015de:	4c18      	ldr	r4, [pc, #96]	@ (8001640 <heaterOn+0x1b0>)
 80015e0:	4610      	mov	r0, r2
 80015e2:	4619      	mov	r1, r3
 80015e4:	f7ff fa20 	bl	8000a28 <__aeabi_d2uiz>
 80015e8:	4603      	mov	r3, r0
 80015ea:	63a3      	str	r3, [r4, #56]	@ 0x38
	  //TIM1->CCR1 = 0;
	  HAL_TIM_PWM_Start(htim1, TIM_CHANNEL_1);  //Select the write channel for pin
 80015ec:	2100      	movs	r1, #0
 80015ee:	6838      	ldr	r0, [r7, #0]
 80015f0:	f003 fa46 	bl	8004a80 <HAL_TIM_PWM_Start>
	  HAL_TIM_PWM_Start(htim1, TIM_CHANNEL_2);
 80015f4:	2104      	movs	r1, #4
 80015f6:	6838      	ldr	r0, [r7, #0]
 80015f8:	f003 fa42 	bl	8004a80 <HAL_TIM_PWM_Start>
	  }
}
 80015fc:	bf00      	nop
 80015fe:	bf00      	nop
 8001600:	3714      	adds	r7, #20
 8001602:	46bd      	mov	sp, r7
 8001604:	bd90      	pop	{r4, r7, pc}
 8001606:	bf00      	nop
 8001608:	47ae147b 	.word	0x47ae147b
 800160c:	3f947ae1 	.word	0x3f947ae1
 8001610:	66666666 	.word	0x66666666
 8001614:	40711266 	.word	0x40711266
 8001618:	20000004 	.word	0x20000004
 800161c:	40010800 	.word	0x40010800
 8001620:	20000005 	.word	0x20000005
 8001624:	20000000 	.word	0x20000000
 8001628:	20000380 	.word	0x20000380
 800162c:	20000384 	.word	0x20000384
 8001630:	20000378 	.word	0x20000378
 8001634:	2000037c 	.word	0x2000037c
 8001638:	c1a00000 	.word	0xc1a00000
 800163c:	42700000 	.word	0x42700000
 8001640:	40012c00 	.word	0x40012c00
 8001644:	20000394 	.word	0x20000394
 8001648:	3ff80000 	.word	0x3ff80000

0800164c <main>:
/**
  * @brief  The application entry point.
  * @retval int
  */
int main(void)
{
 800164c:	b5b0      	push	{r4, r5, r7, lr}
 800164e:	b096      	sub	sp, #88	@ 0x58
 8001650:	af00      	add	r7, sp, #0
  /* USER CODE END 1 */

  /* MCU Configuration--------------------------------------------------------*/

  /* Reset of all peripherals, Initializes the Flash interface and the Systick. */
  HAL_Init();
 8001652:	f000 fce7 	bl	8002024 <HAL_Init>
  /* USER CODE BEGIN Init */

  /* USER CODE END Init */

  /* Configure the system clock */
  SystemClock_Config();
 8001656:	f000 f851 	bl	80016fc <SystemClock_Config>
  /* USER CODE BEGIN SysInit */

  /* USER CODE END SysInit */

  /* Initialize all configured peripherals */
  MX_GPIO_Init();
 800165a:	f000 fa37 	bl	8001acc <MX_GPIO_Init>
  MX_TIM1_Init();
 800165e:	f000 f915 	bl	800188c <MX_TIM1_Init>
  MX_TIM2_Init();
 8001662:	f000 f9bf 	bl	80019e4 <MX_TIM2_Init>
  MX_I2C1_Init();
 8001666:	f000 f8e3 	bl	8001830 <MX_I2C1_Init>
  MX_ADC1_Init();
 800166a:	f000 f8a3 	bl	80017b4 <MX_ADC1_Init>
  /* add queues, ... */
  /* USER CODE END RTOS_QUEUES */

  /* Create the thread(s) */
  /* definition and creation of GreenLed */
  osThreadDef(GreenLed, StartGreenLed, osPriorityIdle, 0, 128);
 800166e:	4b1d      	ldr	r3, [pc, #116]	@ (80016e4 <main+0x98>)
 8001670:	f107 043c 	add.w	r4, r7, #60	@ 0x3c
 8001674:	461d      	mov	r5, r3
 8001676:	cd0f      	ldmia	r5!, {r0, r1, r2, r3}
 8001678:	c40f      	stmia	r4!, {r0, r1, r2, r3}
 800167a:	e895 0007 	ldmia.w	r5, {r0, r1, r2}
 800167e:	e884 0007 	stmia.w	r4, {r0, r1, r2}
  GreenLedHandle = osThreadCreate(osThread(GreenLed), NULL);
 8001682:	f107 033c 	add.w	r3, r7, #60	@ 0x3c
 8001686:	2100      	movs	r1, #0
 8001688:	4618      	mov	r0, r3
 800168a:	f004 f8b2 	bl	80057f2 <osThreadCreate>
 800168e:	4603      	mov	r3, r0
 8001690:	4a15      	ldr	r2, [pc, #84]	@ (80016e8 <main+0x9c>)
 8001692:	6013      	str	r3, [r2, #0]

  /* definition and creation of Heater */
  osThreadDef(Heater, HeaterFunction, osPriorityHigh, 0, 128);
 8001694:	4b15      	ldr	r3, [pc, #84]	@ (80016ec <main+0xa0>)
 8001696:	f107 0420 	add.w	r4, r7, #32
 800169a:	461d      	mov	r5, r3
 800169c:	cd0f      	ldmia	r5!, {r0, r1, r2, r3}
 800169e:	c40f      	stmia	r4!, {r0, r1, r2, r3}
 80016a0:	e895 0007 	ldmia.w	r5, {r0, r1, r2}
 80016a4:	e884 0007 	stmia.w	r4, {r0, r1, r2}
  HeaterHandle = osThreadCreate(osThread(Heater), NULL);
 80016a8:	f107 0320 	add.w	r3, r7, #32
 80016ac:	2100      	movs	r1, #0
 80016ae:	4618      	mov	r0, r3
 80016b0:	f004 f89f 	bl	80057f2 <osThreadCreate>
 80016b4:	4603      	mov	r3, r0
 80016b6:	4a0e      	ldr	r2, [pc, #56]	@ (80016f0 <main+0xa4>)
 80016b8:	6013      	str	r3, [r2, #0]

  /* definition and creation of Cooler */
  osThreadDef(Cooler, CoolerFunction, osPriorityNormal, 0, 128);
 80016ba:	4b0e      	ldr	r3, [pc, #56]	@ (80016f4 <main+0xa8>)
 80016bc:	1d3c      	adds	r4, r7, #4
 80016be:	461d      	mov	r5, r3
 80016c0:	cd0f      	ldmia	r5!, {r0, r1, r2, r3}
 80016c2:	c40f      	stmia	r4!, {r0, r1, r2, r3}
 80016c4:	e895 0007 	ldmia.w	r5, {r0, r1, r2}
 80016c8:	e884 0007 	stmia.w	r4, {r0, r1, r2}
  CoolerHandle = osThreadCreate(osThread(Cooler), NULL);
 80016cc:	1d3b      	adds	r3, r7, #4
 80016ce:	2100      	movs	r1, #0
 80016d0:	4618      	mov	r0, r3
 80016d2:	f004 f88e 	bl	80057f2 <osThreadCreate>
 80016d6:	4603      	mov	r3, r0
 80016d8:	4a07      	ldr	r2, [pc, #28]	@ (80016f8 <main+0xac>)
 80016da:	6013      	str	r3, [r2, #0]
  /* USER CODE BEGIN RTOS_THREADS */
  /* add threads, ... */
  /* USER CODE END RTOS_THREADS */

  /* Start scheduler */
  osKernelStart();
 80016dc:	f004 f882 	bl	80057e4 <osKernelStart>

  /* We should never get here as control is now taken by the scheduler */

  /* Infinite loop */
  /* USER CODE BEGIN WHILE */
  while (1)
 80016e0:	bf00      	nop
 80016e2:	e7fd      	b.n	80016e0 <main+0x94>
 80016e4:	080071c0 	.word	0x080071c0
 80016e8:	200004ac 	.word	0x200004ac
 80016ec:	080071e4 	.word	0x080071e4
 80016f0:	200004b0 	.word	0x200004b0
 80016f4:	08007208 	.word	0x08007208
 80016f8:	200004b4 	.word	0x200004b4

080016fc <SystemClock_Config>:
/**
  * @brief System Clock Configuration
  * @retval None
  */
void SystemClock_Config(void)
{
 80016fc:	b580      	push	{r7, lr}
 80016fe:	b094      	sub	sp, #80	@ 0x50
 8001700:	af00      	add	r7, sp, #0
  RCC_OscInitTypeDef RCC_OscInitStruct = {0};
 8001702:	f107 0328 	add.w	r3, r7, #40	@ 0x28
 8001706:	2228      	movs	r2, #40	@ 0x28
 8001708:	2100      	movs	r1, #0
 800170a:	4618      	mov	r0, r3
 800170c:	f005 fa7c 	bl	8006c08 <memset>
  RCC_ClkInitTypeDef RCC_ClkInitStruct = {0};
 8001710:	f107 0314 	add.w	r3, r7, #20
 8001714:	2200      	movs	r2, #0
 8001716:	601a      	str	r2, [r3, #0]
 8001718:	605a      	str	r2, [r3, #4]
 800171a:	609a      	str	r2, [r3, #8]
 800171c:	60da      	str	r2, [r3, #12]
 800171e:	611a      	str	r2, [r3, #16]
  RCC_PeriphCLKInitTypeDef PeriphClkInit = {0};
 8001720:	1d3b      	adds	r3, r7, #4
 8001722:	2200      	movs	r2, #0
 8001724:	601a      	str	r2, [r3, #0]
 8001726:	605a      	str	r2, [r3, #4]
 8001728:	609a      	str	r2, [r3, #8]
 800172a:	60da      	str	r2, [r3, #12]

  /** Initializes the RCC Oscillators according to the specified parameters
  * in the RCC_OscInitTypeDef structure.
  */
  RCC_OscInitStruct.OscillatorType = RCC_OSCILLATORTYPE_HSE;
 800172c:	2301      	movs	r3, #1
 800172e:	62bb      	str	r3, [r7, #40]	@ 0x28
  RCC_OscInitStruct.HSEState = RCC_HSE_ON;
 8001730:	f44f 3380 	mov.w	r3, #65536	@ 0x10000
 8001734:	62fb      	str	r3, [r7, #44]	@ 0x2c
  RCC_OscInitStruct.HSEPredivValue = RCC_HSE_PREDIV_DIV1;
 8001736:	2300      	movs	r3, #0
 8001738:	633b      	str	r3, [r7, #48]	@ 0x30
  RCC_OscInitStruct.HSIState = RCC_HSI_ON;
 800173a:	2301      	movs	r3, #1
 800173c:	63bb      	str	r3, [r7, #56]	@ 0x38
  RCC_OscInitStruct.PLL.PLLState = RCC_PLL_ON;
 800173e:	2302      	movs	r3, #2
 8001740:	647b      	str	r3, [r7, #68]	@ 0x44
  RCC_OscInitStruct.PLL.PLLSource = RCC_PLLSOURCE_HSE;
 8001742:	f44f 3380 	mov.w	r3, #65536	@ 0x10000
 8001746:	64bb      	str	r3, [r7, #72]	@ 0x48
  RCC_OscInitStruct.PLL.PLLMUL = RCC_PLL_MUL9;
 8001748:	f44f 13e0 	mov.w	r3, #1835008	@ 0x1c0000
 800174c:	64fb      	str	r3, [r7, #76]	@ 0x4c
  if (HAL_RCC_OscConfig(&RCC_OscInitStruct) != HAL_OK)
 800174e:	f107 0328 	add.w	r3, r7, #40	@ 0x28
 8001752:	4618      	mov	r0, r3
 8001754:	f002 faf4 	bl	8003d40 <HAL_RCC_OscConfig>
 8001758:	4603      	mov	r3, r0
 800175a:	2b00      	cmp	r3, #0
 800175c:	d001      	beq.n	8001762 <SystemClock_Config+0x66>
  {
    Error_Handler();
 800175e:	f000 fa41 	bl	8001be4 <Error_Handler>
  }

  /** Initializes the CPU, AHB and APB buses clocks
  */
  RCC_ClkInitStruct.ClockType = RCC_CLOCKTYPE_HCLK|RCC_CLOCKTYPE_SYSCLK
 8001762:	230f      	movs	r3, #15
 8001764:	617b      	str	r3, [r7, #20]
                              |RCC_CLOCKTYPE_PCLK1|RCC_CLOCKTYPE_PCLK2;
  RCC_ClkInitStruct.SYSCLKSource = RCC_SYSCLKSOURCE_PLLCLK;
 8001766:	2302      	movs	r3, #2
 8001768:	61bb      	str	r3, [r7, #24]
  RCC_ClkInitStruct.AHBCLKDivider = RCC_SYSCLK_DIV1;
 800176a:	2300      	movs	r3, #0
 800176c:	61fb      	str	r3, [r7, #28]
  RCC_ClkInitStruct.APB1CLKDivider = RCC_HCLK_DIV2;
 800176e:	f44f 6380 	mov.w	r3, #1024	@ 0x400
 8001772:	623b      	str	r3, [r7, #32]
  RCC_ClkInitStruct.APB2CLKDivider = RCC_HCLK_DIV1;
 8001774:	2300      	movs	r3, #0
 8001776:	627b      	str	r3, [r7, #36]	@ 0x24

  if (HAL_RCC_ClockConfig(&RCC_ClkInitStruct, FLASH_LATENCY_2) != HAL_OK)
 8001778:	f107 0314 	add.w	r3, r7, #20
 800177c:	2102      	movs	r1, #2
 800177e:	4618      	mov	r0, r3
 8001780:	f002 fd60 	bl	8004244 <HAL_RCC_ClockConfig>
 8001784:	4603      	mov	r3, r0
 8001786:	2b00      	cmp	r3, #0
 8001788:	d001      	beq.n	800178e <SystemClock_Config+0x92>
  {
    Error_Handler();
 800178a:	f000 fa2b 	bl	8001be4 <Error_Handler>
  }
  PeriphClkInit.PeriphClockSelection = RCC_PERIPHCLK_ADC;
 800178e:	2302      	movs	r3, #2
 8001790:	607b      	str	r3, [r7, #4]
  PeriphClkInit.AdcClockSelection = RCC_ADCPCLK2_DIV6;
 8001792:	f44f 4300 	mov.w	r3, #32768	@ 0x8000
 8001796:	60fb      	str	r3, [r7, #12]
  if (HAL_RCCEx_PeriphCLKConfig(&PeriphClkInit) != HAL_OK)
 8001798:	1d3b      	adds	r3, r7, #4
 800179a:	4618      	mov	r0, r3
 800179c:	f002 ff10 	bl	80045c0 <HAL_RCCEx_PeriphCLKConfig>
 80017a0:	4603      	mov	r3, r0
 80017a2:	2b00      	cmp	r3, #0
 80017a4:	d001      	beq.n	80017aa <SystemClock_Config+0xae>
  {
    Error_Handler();
 80017a6:	f000 fa1d 	bl	8001be4 <Error_Handler>
  }
}
 80017aa:	bf00      	nop
 80017ac:	3750      	adds	r7, #80	@ 0x50
 80017ae:	46bd      	mov	sp, r7
 80017b0:	bd80      	pop	{r7, pc}
	...

080017b4 <MX_ADC1_Init>:
  * @brief ADC1 Initialization Function
  * @param None
  * @retval None
  */
static void MX_ADC1_Init(void)
{
 80017b4:	b580      	push	{r7, lr}
 80017b6:	b084      	sub	sp, #16
 80017b8:	af00      	add	r7, sp, #0

  /* USER CODE BEGIN ADC1_Init 0 */

  /* USER CODE END ADC1_Init 0 */

  ADC_ChannelConfTypeDef sConfig = {0};
 80017ba:	1d3b      	adds	r3, r7, #4
 80017bc:	2200      	movs	r2, #0
 80017be:	601a      	str	r2, [r3, #0]
 80017c0:	605a      	str	r2, [r3, #4]
 80017c2:	609a      	str	r2, [r3, #8]

  /* USER CODE END ADC1_Init 1 */

  /** Common config
  */
  hadc1.Instance = ADC1;
 80017c4:	4b18      	ldr	r3, [pc, #96]	@ (8001828 <MX_ADC1_Init+0x74>)
 80017c6:	4a19      	ldr	r2, [pc, #100]	@ (800182c <MX_ADC1_Init+0x78>)
 80017c8:	601a      	str	r2, [r3, #0]
  hadc1.Init.ScanConvMode = ADC_SCAN_DISABLE;
 80017ca:	4b17      	ldr	r3, [pc, #92]	@ (8001828 <MX_ADC1_Init+0x74>)
 80017cc:	2200      	movs	r2, #0
 80017ce:	609a      	str	r2, [r3, #8]
  hadc1.Init.ContinuousConvMode = DISABLE;
 80017d0:	4b15      	ldr	r3, [pc, #84]	@ (8001828 <MX_ADC1_Init+0x74>)
 80017d2:	2200      	movs	r2, #0
 80017d4:	731a      	strb	r2, [r3, #12]
  hadc1.Init.DiscontinuousConvMode = DISABLE;
 80017d6:	4b14      	ldr	r3, [pc, #80]	@ (8001828 <MX_ADC1_Init+0x74>)
 80017d8:	2200      	movs	r2, #0
 80017da:	751a      	strb	r2, [r3, #20]
  hadc1.Init.ExternalTrigConv = ADC_SOFTWARE_START;
 80017dc:	4b12      	ldr	r3, [pc, #72]	@ (8001828 <MX_ADC1_Init+0x74>)
 80017de:	f44f 2260 	mov.w	r2, #917504	@ 0xe0000
 80017e2:	61da      	str	r2, [r3, #28]
  hadc1.Init.DataAlign = ADC_DATAALIGN_RIGHT;
 80017e4:	4b10      	ldr	r3, [pc, #64]	@ (8001828 <MX_ADC1_Init+0x74>)
 80017e6:	2200      	movs	r2, #0
 80017e8:	605a      	str	r2, [r3, #4]
  hadc1.Init.NbrOfConversion = 1;
 80017ea:	4b0f      	ldr	r3, [pc, #60]	@ (8001828 <MX_ADC1_Init+0x74>)
 80017ec:	2201      	movs	r2, #1
 80017ee:	611a      	str	r2, [r3, #16]
  if (HAL_ADC_Init(&hadc1) != HAL_OK)
 80017f0:	480d      	ldr	r0, [pc, #52]	@ (8001828 <MX_ADC1_Init+0x74>)
 80017f2:	f000 fc49 	bl	8002088 <HAL_ADC_Init>
 80017f6:	4603      	mov	r3, r0
 80017f8:	2b00      	cmp	r3, #0
 80017fa:	d001      	beq.n	8001800 <MX_ADC1_Init+0x4c>
  {
    Error_Handler();
 80017fc:	f000 f9f2 	bl	8001be4 <Error_Handler>
  }

  /** Configure Regular Channel
  */
  sConfig.Channel = ADC_CHANNEL_1;
 8001800:	2301      	movs	r3, #1
 8001802:	607b      	str	r3, [r7, #4]
  sConfig.Rank = ADC_REGULAR_RANK_1;
 8001804:	2301      	movs	r3, #1
 8001806:	60bb      	str	r3, [r7, #8]
  sConfig.SamplingTime = ADC_SAMPLETIME_1CYCLE_5;
 8001808:	2300      	movs	r3, #0
 800180a:	60fb      	str	r3, [r7, #12]
  if (HAL_ADC_ConfigChannel(&hadc1, &sConfig) != HAL_OK)
 800180c:	1d3b      	adds	r3, r7, #4
 800180e:	4619      	mov	r1, r3
 8001810:	4805      	ldr	r0, [pc, #20]	@ (8001828 <MX_ADC1_Init+0x74>)
 8001812:	f000 fed1 	bl	80025b8 <HAL_ADC_ConfigChannel>
 8001816:	4603      	mov	r3, r0
 8001818:	2b00      	cmp	r3, #0
 800181a:	d001      	beq.n	8001820 <MX_ADC1_Init+0x6c>
  {
    Error_Handler();
 800181c:	f000 f9e2 	bl	8001be4 <Error_Handler>
  }
  /* USER CODE BEGIN ADC1_Init 2 */

  /* USER CODE END ADC1_Init 2 */

}
 8001820:	bf00      	nop
 8001822:	3710      	adds	r7, #16
 8001824:	46bd      	mov	sp, r7
 8001826:	bd80      	pop	{r7, pc}
 8001828:	20000398 	.word	0x20000398
 800182c:	40012400 	.word	0x40012400

08001830 <MX_I2C1_Init>:
  * @brief I2C1 Initialization Function
  * @param None
  * @retval None
  */
static void MX_I2C1_Init(void)
{
 8001830:	b580      	push	{r7, lr}
 8001832:	af00      	add	r7, sp, #0
  /* USER CODE END I2C1_Init 0 */

  /* USER CODE BEGIN I2C1_Init 1 */

  /* USER CODE END I2C1_Init 1 */
  hi2c1.Instance = I2C1;
 8001834:	4b12      	ldr	r3, [pc, #72]	@ (8001880 <MX_I2C1_Init+0x50>)
 8001836:	4a13      	ldr	r2, [pc, #76]	@ (8001884 <MX_I2C1_Init+0x54>)
 8001838:	601a      	str	r2, [r3, #0]
  hi2c1.Init.ClockSpeed = 100000;
 800183a:	4b11      	ldr	r3, [pc, #68]	@ (8001880 <MX_I2C1_Init+0x50>)
 800183c:	4a12      	ldr	r2, [pc, #72]	@ (8001888 <MX_I2C1_Init+0x58>)
 800183e:	605a      	str	r2, [r3, #4]
  hi2c1.Init.DutyCycle = I2C_DUTYCYCLE_2;
 8001840:	4b0f      	ldr	r3, [pc, #60]	@ (8001880 <MX_I2C1_Init+0x50>)
 8001842:	2200      	movs	r2, #0
 8001844:	609a      	str	r2, [r3, #8]
  hi2c1.Init.OwnAddress1 = 0;
 8001846:	4b0e      	ldr	r3, [pc, #56]	@ (8001880 <MX_I2C1_Init+0x50>)
 8001848:	2200      	movs	r2, #0
 800184a:	60da      	str	r2, [r3, #12]
  hi2c1.Init.AddressingMode = I2C_ADDRESSINGMODE_7BIT;
 800184c:	4b0c      	ldr	r3, [pc, #48]	@ (8001880 <MX_I2C1_Init+0x50>)
 800184e:	f44f 4280 	mov.w	r2, #16384	@ 0x4000
 8001852:	611a      	str	r2, [r3, #16]
  hi2c1.Init.DualAddressMode = I2C_DUALADDRESS_DISABLE;
 8001854:	4b0a      	ldr	r3, [pc, #40]	@ (8001880 <MX_I2C1_Init+0x50>)
 8001856:	2200      	movs	r2, #0
 8001858:	615a      	str	r2, [r3, #20]
  hi2c1.Init.OwnAddress2 = 0;
 800185a:	4b09      	ldr	r3, [pc, #36]	@ (8001880 <MX_I2C1_Init+0x50>)
 800185c:	2200      	movs	r2, #0
 800185e:	619a      	str	r2, [r3, #24]
  hi2c1.Init.GeneralCallMode = I2C_GENERALCALL_DISABLE;
 8001860:	4b07      	ldr	r3, [pc, #28]	@ (8001880 <MX_I2C1_Init+0x50>)
 8001862:	2200      	movs	r2, #0
 8001864:	61da      	str	r2, [r3, #28]
  hi2c1.Init.NoStretchMode = I2C_NOSTRETCH_DISABLE;
 8001866:	4b06      	ldr	r3, [pc, #24]	@ (8001880 <MX_I2C1_Init+0x50>)
 8001868:	2200      	movs	r2, #0
 800186a:	621a      	str	r2, [r3, #32]
  if (HAL_I2C_Init(&hi2c1) != HAL_OK)
 800186c:	4804      	ldr	r0, [pc, #16]	@ (8001880 <MX_I2C1_Init+0x50>)
 800186e:	f001 faab 	bl	8002dc8 <HAL_I2C_Init>
 8001872:	4603      	mov	r3, r0
 8001874:	2b00      	cmp	r3, #0
 8001876:	d001      	beq.n	800187c <MX_I2C1_Init+0x4c>
  {
    Error_Handler();
 8001878:	f000 f9b4 	bl	8001be4 <Error_Handler>
  }
  /* USER CODE BEGIN I2C1_Init 2 */

  /* USER CODE END I2C1_Init 2 */

}
 800187c:	bf00      	nop
 800187e:	bd80      	pop	{r7, pc}
 8001880:	200003c8 	.word	0x200003c8
 8001884:	40005400 	.word	0x40005400
 8001888:	000186a0 	.word	0x000186a0

0800188c <MX_TIM1_Init>:
  * @brief TIM1 Initialization Function
  * @param None
  * @retval None
  */
static void MX_TIM1_Init(void)
{
 800188c:	b580      	push	{r7, lr}
 800188e:	b096      	sub	sp, #88	@ 0x58
 8001890:	af00      	add	r7, sp, #0

  /* USER CODE BEGIN TIM1_Init 0 */

  /* USER CODE END TIM1_Init 0 */

  TIM_ClockConfigTypeDef sClockSourceConfig = {0};
 8001892:	f107 0348 	add.w	r3, r7, #72	@ 0x48
 8001896:	2200      	movs	r2, #0
 8001898:	601a      	str	r2, [r3, #0]
 800189a:	605a      	str	r2, [r3, #4]
 800189c:	609a      	str	r2, [r3, #8]
 800189e:	60da      	str	r2, [r3, #12]
  TIM_MasterConfigTypeDef sMasterConfig = {0};
 80018a0:	f107 0340 	add.w	r3, r7, #64	@ 0x40
 80018a4:	2200      	movs	r2, #0
 80018a6:	601a      	str	r2, [r3, #0]
 80018a8:	605a      	str	r2, [r3, #4]
  TIM_OC_InitTypeDef sConfigOC = {0};
 80018aa:	f107 0324 	add.w	r3, r7, #36	@ 0x24
 80018ae:	2200      	movs	r2, #0
 80018b0:	601a      	str	r2, [r3, #0]
 80018b2:	605a      	str	r2, [r3, #4]
 80018b4:	609a      	str	r2, [r3, #8]
 80018b6:	60da      	str	r2, [r3, #12]
 80018b8:	611a      	str	r2, [r3, #16]
 80018ba:	615a      	str	r2, [r3, #20]
 80018bc:	619a      	str	r2, [r3, #24]
  TIM_BreakDeadTimeConfigTypeDef sBreakDeadTimeConfig = {0};
 80018be:	1d3b      	adds	r3, r7, #4
 80018c0:	2220      	movs	r2, #32
 80018c2:	2100      	movs	r1, #0
 80018c4:	4618      	mov	r0, r3
 80018c6:	f005 f99f 	bl	8006c08 <memset>

  /* USER CODE BEGIN TIM1_Init 1 */

  /* USER CODE END TIM1_Init 1 */
  htim1.Instance = TIM1;
 80018ca:	4b44      	ldr	r3, [pc, #272]	@ (80019dc <MX_TIM1_Init+0x150>)
 80018cc:	4a44      	ldr	r2, [pc, #272]	@ (80019e0 <MX_TIM1_Init+0x154>)
 80018ce:	601a      	str	r2, [r3, #0]
  htim1.Init.Prescaler = 71;
 80018d0:	4b42      	ldr	r3, [pc, #264]	@ (80019dc <MX_TIM1_Init+0x150>)
 80018d2:	2247      	movs	r2, #71	@ 0x47
 80018d4:	605a      	str	r2, [r3, #4]
  htim1.Init.CounterMode = TIM_COUNTERMODE_UP;
 80018d6:	4b41      	ldr	r3, [pc, #260]	@ (80019dc <MX_TIM1_Init+0x150>)
 80018d8:	2200      	movs	r2, #0
 80018da:	609a      	str	r2, [r3, #8]
  htim1.Init.Period = 99;
 80018dc:	4b3f      	ldr	r3, [pc, #252]	@ (80019dc <MX_TIM1_Init+0x150>)
 80018de:	2263      	movs	r2, #99	@ 0x63
 80018e0:	60da      	str	r2, [r3, #12]
  htim1.Init.ClockDivision = TIM_CLOCKDIVISION_DIV1;
 80018e2:	4b3e      	ldr	r3, [pc, #248]	@ (80019dc <MX_TIM1_Init+0x150>)
 80018e4:	2200      	movs	r2, #0
 80018e6:	611a      	str	r2, [r3, #16]
  htim1.Init.RepetitionCounter = 0;
 80018e8:	4b3c      	ldr	r3, [pc, #240]	@ (80019dc <MX_TIM1_Init+0x150>)
 80018ea:	2200      	movs	r2, #0
 80018ec:	615a      	str	r2, [r3, #20]
  htim1.Init.AutoReloadPreload = TIM_AUTORELOAD_PRELOAD_DISABLE;
 80018ee:	4b3b      	ldr	r3, [pc, #236]	@ (80019dc <MX_TIM1_Init+0x150>)
 80018f0:	2200      	movs	r2, #0
 80018f2:	619a      	str	r2, [r3, #24]
  if (HAL_TIM_Base_Init(&htim1) != HAL_OK)
 80018f4:	4839      	ldr	r0, [pc, #228]	@ (80019dc <MX_TIM1_Init+0x150>)
 80018f6:	f002 ffcf 	bl	8004898 <HAL_TIM_Base_Init>
 80018fa:	4603      	mov	r3, r0
 80018fc:	2b00      	cmp	r3, #0
 80018fe:	d001      	beq.n	8001904 <MX_TIM1_Init+0x78>
  {
    Error_Handler();
 8001900:	f000 f970 	bl	8001be4 <Error_Handler>
  }
  sClockSourceConfig.ClockSource = TIM_CLOCKSOURCE_INTERNAL;
 8001904:	f44f 5380 	mov.w	r3, #4096	@ 0x1000
 8001908:	64bb      	str	r3, [r7, #72]	@ 0x48
  if (HAL_TIM_ConfigClockSource(&htim1, &sClockSourceConfig) != HAL_OK)
 800190a:	f107 0348 	add.w	r3, r7, #72	@ 0x48
 800190e:	4619      	mov	r1, r3
 8001910:	4832      	ldr	r0, [pc, #200]	@ (80019dc <MX_TIM1_Init+0x150>)
 8001912:	f003 fb03 	bl	8004f1c <HAL_TIM_ConfigClockSource>
 8001916:	4603      	mov	r3, r0
 8001918:	2b00      	cmp	r3, #0
 800191a:	d001      	beq.n	8001920 <MX_TIM1_Init+0x94>
  {
    Error_Handler();
 800191c:	f000 f962 	bl	8001be4 <Error_Handler>
  }
  if (HAL_TIM_PWM_Init(&htim1) != HAL_OK)
 8001920:	482e      	ldr	r0, [pc, #184]	@ (80019dc <MX_TIM1_Init+0x150>)
 8001922:	f003 f855 	bl	80049d0 <HAL_TIM_PWM_Init>
 8001926:	4603      	mov	r3, r0
 8001928:	2b00      	cmp	r3, #0
 800192a:	d001      	beq.n	8001930 <MX_TIM1_Init+0xa4>
  {
    Error_Handler();
 800192c:	f000 f95a 	bl	8001be4 <Error_Handler>
  }
  sMasterConfig.MasterOutputTrigger = TIM_TRGO_RESET;
 8001930:	2300      	movs	r3, #0
 8001932:	643b      	str	r3, [r7, #64]	@ 0x40
  sMasterConfig.MasterSlaveMode = TIM_MASTERSLAVEMODE_DISABLE;
 8001934:	2300      	movs	r3, #0
 8001936:	647b      	str	r3, [r7, #68]	@ 0x44
  if (HAL_TIMEx_MasterConfigSynchronization(&htim1, &sMasterConfig) != HAL_OK)
 8001938:	f107 0340 	add.w	r3, r7, #64	@ 0x40
 800193c:	4619      	mov	r1, r3
 800193e:	4827      	ldr	r0, [pc, #156]	@ (80019dc <MX_TIM1_Init+0x150>)
 8001940:	f003 fe7e 	bl	8005640 <HAL_TIMEx_MasterConfigSynchronization>
 8001944:	4603      	mov	r3, r0
 8001946:	2b00      	cmp	r3, #0
 8001948:	d001      	beq.n	800194e <MX_TIM1_Init+0xc2>
  {
    Error_Handler();
 800194a:	f000 f94b 	bl	8001be4 <Error_Handler>
  }
  sConfigOC.OCMode = TIM_OCMODE_PWM1;
 800194e:	2360      	movs	r3, #96	@ 0x60
 8001950:	627b      	str	r3, [r7, #36]	@ 0x24
  sConfigOC.Pulse = 0;
 8001952:	2300      	movs	r3, #0
 8001954:	62bb      	str	r3, [r7, #40]	@ 0x28
  sConfigOC.OCPolarity = TIM_OCPOLARITY_HIGH;
 8001956:	2300      	movs	r3, #0
 8001958:	62fb      	str	r3, [r7, #44]	@ 0x2c
  sConfigOC.OCNPolarity = TIM_OCNPOLARITY_HIGH;
 800195a:	2300      	movs	r3, #0
 800195c:	633b      	str	r3, [r7, #48]	@ 0x30
  sConfigOC.OCFastMode = TIM_OCFAST_DISABLE;
 800195e:	2300      	movs	r3, #0
 8001960:	637b      	str	r3, [r7, #52]	@ 0x34
  sConfigOC.OCIdleState = TIM_OCIDLESTATE_RESET;
 8001962:	2300      	movs	r3, #0
 8001964:	63bb      	str	r3, [r7, #56]	@ 0x38
  sConfigOC.OCNIdleState = TIM_OCNIDLESTATE_RESET;
 8001966:	2300      	movs	r3, #0
 8001968:	63fb      	str	r3, [r7, #60]	@ 0x3c
  if (HAL_TIM_PWM_ConfigChannel(&htim1, &sConfigOC, TIM_CHANNEL_1) != HAL_OK)
 800196a:	f107 0324 	add.w	r3, r7, #36	@ 0x24
 800196e:	2200      	movs	r2, #0
 8001970:	4619      	mov	r1, r3
 8001972:	481a      	ldr	r0, [pc, #104]	@ (80019dc <MX_TIM1_Init+0x150>)
 8001974:	f003 fa10 	bl	8004d98 <HAL_TIM_PWM_ConfigChannel>
 8001978:	4603      	mov	r3, r0
 800197a:	2b00      	cmp	r3, #0
 800197c:	d001      	beq.n	8001982 <MX_TIM1_Init+0xf6>
  {
    Error_Handler();
 800197e:	f000 f931 	bl	8001be4 <Error_Handler>
  }
  if (HAL_TIM_PWM_ConfigChannel(&htim1, &sConfigOC, TIM_CHANNEL_2) != HAL_OK)
 8001982:	f107 0324 	add.w	r3, r7, #36	@ 0x24
 8001986:	2204      	movs	r2, #4
 8001988:	4619      	mov	r1, r3
 800198a:	4814      	ldr	r0, [pc, #80]	@ (80019dc <MX_TIM1_Init+0x150>)
 800198c:	f003 fa04 	bl	8004d98 <HAL_TIM_PWM_ConfigChannel>
 8001990:	4603      	mov	r3, r0
 8001992:	2b00      	cmp	r3, #0
 8001994:	d001      	beq.n	800199a <MX_TIM1_Init+0x10e>
  {
    Error_Handler();
 8001996:	f000 f925 	bl	8001be4 <Error_Handler>
  }
  sBreakDeadTimeConfig.OffStateRunMode = TIM_OSSR_DISABLE;
 800199a:	2300      	movs	r3, #0
 800199c:	607b      	str	r3, [r7, #4]
  sBreakDeadTimeConfig.OffStateIDLEMode = TIM_OSSI_DISABLE;
 800199e:	2300      	movs	r3, #0
 80019a0:	60bb      	str	r3, [r7, #8]
  sBreakDeadTimeConfig.LockLevel = TIM_LOCKLEVEL_OFF;
 80019a2:	2300      	movs	r3, #0
 80019a4:	60fb      	str	r3, [r7, #12]
  sBreakDeadTimeConfig.DeadTime = 0;
 80019a6:	2300      	movs	r3, #0
 80019a8:	613b      	str	r3, [r7, #16]
  sBreakDeadTimeConfig.BreakState = TIM_BREAK_DISABLE;
 80019aa:	2300      	movs	r3, #0
 80019ac:	617b      	str	r3, [r7, #20]
  sBreakDeadTimeConfig.BreakPolarity = TIM_BREAKPOLARITY_HIGH;
 80019ae:	f44f 5300 	mov.w	r3, #8192	@ 0x2000
 80019b2:	61bb      	str	r3, [r7, #24]
  sBreakDeadTimeConfig.AutomaticOutput = TIM_AUTOMATICOUTPUT_DISABLE;
 80019b4:	2300      	movs	r3, #0
 80019b6:	623b      	str	r3, [r7, #32]
  if (HAL_TIMEx_ConfigBreakDeadTime(&htim1, &sBreakDeadTimeConfig) != HAL_OK)
 80019b8:	1d3b      	adds	r3, r7, #4
 80019ba:	4619      	mov	r1, r3
 80019bc:	4807      	ldr	r0, [pc, #28]	@ (80019dc <MX_TIM1_Init+0x150>)
 80019be:	f003 fe97 	bl	80056f0 <HAL_TIMEx_ConfigBreakDeadTime>
 80019c2:	4603      	mov	r3, r0
 80019c4:	2b00      	cmp	r3, #0
 80019c6:	d001      	beq.n	80019cc <MX_TIM1_Init+0x140>
  {
    Error_Handler();
 80019c8:	f000 f90c 	bl	8001be4 <Error_Handler>
  }
  /* USER CODE BEGIN TIM1_Init 2 */

  /* USER CODE END TIM1_Init 2 */
  HAL_TIM_MspPostInit(&htim1);
 80019cc:	4803      	ldr	r0, [pc, #12]	@ (80019dc <MX_TIM1_Init+0x150>)
 80019ce:	f000 f9f3 	bl	8001db8 <HAL_TIM_MspPostInit>

}
 80019d2:	bf00      	nop
 80019d4:	3758      	adds	r7, #88	@ 0x58
 80019d6:	46bd      	mov	sp, r7
 80019d8:	bd80      	pop	{r7, pc}
 80019da:	bf00      	nop
 80019dc:	2000041c 	.word	0x2000041c
 80019e0:	40012c00 	.word	0x40012c00

080019e4 <MX_TIM2_Init>:
  * @brief TIM2 Initialization Function
  * @param None
  * @retval None
  */
static void MX_TIM2_Init(void)
{
 80019e4:	b580      	push	{r7, lr}
 80019e6:	b08e      	sub	sp, #56	@ 0x38
 80019e8:	af00      	add	r7, sp, #0

  /* USER CODE BEGIN TIM2_Init 0 */

  /* USER CODE END TIM2_Init 0 */

  TIM_ClockConfigTypeDef sClockSourceConfig = {0};
 80019ea:	f107 0328 	add.w	r3, r7, #40	@ 0x28
 80019ee:	2200      	movs	r2, #0
 80019f0:	601a      	str	r2, [r3, #0]
 80019f2:	605a      	str	r2, [r3, #4]
 80019f4:	609a      	str	r2, [r3, #8]
 80019f6:	60da      	str	r2, [r3, #12]
  TIM_MasterConfigTypeDef sMasterConfig = {0};
 80019f8:	f107 0320 	add.w	r3, r7, #32
 80019fc:	2200      	movs	r2, #0
 80019fe:	601a      	str	r2, [r3, #0]
 8001a00:	605a      	str	r2, [r3, #4]
  TIM_OC_InitTypeDef sConfigOC = {0};
 8001a02:	1d3b      	adds	r3, r7, #4
 8001a04:	2200      	movs	r2, #0
 8001a06:	601a      	str	r2, [r3, #0]
 8001a08:	605a      	str	r2, [r3, #4]
 8001a0a:	609a      	str	r2, [r3, #8]
 8001a0c:	60da      	str	r2, [r3, #12]
 8001a0e:	611a      	str	r2, [r3, #16]
 8001a10:	615a      	str	r2, [r3, #20]
 8001a12:	619a      	str	r2, [r3, #24]

  /* USER CODE BEGIN TIM2_Init 1 */

  /* USER CODE END TIM2_Init 1 */
  htim2.Instance = TIM2;
 8001a14:	4b2c      	ldr	r3, [pc, #176]	@ (8001ac8 <MX_TIM2_Init+0xe4>)
 8001a16:	f04f 4280 	mov.w	r2, #1073741824	@ 0x40000000
 8001a1a:	601a      	str	r2, [r3, #0]
  htim2.Init.Prescaler = 71;
 8001a1c:	4b2a      	ldr	r3, [pc, #168]	@ (8001ac8 <MX_TIM2_Init+0xe4>)
 8001a1e:	2247      	movs	r2, #71	@ 0x47
 8001a20:	605a      	str	r2, [r3, #4]
  htim2.Init.CounterMode = TIM_COUNTERMODE_UP;
 8001a22:	4b29      	ldr	r3, [pc, #164]	@ (8001ac8 <MX_TIM2_Init+0xe4>)
 8001a24:	2200      	movs	r2, #0
 8001a26:	609a      	str	r2, [r3, #8]
  htim2.Init.Period = 99;
 8001a28:	4b27      	ldr	r3, [pc, #156]	@ (8001ac8 <MX_TIM2_Init+0xe4>)
 8001a2a:	2263      	movs	r2, #99	@ 0x63
 8001a2c:	60da      	str	r2, [r3, #12]
  htim2.Init.ClockDivision = TIM_CLOCKDIVISION_DIV1;
 8001a2e:	4b26      	ldr	r3, [pc, #152]	@ (8001ac8 <MX_TIM2_Init+0xe4>)
 8001a30:	2200      	movs	r2, #0
 8001a32:	611a      	str	r2, [r3, #16]
  htim2.Init.AutoReloadPreload = TIM_AUTORELOAD_PRELOAD_DISABLE;
 8001a34:	4b24      	ldr	r3, [pc, #144]	@ (8001ac8 <MX_TIM2_Init+0xe4>)
 8001a36:	2200      	movs	r2, #0
 8001a38:	619a      	str	r2, [r3, #24]
  if (HAL_TIM_Base_Init(&htim2) != HAL_OK)
 8001a3a:	4823      	ldr	r0, [pc, #140]	@ (8001ac8 <MX_TIM2_Init+0xe4>)
 8001a3c:	f002 ff2c 	bl	8004898 <HAL_TIM_Base_Init>
 8001a40:	4603      	mov	r3, r0
 8001a42:	2b00      	cmp	r3, #0
 8001a44:	d001      	beq.n	8001a4a <MX_TIM2_Init+0x66>
  {
    Error_Handler();
 8001a46:	f000 f8cd 	bl	8001be4 <Error_Handler>
  }
  sClockSourceConfig.ClockSource = TIM_CLOCKSOURCE_INTERNAL;
 8001a4a:	f44f 5380 	mov.w	r3, #4096	@ 0x1000
 8001a4e:	62bb      	str	r3, [r7, #40]	@ 0x28
  if (HAL_TIM_ConfigClockSource(&htim2, &sClockSourceConfig) != HAL_OK)
 8001a50:	f107 0328 	add.w	r3, r7, #40	@ 0x28
 8001a54:	4619      	mov	r1, r3
 8001a56:	481c      	ldr	r0, [pc, #112]	@ (8001ac8 <MX_TIM2_Init+0xe4>)
 8001a58:	f003 fa60 	bl	8004f1c <HAL_TIM_ConfigClockSource>
 8001a5c:	4603      	mov	r3, r0
 8001a5e:	2b00      	cmp	r3, #0
 8001a60:	d001      	beq.n	8001a66 <MX_TIM2_Init+0x82>
  {
    Error_Handler();
 8001a62:	f000 f8bf 	bl	8001be4 <Error_Handler>
  }
  if (HAL_TIM_PWM_Init(&htim2) != HAL_OK)
 8001a66:	4818      	ldr	r0, [pc, #96]	@ (8001ac8 <MX_TIM2_Init+0xe4>)
 8001a68:	f002 ffb2 	bl	80049d0 <HAL_TIM_PWM_Init>
 8001a6c:	4603      	mov	r3, r0
 8001a6e:	2b00      	cmp	r3, #0
 8001a70:	d001      	beq.n	8001a76 <MX_TIM2_Init+0x92>
  {
    Error_Handler();
 8001a72:	f000 f8b7 	bl	8001be4 <Error_Handler>
  }
  sMasterConfig.MasterOutputTrigger = TIM_TRGO_RESET;
 8001a76:	2300      	movs	r3, #0
 8001a78:	623b      	str	r3, [r7, #32]
  sMasterConfig.MasterSlaveMode = TIM_MASTERSLAVEMODE_DISABLE;
 8001a7a:	2300      	movs	r3, #0
 8001a7c:	627b      	str	r3, [r7, #36]	@ 0x24
  if (HAL_TIMEx_MasterConfigSynchronization(&htim2, &sMasterConfig) != HAL_OK)
 8001a7e:	f107 0320 	add.w	r3, r7, #32
 8001a82:	4619      	mov	r1, r3
 8001a84:	4810      	ldr	r0, [pc, #64]	@ (8001ac8 <MX_TIM2_Init+0xe4>)
 8001a86:	f003 fddb 	bl	8005640 <HAL_TIMEx_MasterConfigSynchronization>
 8001a8a:	4603      	mov	r3, r0
 8001a8c:	2b00      	cmp	r3, #0
 8001a8e:	d001      	beq.n	8001a94 <MX_TIM2_Init+0xb0>
  {
    Error_Handler();
 8001a90:	f000 f8a8 	bl	8001be4 <Error_Handler>
  }
  sConfigOC.OCMode = TIM_OCMODE_PWM1;
 8001a94:	2360      	movs	r3, #96	@ 0x60
 8001a96:	607b      	str	r3, [r7, #4]
  sConfigOC.Pulse = 0;
 8001a98:	2300      	movs	r3, #0
 8001a9a:	60bb      	str	r3, [r7, #8]
  sConfigOC.OCPolarity = TIM_OCPOLARITY_HIGH;
 8001a9c:	2300      	movs	r3, #0
 8001a9e:	60fb      	str	r3, [r7, #12]
  sConfigOC.OCFastMode = TIM_OCFAST_DISABLE;
 8001aa0:	2300      	movs	r3, #0
 8001aa2:	617b      	str	r3, [r7, #20]
  if (HAL_TIM_PWM_ConfigChannel(&htim2, &sConfigOC, TIM_CHANNEL_2) != HAL_OK)
 8001aa4:	1d3b      	adds	r3, r7, #4
 8001aa6:	2204      	movs	r2, #4
 8001aa8:	4619      	mov	r1, r3
 8001aaa:	4807      	ldr	r0, [pc, #28]	@ (8001ac8 <MX_TIM2_Init+0xe4>)
 8001aac:	f003 f974 	bl	8004d98 <HAL_TIM_PWM_ConfigChannel>
 8001ab0:	4603      	mov	r3, r0
 8001ab2:	2b00      	cmp	r3, #0
 8001ab4:	d001      	beq.n	8001aba <MX_TIM2_Init+0xd6>
  {
    Error_Handler();
 8001ab6:	f000 f895 	bl	8001be4 <Error_Handler>
  }
  /* USER CODE BEGIN TIM2_Init 2 */

  /* USER CODE END TIM2_Init 2 */
  HAL_TIM_MspPostInit(&htim2);
 8001aba:	4803      	ldr	r0, [pc, #12]	@ (8001ac8 <MX_TIM2_Init+0xe4>)
 8001abc:	f000 f97c 	bl	8001db8 <HAL_TIM_MspPostInit>

}
 8001ac0:	bf00      	nop
 8001ac2:	3738      	adds	r7, #56	@ 0x38
 8001ac4:	46bd      	mov	sp, r7
 8001ac6:	bd80      	pop	{r7, pc}
 8001ac8:	20000464 	.word	0x20000464

08001acc <MX_GPIO_Init>:
  * @brief GPIO Initialization Function
  * @param None
  * @retval None
  */
static void MX_GPIO_Init(void)
{
 8001acc:	b580      	push	{r7, lr}
 8001ace:	b088      	sub	sp, #32
 8001ad0:	af00      	add	r7, sp, #0
  GPIO_InitTypeDef GPIO_InitStruct = {0};
 8001ad2:	f107 0310 	add.w	r3, r7, #16
 8001ad6:	2200      	movs	r2, #0
 8001ad8:	601a      	str	r2, [r3, #0]
 8001ada:	605a      	str	r2, [r3, #4]
 8001adc:	609a      	str	r2, [r3, #8]
 8001ade:	60da      	str	r2, [r3, #12]
/* USER CODE BEGIN MX_GPIO_Init_1 */
/* USER CODE END MX_GPIO_Init_1 */

  /* GPIO Ports Clock Enable */
  __HAL_RCC_GPIOC_CLK_ENABLE();
 8001ae0:	4b24      	ldr	r3, [pc, #144]	@ (8001b74 <MX_GPIO_Init+0xa8>)
 8001ae2:	699b      	ldr	r3, [r3, #24]
 8001ae4:	4a23      	ldr	r2, [pc, #140]	@ (8001b74 <MX_GPIO_Init+0xa8>)
 8001ae6:	f043 0310 	orr.w	r3, r3, #16
 8001aea:	6193      	str	r3, [r2, #24]
 8001aec:	4b21      	ldr	r3, [pc, #132]	@ (8001b74 <MX_GPIO_Init+0xa8>)
 8001aee:	699b      	ldr	r3, [r3, #24]
 8001af0:	f003 0310 	and.w	r3, r3, #16
 8001af4:	60fb      	str	r3, [r7, #12]
 8001af6:	68fb      	ldr	r3, [r7, #12]
  __HAL_RCC_GPIOD_CLK_ENABLE();
 8001af8:	4b1e      	ldr	r3, [pc, #120]	@ (8001b74 <MX_GPIO_Init+0xa8>)
 8001afa:	699b      	ldr	r3, [r3, #24]
 8001afc:	4a1d      	ldr	r2, [pc, #116]	@ (8001b74 <MX_GPIO_Init+0xa8>)
 8001afe:	f043 0320 	orr.w	r3, r3, #32
 8001b02:	6193      	str	r3, [r2, #24]
 8001b04:	4b1b      	ldr	r3, [pc, #108]	@ (8001b74 <MX_GPIO_Init+0xa8>)
 8001b06:	699b      	ldr	r3, [r3, #24]
 8001b08:	f003 0320 	and.w	r3, r3, #32
 8001b0c:	60bb      	str	r3, [r7, #8]
 8001b0e:	68bb      	ldr	r3, [r7, #8]
  __HAL_RCC_GPIOA_CLK_ENABLE();
 8001b10:	4b18      	ldr	r3, [pc, #96]	@ (8001b74 <MX_GPIO_Init+0xa8>)
 8001b12:	699b      	ldr	r3, [r3, #24]
 8001b14:	4a17      	ldr	r2, [pc, #92]	@ (8001b74 <MX_GPIO_Init+0xa8>)
 8001b16:	f043 0304 	orr.w	r3, r3, #4
 8001b1a:	6193      	str	r3, [r2, #24]
 8001b1c:	4b15      	ldr	r3, [pc, #84]	@ (8001b74 <MX_GPIO_Init+0xa8>)
 8001b1e:	699b      	ldr	r3, [r3, #24]
 8001b20:	f003 0304 	and.w	r3, r3, #4
 8001b24:	607b      	str	r3, [r7, #4]
 8001b26:	687b      	ldr	r3, [r7, #4]
  __HAL_RCC_GPIOB_CLK_ENABLE();
 8001b28:	4b12      	ldr	r3, [pc, #72]	@ (8001b74 <MX_GPIO_Init+0xa8>)
 8001b2a:	699b      	ldr	r3, [r3, #24]
 8001b2c:	4a11      	ldr	r2, [pc, #68]	@ (8001b74 <MX_GPIO_Init+0xa8>)
 8001b2e:	f043 0308 	orr.w	r3, r3, #8
 8001b32:	6193      	str	r3, [r2, #24]
 8001b34:	4b0f      	ldr	r3, [pc, #60]	@ (8001b74 <MX_GPIO_Init+0xa8>)
 8001b36:	699b      	ldr	r3, [r3, #24]
 8001b38:	f003 0308 	and.w	r3, r3, #8
 8001b3c:	603b      	str	r3, [r7, #0]
 8001b3e:	683b      	ldr	r3, [r7, #0]

  /*Configure GPIO pin Output Level */
  HAL_GPIO_WritePin(GPIOA, GPIO_PIN_10, GPIO_PIN_RESET);
 8001b40:	2200      	movs	r2, #0
 8001b42:	f44f 6180 	mov.w	r1, #1024	@ 0x400
 8001b46:	480c      	ldr	r0, [pc, #48]	@ (8001b78 <MX_GPIO_Init+0xac>)
 8001b48:	f001 f926 	bl	8002d98 <HAL_GPIO_WritePin>

  /*Configure GPIO pin : PA10 */
  GPIO_InitStruct.Pin = GPIO_PIN_10;
 8001b4c:	f44f 6380 	mov.w	r3, #1024	@ 0x400
 8001b50:	613b      	str	r3, [r7, #16]
  GPIO_InitStruct.Mode = GPIO_MODE_OUTPUT_PP;
 8001b52:	2301      	movs	r3, #1
 8001b54:	617b      	str	r3, [r7, #20]
  GPIO_InitStruct.Pull = GPIO_NOPULL;
 8001b56:	2300      	movs	r3, #0
 8001b58:	61bb      	str	r3, [r7, #24]
  GPIO_InitStruct.Speed = GPIO_SPEED_FREQ_LOW;
 8001b5a:	2302      	movs	r3, #2
 8001b5c:	61fb      	str	r3, [r7, #28]
  HAL_GPIO_Init(GPIOA, &GPIO_InitStruct);
 8001b5e:	f107 0310 	add.w	r3, r7, #16
 8001b62:	4619      	mov	r1, r3
 8001b64:	4804      	ldr	r0, [pc, #16]	@ (8001b78 <MX_GPIO_Init+0xac>)
 8001b66:	f000 ff9b 	bl	8002aa0 <HAL_GPIO_Init>

/* USER CODE BEGIN MX_GPIO_Init_2 */
/* USER CODE END MX_GPIO_Init_2 */
}
 8001b6a:	bf00      	nop
 8001b6c:	3720      	adds	r7, #32
 8001b6e:	46bd      	mov	sp, r7
 8001b70:	bd80      	pop	{r7, pc}
 8001b72:	bf00      	nop
 8001b74:	40021000 	.word	0x40021000
 8001b78:	40010800 	.word	0x40010800

08001b7c <StartGreenLed>:
  * @param  argument: Not used
  * @retval None
  */
/* USER CODE END Header_StartGreenLed */
void StartGreenLed(void const * argument)
{
 8001b7c:	b480      	push	{r7}
 8001b7e:	b083      	sub	sp, #12
 8001b80:	af00      	add	r7, sp, #0
 8001b82:	6078      	str	r0, [r7, #4]
  /* USER CODE BEGIN 5 */
  /* Infinite loop */
  for(;;)
 8001b84:	bf00      	nop
 8001b86:	e7fd      	b.n	8001b84 <StartGreenLed+0x8>

08001b88 <HeaterFunction>:
* @param argument: Not used
* @retval None
*/
/* USER CODE END Header_HeaterFunction */
void HeaterFunction(void const * argument)
{
 8001b88:	b580      	push	{r7, lr}
 8001b8a:	b082      	sub	sp, #8
 8001b8c:	af00      	add	r7, sp, #0
 8001b8e:	6078      	str	r0, [r7, #4]
  /* USER CODE BEGIN HeaterFunction */
  /* Infinite loop */
  for(;;)
  {
	  heaterOn(&hi2c1, &htim1);
 8001b90:	4902      	ldr	r1, [pc, #8]	@ (8001b9c <HeaterFunction+0x14>)
 8001b92:	4803      	ldr	r0, [pc, #12]	@ (8001ba0 <HeaterFunction+0x18>)
 8001b94:	f7ff fc7c 	bl	8001490 <heaterOn>
 8001b98:	e7fa      	b.n	8001b90 <HeaterFunction+0x8>
 8001b9a:	bf00      	nop
 8001b9c:	2000041c 	.word	0x2000041c
 8001ba0:	200003c8 	.word	0x200003c8

08001ba4 <CoolerFunction>:
* @param argument: Not used
* @retval None
*/
/* USER CODE END Header_CoolerFunction */
void CoolerFunction(void const * argument)
{
 8001ba4:	b580      	push	{r7, lr}
 8001ba6:	b082      	sub	sp, #8
 8001ba8:	af00      	add	r7, sp, #0
 8001baa:	6078      	str	r0, [r7, #4]
  /* USER CODE BEGIN CoolerFunction */
  /* Infinite loop */
  for(;;)
  {
	  coolerOn(&htim2, &hadc1);
 8001bac:	4902      	ldr	r1, [pc, #8]	@ (8001bb8 <CoolerFunction+0x14>)
 8001bae:	4803      	ldr	r0, [pc, #12]	@ (8001bbc <CoolerFunction+0x18>)
 8001bb0:	f7ff fa9e 	bl	80010f0 <coolerOn>
 8001bb4:	e7fa      	b.n	8001bac <CoolerFunction+0x8>
 8001bb6:	bf00      	nop
 8001bb8:	20000398 	.word	0x20000398
 8001bbc:	20000464 	.word	0x20000464

08001bc0 <HAL_TIM_PeriodElapsedCallback>:
  * a global variable "uwTick" used as application time base.
  * @param  htim : TIM handle
  * @retval None
  */
void HAL_TIM_PeriodElapsedCallback(TIM_HandleTypeDef *htim)
{
 8001bc0:	b580      	push	{r7, lr}
 8001bc2:	b082      	sub	sp, #8
 8001bc4:	af00      	add	r7, sp, #0
 8001bc6:	6078      	str	r0, [r7, #4]
  /* USER CODE BEGIN Callback 0 */

  /* USER CODE END Callback 0 */
  if (htim->Instance == TIM3) {
 8001bc8:	687b      	ldr	r3, [r7, #4]
 8001bca:	681b      	ldr	r3, [r3, #0]
 8001bcc:	4a04      	ldr	r2, [pc, #16]	@ (8001be0 <HAL_TIM_PeriodElapsedCallback+0x20>)
 8001bce:	4293      	cmp	r3, r2
 8001bd0:	d101      	bne.n	8001bd6 <HAL_TIM_PeriodElapsedCallback+0x16>
    HAL_IncTick();
 8001bd2:	f000 fa3d 	bl	8002050 <HAL_IncTick>
  }
  /* USER CODE BEGIN Callback 1 */

  /* USER CODE END Callback 1 */
}
 8001bd6:	bf00      	nop
 8001bd8:	3708      	adds	r7, #8
 8001bda:	46bd      	mov	sp, r7
 8001bdc:	bd80      	pop	{r7, pc}
 8001bde:	bf00      	nop
 8001be0:	40000400 	.word	0x40000400

08001be4 <Error_Handler>:
/**
  * @brief  This function is executed in case of error occurrence.
  * @retval None
  */
void Error_Handler(void)
{
 8001be4:	b480      	push	{r7}
 8001be6:	af00      	add	r7, sp, #0
  \details Disables IRQ interrupts by setting the I-bit in the CPSR.
           Can only be executed in Privileged modes.
 */
__STATIC_FORCEINLINE void __disable_irq(void)
{
  __ASM volatile ("cpsid i" : : : "memory");
 8001be8:	b672      	cpsid	i
}
 8001bea:	bf00      	nop
  /* USER CODE BEGIN Error_Handler_Debug */
  /* User can add his own implementation to report the HAL error return state */
  __disable_irq();
  while (1)
 8001bec:	bf00      	nop
 8001bee:	e7fd      	b.n	8001bec <Error_Handler+0x8>

08001bf0 <HAL_MspInit>:
void HAL_TIM_MspPostInit(TIM_HandleTypeDef *htim);
                                        /**
  * Initializes the Global MSP.
  */
void HAL_MspInit(void)
{
 8001bf0:	b580      	push	{r7, lr}
 8001bf2:	b084      	sub	sp, #16
 8001bf4:	af00      	add	r7, sp, #0

  /* USER CODE BEGIN MspInit 0 */

  /* USER CODE END MspInit 0 */

  __HAL_RCC_AFIO_CLK_ENABLE();
 8001bf6:	4b18      	ldr	r3, [pc, #96]	@ (8001c58 <HAL_MspInit+0x68>)
 8001bf8:	699b      	ldr	r3, [r3, #24]
 8001bfa:	4a17      	ldr	r2, [pc, #92]	@ (8001c58 <HAL_MspInit+0x68>)
 8001bfc:	f043 0301 	orr.w	r3, r3, #1
 8001c00:	6193      	str	r3, [r2, #24]
 8001c02:	4b15      	ldr	r3, [pc, #84]	@ (8001c58 <HAL_MspInit+0x68>)
 8001c04:	699b      	ldr	r3, [r3, #24]
 8001c06:	f003 0301 	and.w	r3, r3, #1
 8001c0a:	60bb      	str	r3, [r7, #8]
 8001c0c:	68bb      	ldr	r3, [r7, #8]
  __HAL_RCC_PWR_CLK_ENABLE();
 8001c0e:	4b12      	ldr	r3, [pc, #72]	@ (8001c58 <HAL_MspInit+0x68>)
 8001c10:	69db      	ldr	r3, [r3, #28]
 8001c12:	4a11      	ldr	r2, [pc, #68]	@ (8001c58 <HAL_MspInit+0x68>)
 8001c14:	f043 5380 	orr.w	r3, r3, #268435456	@ 0x10000000
 8001c18:	61d3      	str	r3, [r2, #28]
 8001c1a:	4b0f      	ldr	r3, [pc, #60]	@ (8001c58 <HAL_MspInit+0x68>)
 8001c1c:	69db      	ldr	r3, [r3, #28]
 8001c1e:	f003 5380 	and.w	r3, r3, #268435456	@ 0x10000000
 8001c22:	607b      	str	r3, [r7, #4]
 8001c24:	687b      	ldr	r3, [r7, #4]

  /* System interrupt init*/
  /* PendSV_IRQn interrupt configuration */
  HAL_NVIC_SetPriority(PendSV_IRQn, 15, 0);
 8001c26:	2200      	movs	r2, #0
 8001c28:	210f      	movs	r1, #15
 8001c2a:	f06f 0001 	mvn.w	r0, #1
 8001c2e:	f000 ff0c 	bl	8002a4a <HAL_NVIC_SetPriority>

  /** NOJTAG: JTAG-DP Disabled and SW-DP Enabled
  */
  __HAL_AFIO_REMAP_SWJ_NOJTAG();
 8001c32:	4b0a      	ldr	r3, [pc, #40]	@ (8001c5c <HAL_MspInit+0x6c>)
 8001c34:	685b      	ldr	r3, [r3, #4]
 8001c36:	60fb      	str	r3, [r7, #12]
 8001c38:	68fb      	ldr	r3, [r7, #12]
 8001c3a:	f023 63e0 	bic.w	r3, r3, #117440512	@ 0x7000000
 8001c3e:	60fb      	str	r3, [r7, #12]
 8001c40:	68fb      	ldr	r3, [r7, #12]
 8001c42:	f043 7300 	orr.w	r3, r3, #33554432	@ 0x2000000
 8001c46:	60fb      	str	r3, [r7, #12]
 8001c48:	4a04      	ldr	r2, [pc, #16]	@ (8001c5c <HAL_MspInit+0x6c>)
 8001c4a:	68fb      	ldr	r3, [r7, #12]
 8001c4c:	6053      	str	r3, [r2, #4]

  /* USER CODE BEGIN MspInit 1 */

  /* USER CODE END MspInit 1 */
}
 8001c4e:	bf00      	nop
 8001c50:	3710      	adds	r7, #16
 8001c52:	46bd      	mov	sp, r7
 8001c54:	bd80      	pop	{r7, pc}
 8001c56:	bf00      	nop
 8001c58:	40021000 	.word	0x40021000
 8001c5c:	40010000 	.word	0x40010000

08001c60 <HAL_ADC_MspInit>:
* This function configures the hardware resources used in this example
* @param hadc: ADC handle pointer
* @retval None
*/
void HAL_ADC_MspInit(ADC_HandleTypeDef* hadc)
{
 8001c60:	b580      	push	{r7, lr}
 8001c62:	b088      	sub	sp, #32
 8001c64:	af00      	add	r7, sp, #0
 8001c66:	6078      	str	r0, [r7, #4]
  GPIO_InitTypeDef GPIO_InitStruct = {0};
 8001c68:	f107 0310 	add.w	r3, r7, #16
 8001c6c:	2200      	movs	r2, #0
 8001c6e:	601a      	str	r2, [r3, #0]
 8001c70:	605a      	str	r2, [r3, #4]
 8001c72:	609a      	str	r2, [r3, #8]
 8001c74:	60da      	str	r2, [r3, #12]
  if(hadc->Instance==ADC1)
 8001c76:	687b      	ldr	r3, [r7, #4]
 8001c78:	681b      	ldr	r3, [r3, #0]
 8001c7a:	4a14      	ldr	r2, [pc, #80]	@ (8001ccc <HAL_ADC_MspInit+0x6c>)
 8001c7c:	4293      	cmp	r3, r2
 8001c7e:	d121      	bne.n	8001cc4 <HAL_ADC_MspInit+0x64>
  {
  /* USER CODE BEGIN ADC1_MspInit 0 */

  /* USER CODE END ADC1_MspInit 0 */
    /* Peripheral clock enable */
    __HAL_RCC_ADC1_CLK_ENABLE();
 8001c80:	4b13      	ldr	r3, [pc, #76]	@ (8001cd0 <HAL_ADC_MspInit+0x70>)
 8001c82:	699b      	ldr	r3, [r3, #24]
 8001c84:	4a12      	ldr	r2, [pc, #72]	@ (8001cd0 <HAL_ADC_MspInit+0x70>)
 8001c86:	f443 7300 	orr.w	r3, r3, #512	@ 0x200
 8001c8a:	6193      	str	r3, [r2, #24]
 8001c8c:	4b10      	ldr	r3, [pc, #64]	@ (8001cd0 <HAL_ADC_MspInit+0x70>)
 8001c8e:	699b      	ldr	r3, [r3, #24]
 8001c90:	f403 7300 	and.w	r3, r3, #512	@ 0x200
 8001c94:	60fb      	str	r3, [r7, #12]
 8001c96:	68fb      	ldr	r3, [r7, #12]

    __HAL_RCC_GPIOA_CLK_ENABLE();
 8001c98:	4b0d      	ldr	r3, [pc, #52]	@ (8001cd0 <HAL_ADC_MspInit+0x70>)
 8001c9a:	699b      	ldr	r3, [r3, #24]
 8001c9c:	4a0c      	ldr	r2, [pc, #48]	@ (8001cd0 <HAL_ADC_MspInit+0x70>)
 8001c9e:	f043 0304 	orr.w	r3, r3, #4
 8001ca2:	6193      	str	r3, [r2, #24]
 8001ca4:	4b0a      	ldr	r3, [pc, #40]	@ (8001cd0 <HAL_ADC_MspInit+0x70>)
 8001ca6:	699b      	ldr	r3, [r3, #24]
 8001ca8:	f003 0304 	and.w	r3, r3, #4
 8001cac:	60bb      	str	r3, [r7, #8]
 8001cae:	68bb      	ldr	r3, [r7, #8]
    /**ADC1 GPIO Configuration
    PA1     ------> ADC1_IN1
    */
    GPIO_InitStruct.Pin = GPIO_PIN_1;
 8001cb0:	2302      	movs	r3, #2
 8001cb2:	613b      	str	r3, [r7, #16]
    GPIO_InitStruct.Mode = GPIO_MODE_ANALOG;
 8001cb4:	2303      	movs	r3, #3
 8001cb6:	617b      	str	r3, [r7, #20]
    HAL_GPIO_Init(GPIOA, &GPIO_InitStruct);
 8001cb8:	f107 0310 	add.w	r3, r7, #16
 8001cbc:	4619      	mov	r1, r3
 8001cbe:	4805      	ldr	r0, [pc, #20]	@ (8001cd4 <HAL_ADC_MspInit+0x74>)
 8001cc0:	f000 feee 	bl	8002aa0 <HAL_GPIO_Init>

  /* USER CODE END ADC1_MspInit 1 */

  }

}
 8001cc4:	bf00      	nop
 8001cc6:	3720      	adds	r7, #32
 8001cc8:	46bd      	mov	sp, r7
 8001cca:	bd80      	pop	{r7, pc}
 8001ccc:	40012400 	.word	0x40012400
 8001cd0:	40021000 	.word	0x40021000
 8001cd4:	40010800 	.word	0x40010800

08001cd8 <HAL_I2C_MspInit>:
* This function configures the hardware resources used in this example
* @param hi2c: I2C handle pointer
* @retval None
*/
void HAL_I2C_MspInit(I2C_HandleTypeDef* hi2c)
{
 8001cd8:	b580      	push	{r7, lr}
 8001cda:	b088      	sub	sp, #32
 8001cdc:	af00      	add	r7, sp, #0
 8001cde:	6078      	str	r0, [r7, #4]
  GPIO_InitTypeDef GPIO_InitStruct = {0};
 8001ce0:	f107 0310 	add.w	r3, r7, #16
 8001ce4:	2200      	movs	r2, #0
 8001ce6:	601a      	str	r2, [r3, #0]
 8001ce8:	605a      	str	r2, [r3, #4]
 8001cea:	609a      	str	r2, [r3, #8]
 8001cec:	60da      	str	r2, [r3, #12]
  if(hi2c->Instance==I2C1)
 8001cee:	687b      	ldr	r3, [r7, #4]
 8001cf0:	681b      	ldr	r3, [r3, #0]
 8001cf2:	4a16      	ldr	r2, [pc, #88]	@ (8001d4c <HAL_I2C_MspInit+0x74>)
 8001cf4:	4293      	cmp	r3, r2
 8001cf6:	d125      	bne.n	8001d44 <HAL_I2C_MspInit+0x6c>
  {
  /* USER CODE BEGIN I2C1_MspInit 0 */

  /* USER CODE END I2C1_MspInit 0 */

    __HAL_RCC_GPIOB_CLK_ENABLE();
 8001cf8:	4b15      	ldr	r3, [pc, #84]	@ (8001d50 <HAL_I2C_MspInit+0x78>)
 8001cfa:	699b      	ldr	r3, [r3, #24]
 8001cfc:	4a14      	ldr	r2, [pc, #80]	@ (8001d50 <HAL_I2C_MspInit+0x78>)
 8001cfe:	f043 0308 	orr.w	r3, r3, #8
 8001d02:	6193      	str	r3, [r2, #24]
 8001d04:	4b12      	ldr	r3, [pc, #72]	@ (8001d50 <HAL_I2C_MspInit+0x78>)
 8001d06:	699b      	ldr	r3, [r3, #24]
 8001d08:	f003 0308 	and.w	r3, r3, #8
 8001d0c:	60fb      	str	r3, [r7, #12]
 8001d0e:	68fb      	ldr	r3, [r7, #12]
    /**I2C1 GPIO Configuration
    PB6     ------> I2C1_SCL
    PB7     ------> I2C1_SDA
    */
    GPIO_InitStruct.Pin = GPIO_PIN_6|GPIO_PIN_7;
 8001d10:	23c0      	movs	r3, #192	@ 0xc0
 8001d12:	613b      	str	r3, [r7, #16]
    GPIO_InitStruct.Mode = GPIO_MODE_AF_OD;
 8001d14:	2312      	movs	r3, #18
 8001d16:	617b      	str	r3, [r7, #20]
    GPIO_InitStruct.Pull = GPIO_NOPULL;
 8001d18:	2300      	movs	r3, #0
 8001d1a:	61bb      	str	r3, [r7, #24]
    GPIO_InitStruct.Speed = GPIO_SPEED_FREQ_HIGH;
 8001d1c:	2303      	movs	r3, #3
 8001d1e:	61fb      	str	r3, [r7, #28]
    HAL_GPIO_Init(GPIOB, &GPIO_InitStruct);
 8001d20:	f107 0310 	add.w	r3, r7, #16
 8001d24:	4619      	mov	r1, r3
 8001d26:	480b      	ldr	r0, [pc, #44]	@ (8001d54 <HAL_I2C_MspInit+0x7c>)
 8001d28:	f000 feba 	bl	8002aa0 <HAL_GPIO_Init>

    /* Peripheral clock enable */
    __HAL_RCC_I2C1_CLK_ENABLE();
 8001d2c:	4b08      	ldr	r3, [pc, #32]	@ (8001d50 <HAL_I2C_MspInit+0x78>)
 8001d2e:	69db      	ldr	r3, [r3, #28]
 8001d30:	4a07      	ldr	r2, [pc, #28]	@ (8001d50 <HAL_I2C_MspInit+0x78>)
 8001d32:	f443 1300 	orr.w	r3, r3, #2097152	@ 0x200000
 8001d36:	61d3      	str	r3, [r2, #28]
 8001d38:	4b05      	ldr	r3, [pc, #20]	@ (8001d50 <HAL_I2C_MspInit+0x78>)
 8001d3a:	69db      	ldr	r3, [r3, #28]
 8001d3c:	f403 1300 	and.w	r3, r3, #2097152	@ 0x200000
 8001d40:	60bb      	str	r3, [r7, #8]
 8001d42:	68bb      	ldr	r3, [r7, #8]

  /* USER CODE END I2C1_MspInit 1 */

  }

}
 8001d44:	bf00      	nop
 8001d46:	3720      	adds	r7, #32
 8001d48:	46bd      	mov	sp, r7
 8001d4a:	bd80      	pop	{r7, pc}
 8001d4c:	40005400 	.word	0x40005400
 8001d50:	40021000 	.word	0x40021000
 8001d54:	40010c00 	.word	0x40010c00

08001d58 <HAL_TIM_Base_MspInit>:
* This function configures the hardware resources used in this example
* @param htim_base: TIM_Base handle pointer
* @retval None
*/
void HAL_TIM_Base_MspInit(TIM_HandleTypeDef* htim_base)
{
 8001d58:	b480      	push	{r7}
 8001d5a:	b085      	sub	sp, #20
 8001d5c:	af00      	add	r7, sp, #0
 8001d5e:	6078      	str	r0, [r7, #4]
  if(htim_base->Instance==TIM1)
 8001d60:	687b      	ldr	r3, [r7, #4]
 8001d62:	681b      	ldr	r3, [r3, #0]
 8001d64:	4a12      	ldr	r2, [pc, #72]	@ (8001db0 <HAL_TIM_Base_MspInit+0x58>)
 8001d66:	4293      	cmp	r3, r2
 8001d68:	d10c      	bne.n	8001d84 <HAL_TIM_Base_MspInit+0x2c>
  {
  /* USER CODE BEGIN TIM1_MspInit 0 */

  /* USER CODE END TIM1_MspInit 0 */
    /* Peripheral clock enable */
    __HAL_RCC_TIM1_CLK_ENABLE();
 8001d6a:	4b12      	ldr	r3, [pc, #72]	@ (8001db4 <HAL_TIM_Base_MspInit+0x5c>)
 8001d6c:	699b      	ldr	r3, [r3, #24]
 8001d6e:	4a11      	ldr	r2, [pc, #68]	@ (8001db4 <HAL_TIM_Base_MspInit+0x5c>)
 8001d70:	f443 6300 	orr.w	r3, r3, #2048	@ 0x800
 8001d74:	6193      	str	r3, [r2, #24]
 8001d76:	4b0f      	ldr	r3, [pc, #60]	@ (8001db4 <HAL_TIM_Base_MspInit+0x5c>)
 8001d78:	699b      	ldr	r3, [r3, #24]
 8001d7a:	f403 6300 	and.w	r3, r3, #2048	@ 0x800
 8001d7e:	60fb      	str	r3, [r7, #12]
 8001d80:	68fb      	ldr	r3, [r7, #12]
  /* USER CODE BEGIN TIM2_MspInit 1 */

  /* USER CODE END TIM2_MspInit 1 */
  }

}
 8001d82:	e010      	b.n	8001da6 <HAL_TIM_Base_MspInit+0x4e>
  else if(htim_base->Instance==TIM2)
 8001d84:	687b      	ldr	r3, [r7, #4]
 8001d86:	681b      	ldr	r3, [r3, #0]
 8001d88:	f1b3 4f80 	cmp.w	r3, #1073741824	@ 0x40000000
 8001d8c:	d10b      	bne.n	8001da6 <HAL_TIM_Base_MspInit+0x4e>
    __HAL_RCC_TIM2_CLK_ENABLE();
 8001d8e:	4b09      	ldr	r3, [pc, #36]	@ (8001db4 <HAL_TIM_Base_MspInit+0x5c>)
 8001d90:	69db      	ldr	r3, [r3, #28]
 8001d92:	4a08      	ldr	r2, [pc, #32]	@ (8001db4 <HAL_TIM_Base_MspInit+0x5c>)
 8001d94:	f043 0301 	orr.w	r3, r3, #1
 8001d98:	61d3      	str	r3, [r2, #28]
 8001d9a:	4b06      	ldr	r3, [pc, #24]	@ (8001db4 <HAL_TIM_Base_MspInit+0x5c>)
 8001d9c:	69db      	ldr	r3, [r3, #28]
 8001d9e:	f003 0301 	and.w	r3, r3, #1
 8001da2:	60bb      	str	r3, [r7, #8]
 8001da4:	68bb      	ldr	r3, [r7, #8]
}
 8001da6:	bf00      	nop
 8001da8:	3714      	adds	r7, #20
 8001daa:	46bd      	mov	sp, r7
 8001dac:	bc80      	pop	{r7}
 8001dae:	4770      	bx	lr
 8001db0:	40012c00 	.word	0x40012c00
 8001db4:	40021000 	.word	0x40021000

08001db8 <HAL_TIM_MspPostInit>:

void HAL_TIM_MspPostInit(TIM_HandleTypeDef* htim)
{
 8001db8:	b580      	push	{r7, lr}
 8001dba:	b08a      	sub	sp, #40	@ 0x28
 8001dbc:	af00      	add	r7, sp, #0
 8001dbe:	6078      	str	r0, [r7, #4]
  GPIO_InitTypeDef GPIO_InitStruct = {0};
 8001dc0:	f107 0314 	add.w	r3, r7, #20
 8001dc4:	2200      	movs	r2, #0
 8001dc6:	601a      	str	r2, [r3, #0]
 8001dc8:	605a      	str	r2, [r3, #4]
 8001dca:	609a      	str	r2, [r3, #8]
 8001dcc:	60da      	str	r2, [r3, #12]
  if(htim->Instance==TIM1)
 8001dce:	687b      	ldr	r3, [r7, #4]
 8001dd0:	681b      	ldr	r3, [r3, #0]
 8001dd2:	4a28      	ldr	r2, [pc, #160]	@ (8001e74 <HAL_TIM_MspPostInit+0xbc>)
 8001dd4:	4293      	cmp	r3, r2
 8001dd6:	d119      	bne.n	8001e0c <HAL_TIM_MspPostInit+0x54>
  {
  /* USER CODE BEGIN TIM1_MspPostInit 0 */

  /* USER CODE END TIM1_MspPostInit 0 */
    __HAL_RCC_GPIOA_CLK_ENABLE();
 8001dd8:	4b27      	ldr	r3, [pc, #156]	@ (8001e78 <HAL_TIM_MspPostInit+0xc0>)
 8001dda:	699b      	ldr	r3, [r3, #24]
 8001ddc:	4a26      	ldr	r2, [pc, #152]	@ (8001e78 <HAL_TIM_MspPostInit+0xc0>)
 8001dde:	f043 0304 	orr.w	r3, r3, #4
 8001de2:	6193      	str	r3, [r2, #24]
 8001de4:	4b24      	ldr	r3, [pc, #144]	@ (8001e78 <HAL_TIM_MspPostInit+0xc0>)
 8001de6:	699b      	ldr	r3, [r3, #24]
 8001de8:	f003 0304 	and.w	r3, r3, #4
 8001dec:	613b      	str	r3, [r7, #16]
 8001dee:	693b      	ldr	r3, [r7, #16]
    /**TIM1 GPIO Configuration
    PA8     ------> TIM1_CH1
    PA9     ------> TIM1_CH2
    */
    GPIO_InitStruct.Pin = GPIO_PIN_8|GPIO_PIN_9;
 8001df0:	f44f 7340 	mov.w	r3, #768	@ 0x300
 8001df4:	617b      	str	r3, [r7, #20]
    GPIO_InitStruct.Mode = GPIO_MODE_AF_PP;
 8001df6:	2302      	movs	r3, #2
 8001df8:	61bb      	str	r3, [r7, #24]
    GPIO_InitStruct.Speed = GPIO_SPEED_FREQ_LOW;
 8001dfa:	2302      	movs	r3, #2
 8001dfc:	623b      	str	r3, [r7, #32]
    HAL_GPIO_Init(GPIOA, &GPIO_InitStruct);
 8001dfe:	f107 0314 	add.w	r3, r7, #20
 8001e02:	4619      	mov	r1, r3
 8001e04:	481d      	ldr	r0, [pc, #116]	@ (8001e7c <HAL_TIM_MspPostInit+0xc4>)
 8001e06:	f000 fe4b 	bl	8002aa0 <HAL_GPIO_Init>
  /* USER CODE BEGIN TIM2_MspPostInit 1 */

  /* USER CODE END TIM2_MspPostInit 1 */
  }

}
 8001e0a:	e02e      	b.n	8001e6a <HAL_TIM_MspPostInit+0xb2>
  else if(htim->Instance==TIM2)
 8001e0c:	687b      	ldr	r3, [r7, #4]
 8001e0e:	681b      	ldr	r3, [r3, #0]
 8001e10:	f1b3 4f80 	cmp.w	r3, #1073741824	@ 0x40000000
 8001e14:	d129      	bne.n	8001e6a <HAL_TIM_MspPostInit+0xb2>
    __HAL_RCC_GPIOB_CLK_ENABLE();
 8001e16:	4b18      	ldr	r3, [pc, #96]	@ (8001e78 <HAL_TIM_MspPostInit+0xc0>)
 8001e18:	699b      	ldr	r3, [r3, #24]
 8001e1a:	4a17      	ldr	r2, [pc, #92]	@ (8001e78 <HAL_TIM_MspPostInit+0xc0>)
 8001e1c:	f043 0308 	orr.w	r3, r3, #8
 8001e20:	6193      	str	r3, [r2, #24]
 8001e22:	4b15      	ldr	r3, [pc, #84]	@ (8001e78 <HAL_TIM_MspPostInit+0xc0>)
 8001e24:	699b      	ldr	r3, [r3, #24]
 8001e26:	f003 0308 	and.w	r3, r3, #8
 8001e2a:	60fb      	str	r3, [r7, #12]
 8001e2c:	68fb      	ldr	r3, [r7, #12]
    GPIO_InitStruct.Pin = GPIO_PIN_3;
 8001e2e:	2308      	movs	r3, #8
 8001e30:	617b      	str	r3, [r7, #20]
    GPIO_InitStruct.Mode = GPIO_MODE_AF_PP;
 8001e32:	2302      	movs	r3, #2
 8001e34:	61bb      	str	r3, [r7, #24]
    GPIO_InitStruct.Speed = GPIO_SPEED_FREQ_LOW;
 8001e36:	2302      	movs	r3, #2
 8001e38:	623b      	str	r3, [r7, #32]
    HAL_GPIO_Init(GPIOB, &GPIO_InitStruct);
 8001e3a:	f107 0314 	add.w	r3, r7, #20
 8001e3e:	4619      	mov	r1, r3
 8001e40:	480f      	ldr	r0, [pc, #60]	@ (8001e80 <HAL_TIM_MspPostInit+0xc8>)
 8001e42:	f000 fe2d 	bl	8002aa0 <HAL_GPIO_Init>
    __HAL_AFIO_REMAP_TIM2_PARTIAL_1();
 8001e46:	4b0f      	ldr	r3, [pc, #60]	@ (8001e84 <HAL_TIM_MspPostInit+0xcc>)
 8001e48:	685b      	ldr	r3, [r3, #4]
 8001e4a:	627b      	str	r3, [r7, #36]	@ 0x24
 8001e4c:	6a7b      	ldr	r3, [r7, #36]	@ 0x24
 8001e4e:	f423 7340 	bic.w	r3, r3, #768	@ 0x300
 8001e52:	627b      	str	r3, [r7, #36]	@ 0x24
 8001e54:	6a7b      	ldr	r3, [r7, #36]	@ 0x24
 8001e56:	f043 63e0 	orr.w	r3, r3, #117440512	@ 0x7000000
 8001e5a:	627b      	str	r3, [r7, #36]	@ 0x24
 8001e5c:	6a7b      	ldr	r3, [r7, #36]	@ 0x24
 8001e5e:	f443 7380 	orr.w	r3, r3, #256	@ 0x100
 8001e62:	627b      	str	r3, [r7, #36]	@ 0x24
 8001e64:	4a07      	ldr	r2, [pc, #28]	@ (8001e84 <HAL_TIM_MspPostInit+0xcc>)
 8001e66:	6a7b      	ldr	r3, [r7, #36]	@ 0x24
 8001e68:	6053      	str	r3, [r2, #4]
}
 8001e6a:	bf00      	nop
 8001e6c:	3728      	adds	r7, #40	@ 0x28
 8001e6e:	46bd      	mov	sp, r7
 8001e70:	bd80      	pop	{r7, pc}
 8001e72:	bf00      	nop
 8001e74:	40012c00 	.word	0x40012c00
 8001e78:	40021000 	.word	0x40021000
 8001e7c:	40010800 	.word	0x40010800
 8001e80:	40010c00 	.word	0x40010c00
 8001e84:	40010000 	.word	0x40010000

08001e88 <HAL_InitTick>:
  *         reset by HAL_Init() or at any time when clock is configured, by HAL_RCC_ClockConfig().
  * @param  TickPriority: Tick interrupt priority.
  * @retval HAL status
  */
HAL_StatusTypeDef HAL_InitTick(uint32_t TickPriority)
{
 8001e88:	b580      	push	{r7, lr}
 8001e8a:	b08e      	sub	sp, #56	@ 0x38
 8001e8c:	af00      	add	r7, sp, #0
 8001e8e:	6078      	str	r0, [r7, #4]
  RCC_ClkInitTypeDef    clkconfig;
  uint32_t              uwTimclock, uwAPB1Prescaler = 0U;
 8001e90:	2300      	movs	r3, #0
 8001e92:	62fb      	str	r3, [r7, #44]	@ 0x2c

  uint32_t              uwPrescalerValue = 0U;
 8001e94:	2300      	movs	r3, #0
 8001e96:	62bb      	str	r3, [r7, #40]	@ 0x28
  uint32_t              pFLatency;

  HAL_StatusTypeDef     status = HAL_OK;
 8001e98:	2300      	movs	r3, #0
 8001e9a:	f887 3033 	strb.w	r3, [r7, #51]	@ 0x33

  /* Enable TIM3 clock */
  __HAL_RCC_TIM3_CLK_ENABLE();
 8001e9e:	4b34      	ldr	r3, [pc, #208]	@ (8001f70 <HAL_InitTick+0xe8>)
 8001ea0:	69db      	ldr	r3, [r3, #28]
 8001ea2:	4a33      	ldr	r2, [pc, #204]	@ (8001f70 <HAL_InitTick+0xe8>)
 8001ea4:	f043 0302 	orr.w	r3, r3, #2
 8001ea8:	61d3      	str	r3, [r2, #28]
 8001eaa:	4b31      	ldr	r3, [pc, #196]	@ (8001f70 <HAL_InitTick+0xe8>)
 8001eac:	69db      	ldr	r3, [r3, #28]
 8001eae:	f003 0302 	and.w	r3, r3, #2
 8001eb2:	60fb      	str	r3, [r7, #12]
 8001eb4:	68fb      	ldr	r3, [r7, #12]

/* Get clock configuration */
  HAL_RCC_GetClockConfig(&clkconfig, &pFLatency);
 8001eb6:	f107 0210 	add.w	r2, r7, #16
 8001eba:	f107 0314 	add.w	r3, r7, #20
 8001ebe:	4611      	mov	r1, r2
 8001ec0:	4618      	mov	r0, r3
 8001ec2:	f002 fb2f 	bl	8004524 <HAL_RCC_GetClockConfig>

  /* Get APB1 prescaler */
  uwAPB1Prescaler = clkconfig.APB1CLKDivider;
 8001ec6:	6a3b      	ldr	r3, [r7, #32]
 8001ec8:	62fb      	str	r3, [r7, #44]	@ 0x2c
  /* Compute TIM3 clock */
  if (uwAPB1Prescaler == RCC_HCLK_DIV1)
 8001eca:	6afb      	ldr	r3, [r7, #44]	@ 0x2c
 8001ecc:	2b00      	cmp	r3, #0
 8001ece:	d103      	bne.n	8001ed8 <HAL_InitTick+0x50>
  {
    uwTimclock = HAL_RCC_GetPCLK1Freq();
 8001ed0:	f002 fb00 	bl	80044d4 <HAL_RCC_GetPCLK1Freq>
 8001ed4:	6378      	str	r0, [r7, #52]	@ 0x34
 8001ed6:	e004      	b.n	8001ee2 <HAL_InitTick+0x5a>
  }
  else
  {
    uwTimclock = 2UL * HAL_RCC_GetPCLK1Freq();
 8001ed8:	f002 fafc 	bl	80044d4 <HAL_RCC_GetPCLK1Freq>
 8001edc:	4603      	mov	r3, r0
 8001ede:	005b      	lsls	r3, r3, #1
 8001ee0:	637b      	str	r3, [r7, #52]	@ 0x34
  }

  /* Compute the prescaler value to have TIM3 counter clock equal to 1MHz */
  uwPrescalerValue = (uint32_t) ((uwTimclock / 1000000U) - 1U);
 8001ee2:	6b7b      	ldr	r3, [r7, #52]	@ 0x34
 8001ee4:	4a23      	ldr	r2, [pc, #140]	@ (8001f74 <HAL_InitTick+0xec>)
 8001ee6:	fba2 2303 	umull	r2, r3, r2, r3
 8001eea:	0c9b      	lsrs	r3, r3, #18
 8001eec:	3b01      	subs	r3, #1
 8001eee:	62bb      	str	r3, [r7, #40]	@ 0x28

  /* Initialize TIM3 */
  htim3.Instance = TIM3;
 8001ef0:	4b21      	ldr	r3, [pc, #132]	@ (8001f78 <HAL_InitTick+0xf0>)
 8001ef2:	4a22      	ldr	r2, [pc, #136]	@ (8001f7c <HAL_InitTick+0xf4>)
 8001ef4:	601a      	str	r2, [r3, #0]
  + Period = [(TIM3CLK/1000) - 1]. to have a (1/1000) s time base.
  + Prescaler = (uwTimclock/1000000 - 1) to have a 1MHz counter clock.
  + ClockDivision = 0
  + Counter direction = Up
  */
  htim3.Init.Period = (1000000U / 1000U) - 1U;
 8001ef6:	4b20      	ldr	r3, [pc, #128]	@ (8001f78 <HAL_InitTick+0xf0>)
 8001ef8:	f240 32e7 	movw	r2, #999	@ 0x3e7
 8001efc:	60da      	str	r2, [r3, #12]
  htim3.Init.Prescaler = uwPrescalerValue;
 8001efe:	4a1e      	ldr	r2, [pc, #120]	@ (8001f78 <HAL_InitTick+0xf0>)
 8001f00:	6abb      	ldr	r3, [r7, #40]	@ 0x28
 8001f02:	6053      	str	r3, [r2, #4]
  htim3.Init.ClockDivision = 0;
 8001f04:	4b1c      	ldr	r3, [pc, #112]	@ (8001f78 <HAL_InitTick+0xf0>)
 8001f06:	2200      	movs	r2, #0
 8001f08:	611a      	str	r2, [r3, #16]
  htim3.Init.CounterMode = TIM_COUNTERMODE_UP;
 8001f0a:	4b1b      	ldr	r3, [pc, #108]	@ (8001f78 <HAL_InitTick+0xf0>)
 8001f0c:	2200      	movs	r2, #0
 8001f0e:	609a      	str	r2, [r3, #8]
  htim3.Init.AutoReloadPreload = TIM_AUTORELOAD_PRELOAD_DISABLE;
 8001f10:	4b19      	ldr	r3, [pc, #100]	@ (8001f78 <HAL_InitTick+0xf0>)
 8001f12:	2200      	movs	r2, #0
 8001f14:	619a      	str	r2, [r3, #24]

  status = HAL_TIM_Base_Init(&htim3);
 8001f16:	4818      	ldr	r0, [pc, #96]	@ (8001f78 <HAL_InitTick+0xf0>)
 8001f18:	f002 fcbe 	bl	8004898 <HAL_TIM_Base_Init>
 8001f1c:	4603      	mov	r3, r0
 8001f1e:	f887 3033 	strb.w	r3, [r7, #51]	@ 0x33
  if (status == HAL_OK)
 8001f22:	f897 3033 	ldrb.w	r3, [r7, #51]	@ 0x33
 8001f26:	2b00      	cmp	r3, #0
 8001f28:	d11b      	bne.n	8001f62 <HAL_InitTick+0xda>
  {
    /* Start the TIM time Base generation in interrupt mode */
    status = HAL_TIM_Base_Start_IT(&htim3);
 8001f2a:	4813      	ldr	r0, [pc, #76]	@ (8001f78 <HAL_InitTick+0xf0>)
 8001f2c:	f002 fd04 	bl	8004938 <HAL_TIM_Base_Start_IT>
 8001f30:	4603      	mov	r3, r0
 8001f32:	f887 3033 	strb.w	r3, [r7, #51]	@ 0x33
    if (status == HAL_OK)
 8001f36:	f897 3033 	ldrb.w	r3, [r7, #51]	@ 0x33
 8001f3a:	2b00      	cmp	r3, #0
 8001f3c:	d111      	bne.n	8001f62 <HAL_InitTick+0xda>
    {
    /* Enable the TIM3 global Interrupt */
        HAL_NVIC_EnableIRQ(TIM3_IRQn);
 8001f3e:	201d      	movs	r0, #29
 8001f40:	f000 fd9f 	bl	8002a82 <HAL_NVIC_EnableIRQ>
      /* Configure the SysTick IRQ priority */
      if (TickPriority < (1UL << __NVIC_PRIO_BITS))
 8001f44:	687b      	ldr	r3, [r7, #4]
 8001f46:	2b0f      	cmp	r3, #15
 8001f48:	d808      	bhi.n	8001f5c <HAL_InitTick+0xd4>
      {
        /* Configure the TIM IRQ priority */
        HAL_NVIC_SetPriority(TIM3_IRQn, TickPriority, 0U);
 8001f4a:	2200      	movs	r2, #0
 8001f4c:	6879      	ldr	r1, [r7, #4]
 8001f4e:	201d      	movs	r0, #29
 8001f50:	f000 fd7b 	bl	8002a4a <HAL_NVIC_SetPriority>
        uwTickPrio = TickPriority;
 8001f54:	4a0a      	ldr	r2, [pc, #40]	@ (8001f80 <HAL_InitTick+0xf8>)
 8001f56:	687b      	ldr	r3, [r7, #4]
 8001f58:	6013      	str	r3, [r2, #0]
 8001f5a:	e002      	b.n	8001f62 <HAL_InitTick+0xda>
      }
      else
      {
        status = HAL_ERROR;
 8001f5c:	2301      	movs	r3, #1
 8001f5e:	f887 3033 	strb.w	r3, [r7, #51]	@ 0x33
      }
    }
  }

 /* Return function status */
  return status;
 8001f62:	f897 3033 	ldrb.w	r3, [r7, #51]	@ 0x33
}
 8001f66:	4618      	mov	r0, r3
 8001f68:	3738      	adds	r7, #56	@ 0x38
 8001f6a:	46bd      	mov	sp, r7
 8001f6c:	bd80      	pop	{r7, pc}
 8001f6e:	bf00      	nop
 8001f70:	40021000 	.word	0x40021000
 8001f74:	431bde83 	.word	0x431bde83
 8001f78:	200004b8 	.word	0x200004b8
 8001f7c:	40000400 	.word	0x40000400
 8001f80:	2000000c 	.word	0x2000000c

08001f84 <NMI_Handler>:
/******************************************************************************/
/**
  * @brief This function handles Non maskable interrupt.
  */
void NMI_Handler(void)
{
 8001f84:	b480      	push	{r7}
 8001f86:	af00      	add	r7, sp, #0
  /* USER CODE BEGIN NonMaskableInt_IRQn 0 */

  /* USER CODE END NonMaskableInt_IRQn 0 */
  /* USER CODE BEGIN NonMaskableInt_IRQn 1 */
   while (1)
 8001f88:	bf00      	nop
 8001f8a:	e7fd      	b.n	8001f88 <NMI_Handler+0x4>

08001f8c <HardFault_Handler>:

/**
  * @brief This function handles Hard fault interrupt.
  */
void HardFault_Handler(void)
{
 8001f8c:	b480      	push	{r7}
 8001f8e:	af00      	add	r7, sp, #0
  /* USER CODE BEGIN HardFault_IRQn 0 */

  /* USER CODE END HardFault_IRQn 0 */
  while (1)
 8001f90:	bf00      	nop
 8001f92:	e7fd      	b.n	8001f90 <HardFault_Handler+0x4>

08001f94 <MemManage_Handler>:

/**
  * @brief This function handles Memory management fault.
  */
void MemManage_Handler(void)
{
 8001f94:	b480      	push	{r7}
 8001f96:	af00      	add	r7, sp, #0
  /* USER CODE BEGIN MemoryManagement_IRQn 0 */

  /* USER CODE END MemoryManagement_IRQn 0 */
  while (1)
 8001f98:	bf00      	nop
 8001f9a:	e7fd      	b.n	8001f98 <MemManage_Handler+0x4>

08001f9c <BusFault_Handler>:

/**
  * @brief This function handles Prefetch fault, memory access fault.
  */
void BusFault_Handler(void)
{
 8001f9c:	b480      	push	{r7}
 8001f9e:	af00      	add	r7, sp, #0
  /* USER CODE BEGIN BusFault_IRQn 0 */

  /* USER CODE END BusFault_IRQn 0 */
  while (1)
 8001fa0:	bf00      	nop
 8001fa2:	e7fd      	b.n	8001fa0 <BusFault_Handler+0x4>

08001fa4 <UsageFault_Handler>:

/**
  * @brief This function handles Undefined instruction or illegal state.
  */
void UsageFault_Handler(void)
{
 8001fa4:	b480      	push	{r7}
 8001fa6:	af00      	add	r7, sp, #0
  /* USER CODE BEGIN UsageFault_IRQn 0 */

  /* USER CODE END UsageFault_IRQn 0 */
  while (1)
 8001fa8:	bf00      	nop
 8001faa:	e7fd      	b.n	8001fa8 <UsageFault_Handler+0x4>

08001fac <DebugMon_Handler>:

/**
  * @brief This function handles Debug monitor.
  */
void DebugMon_Handler(void)
{
 8001fac:	b480      	push	{r7}
 8001fae:	af00      	add	r7, sp, #0

  /* USER CODE END DebugMonitor_IRQn 0 */
  /* USER CODE BEGIN DebugMonitor_IRQn 1 */

  /* USER CODE END DebugMonitor_IRQn 1 */
}
 8001fb0:	bf00      	nop
 8001fb2:	46bd      	mov	sp, r7
 8001fb4:	bc80      	pop	{r7}
 8001fb6:	4770      	bx	lr

08001fb8 <TIM3_IRQHandler>:

/**
  * @brief This function handles TIM3 global interrupt.
  */
void TIM3_IRQHandler(void)
{
 8001fb8:	b580      	push	{r7, lr}
 8001fba:	af00      	add	r7, sp, #0
  /* USER CODE BEGIN TIM3_IRQn 0 */

  /* USER CODE END TIM3_IRQn 0 */
  HAL_TIM_IRQHandler(&htim3);
 8001fbc:	4802      	ldr	r0, [pc, #8]	@ (8001fc8 <TIM3_IRQHandler+0x10>)
 8001fbe:	f002 fdfb 	bl	8004bb8 <HAL_TIM_IRQHandler>
  /* USER CODE BEGIN TIM3_IRQn 1 */

  /* USER CODE END TIM3_IRQn 1 */
}
 8001fc2:	bf00      	nop
 8001fc4:	bd80      	pop	{r7, pc}
 8001fc6:	bf00      	nop
 8001fc8:	200004b8 	.word	0x200004b8

08001fcc <SystemInit>:
  * @note   This function should be used only after reset.
  * @param  None
  * @retval None
  */
void SystemInit (void)
{
 8001fcc:	b480      	push	{r7}
 8001fce:	af00      	add	r7, sp, #0

  /* Configure the Vector Table location -------------------------------------*/
#if defined(USER_VECT_TAB_ADDRESS)
  SCB->VTOR = VECT_TAB_BASE_ADDRESS | VECT_TAB_OFFSET; /* Vector Table Relocation in Internal SRAM. */
#endif /* USER_VECT_TAB_ADDRESS */
}
 8001fd0:	bf00      	nop
 8001fd2:	46bd      	mov	sp, r7
 8001fd4:	bc80      	pop	{r7}
 8001fd6:	4770      	bx	lr

08001fd8 <Reset_Handler>:
  .weak Reset_Handler
  .type Reset_Handler, %function
Reset_Handler:

/* Call the clock system initialization function.*/
    bl  SystemInit
 8001fd8:	f7ff fff8 	bl	8001fcc <SystemInit>

/* Copy the data segment initializers from flash to SRAM */
  ldr r0, =_sdata
 8001fdc:	480b      	ldr	r0, [pc, #44]	@ (800200c <LoopFillZerobss+0xe>)
  ldr r1, =_edata
 8001fde:	490c      	ldr	r1, [pc, #48]	@ (8002010 <LoopFillZerobss+0x12>)
  ldr r2, =_sidata
 8001fe0:	4a0c      	ldr	r2, [pc, #48]	@ (8002014 <LoopFillZerobss+0x16>)
  movs r3, #0
 8001fe2:	2300      	movs	r3, #0
  b LoopCopyDataInit
 8001fe4:	e002      	b.n	8001fec <LoopCopyDataInit>

08001fe6 <CopyDataInit>:

CopyDataInit:
  ldr r4, [r2, r3]
 8001fe6:	58d4      	ldr	r4, [r2, r3]
  str r4, [r0, r3]
 8001fe8:	50c4      	str	r4, [r0, r3]
  adds r3, r3, #4
 8001fea:	3304      	adds	r3, #4

08001fec <LoopCopyDataInit>:

LoopCopyDataInit:
  adds r4, r0, r3
 8001fec:	18c4      	adds	r4, r0, r3
  cmp r4, r1
 8001fee:	428c      	cmp	r4, r1
  bcc CopyDataInit
 8001ff0:	d3f9      	bcc.n	8001fe6 <CopyDataInit>
  
/* Zero fill the bss segment. */
  ldr r2, =_sbss
 8001ff2:	4a09      	ldr	r2, [pc, #36]	@ (8002018 <LoopFillZerobss+0x1a>)
  ldr r4, =_ebss
 8001ff4:	4c09      	ldr	r4, [pc, #36]	@ (800201c <LoopFillZerobss+0x1e>)
  movs r3, #0
 8001ff6:	2300      	movs	r3, #0
  b LoopFillZerobss
 8001ff8:	e001      	b.n	8001ffe <LoopFillZerobss>

08001ffa <FillZerobss>:

FillZerobss:
  str  r3, [r2]
 8001ffa:	6013      	str	r3, [r2, #0]
  adds r2, r2, #4
 8001ffc:	3204      	adds	r2, #4

08001ffe <LoopFillZerobss>:

LoopFillZerobss:
  cmp r2, r4
 8001ffe:	42a2      	cmp	r2, r4
  bcc FillZerobss
 8002000:	d3fb      	bcc.n	8001ffa <FillZerobss>

/* Call static constructors */
    bl __libc_init_array
 8002002:	f004 fe65 	bl	8006cd0 <__libc_init_array>
/* Call the application's entry point.*/
  bl main
 8002006:	f7ff fb21 	bl	800164c <main>
  bx lr
 800200a:	4770      	bx	lr
  ldr r0, =_sdata
 800200c:	20000000 	.word	0x20000000
  ldr r1, =_edata
 8002010:	20000068 	.word	0x20000068
  ldr r2, =_sidata
 8002014:	08007274 	.word	0x08007274
  ldr r2, =_sbss
 8002018:	20000068 	.word	0x20000068
  ldr r4, =_ebss
 800201c:	20001398 	.word	0x20001398

08002020 <ADC1_2_IRQHandler>:
 * @retval : None
*/
    .section .text.Default_Handler,"ax",%progbits
Default_Handler:
Infinite_Loop:
  b Infinite_Loop
 8002020:	e7fe      	b.n	8002020 <ADC1_2_IRQHandler>
	...

08002024 <HAL_Init>:
  *         need to ensure that the SysTick time base is always set to 1 millisecond
  *         to have correct HAL operation.
  * @retval HAL status
  */
HAL_StatusTypeDef HAL_Init(void)
{
 8002024:	b580      	push	{r7, lr}
 8002026:	af00      	add	r7, sp, #0
    defined(STM32F102x6) || defined(STM32F102xB) || \
    defined(STM32F103x6) || defined(STM32F103xB) || defined(STM32F103xE) || defined(STM32F103xG) || \
    defined(STM32F105xC) || defined(STM32F107xC)

  /* Prefetch buffer is not available on value line devices */
  __HAL_FLASH_PREFETCH_BUFFER_ENABLE();
 8002028:	4b08      	ldr	r3, [pc, #32]	@ (800204c <HAL_Init+0x28>)
 800202a:	681b      	ldr	r3, [r3, #0]
 800202c:	4a07      	ldr	r2, [pc, #28]	@ (800204c <HAL_Init+0x28>)
 800202e:	f043 0310 	orr.w	r3, r3, #16
 8002032:	6013      	str	r3, [r2, #0]
#endif
#endif /* PREFETCH_ENABLE */

  /* Set Interrupt Group Priority */
  HAL_NVIC_SetPriorityGrouping(NVIC_PRIORITYGROUP_4);
 8002034:	2003      	movs	r0, #3
 8002036:	f000 fcfd 	bl	8002a34 <HAL_NVIC_SetPriorityGrouping>

  /* Use systick as time base source and configure 1ms tick (default clock after Reset is HSI) */
  HAL_InitTick(TICK_INT_PRIORITY);
 800203a:	200f      	movs	r0, #15
 800203c:	f7ff ff24 	bl	8001e88 <HAL_InitTick>

  /* Init the low level hardware */
  HAL_MspInit();
 8002040:	f7ff fdd6 	bl	8001bf0 <HAL_MspInit>

  /* Return function status */
  return HAL_OK;
 8002044:	2300      	movs	r3, #0
}
 8002046:	4618      	mov	r0, r3
 8002048:	bd80      	pop	{r7, pc}
 800204a:	bf00      	nop
 800204c:	40022000 	.word	0x40022000

08002050 <HAL_IncTick>:
  * @note This function is declared as __weak to be overwritten in case of other
  *      implementations in user file.
  * @retval None
  */
__weak void HAL_IncTick(void)
{
 8002050:	b480      	push	{r7}
 8002052:	af00      	add	r7, sp, #0
  uwTick += uwTickFreq;
 8002054:	4b05      	ldr	r3, [pc, #20]	@ (800206c <HAL_IncTick+0x1c>)
 8002056:	781b      	ldrb	r3, [r3, #0]
 8002058:	461a      	mov	r2, r3
 800205a:	4b05      	ldr	r3, [pc, #20]	@ (8002070 <HAL_IncTick+0x20>)
 800205c:	681b      	ldr	r3, [r3, #0]
 800205e:	4413      	add	r3, r2
 8002060:	4a03      	ldr	r2, [pc, #12]	@ (8002070 <HAL_IncTick+0x20>)
 8002062:	6013      	str	r3, [r2, #0]
}
 8002064:	bf00      	nop
 8002066:	46bd      	mov	sp, r7
 8002068:	bc80      	pop	{r7}
 800206a:	4770      	bx	lr
 800206c:	20000010 	.word	0x20000010
 8002070:	20000500 	.word	0x20000500

08002074 <HAL_GetTick>:
  * @note  This function is declared as __weak to be overwritten in case of other
  *       implementations in user file.
  * @retval tick value
  */
__weak uint32_t HAL_GetTick(void)
{
 8002074:	b480      	push	{r7}
 8002076:	af00      	add	r7, sp, #0
  return uwTick;
 8002078:	4b02      	ldr	r3, [pc, #8]	@ (8002084 <HAL_GetTick+0x10>)
 800207a:	681b      	ldr	r3, [r3, #0]
}
 800207c:	4618      	mov	r0, r3
 800207e:	46bd      	mov	sp, r7
 8002080:	bc80      	pop	{r7}
 8002082:	4770      	bx	lr
 8002084:	20000500 	.word	0x20000500

08002088 <HAL_ADC_Init>:
  *         of structure "ADC_InitTypeDef".
  * @param  hadc: ADC handle
  * @retval HAL status
  */
HAL_StatusTypeDef HAL_ADC_Init(ADC_HandleTypeDef* hadc)
{
 8002088:	b580      	push	{r7, lr}
 800208a:	b086      	sub	sp, #24
 800208c:	af00      	add	r7, sp, #0
 800208e:	6078      	str	r0, [r7, #4]
  HAL_StatusTypeDef tmp_hal_status = HAL_OK;
 8002090:	2300      	movs	r3, #0
 8002092:	75fb      	strb	r3, [r7, #23]
  uint32_t tmp_cr1 = 0U;
 8002094:	2300      	movs	r3, #0
 8002096:	613b      	str	r3, [r7, #16]
  uint32_t tmp_cr2 = 0U;
 8002098:	2300      	movs	r3, #0
 800209a:	60bb      	str	r3, [r7, #8]
  uint32_t tmp_sqr1 = 0U;
 800209c:	2300      	movs	r3, #0
 800209e:	60fb      	str	r3, [r7, #12]
  
  /* Check ADC handle */
  if(hadc == NULL)
 80020a0:	687b      	ldr	r3, [r7, #4]
 80020a2:	2b00      	cmp	r3, #0
 80020a4:	d101      	bne.n	80020aa <HAL_ADC_Init+0x22>
  {
    return HAL_ERROR;
 80020a6:	2301      	movs	r3, #1
 80020a8:	e0be      	b.n	8002228 <HAL_ADC_Init+0x1a0>
  assert_param(IS_ADC_DATA_ALIGN(hadc->Init.DataAlign));
  assert_param(IS_ADC_SCAN_MODE(hadc->Init.ScanConvMode));
  assert_param(IS_FUNCTIONAL_STATE(hadc->Init.ContinuousConvMode));
  assert_param(IS_ADC_EXTTRIG(hadc->Init.ExternalTrigConv));
  
  if(hadc->Init.ScanConvMode != ADC_SCAN_DISABLE)
 80020aa:	687b      	ldr	r3, [r7, #4]
 80020ac:	689b      	ldr	r3, [r3, #8]
 80020ae:	2b00      	cmp	r3, #0
  /* Refer to header of this file for more details on clock enabling          */
  /* procedure.                                                               */

  /* Actions performed only if ADC is coming from state reset:                */
  /* - Initialization of ADC MSP                                              */
  if (hadc->State == HAL_ADC_STATE_RESET)
 80020b0:	687b      	ldr	r3, [r7, #4]
 80020b2:	6a9b      	ldr	r3, [r3, #40]	@ 0x28
 80020b4:	2b00      	cmp	r3, #0
 80020b6:	d109      	bne.n	80020cc <HAL_ADC_Init+0x44>
  {
    /* Initialize ADC error code */
    ADC_CLEAR_ERRORCODE(hadc);
 80020b8:	687b      	ldr	r3, [r7, #4]
 80020ba:	2200      	movs	r2, #0
 80020bc:	62da      	str	r2, [r3, #44]	@ 0x2c
    
    /* Allocate lock resource and initialize it */
    hadc->Lock = HAL_UNLOCKED;
 80020be:	687b      	ldr	r3, [r7, #4]
 80020c0:	2200      	movs	r2, #0
 80020c2:	f883 2024 	strb.w	r2, [r3, #36]	@ 0x24
    
    /* Init the low level hardware */
    hadc->MspInitCallback(hadc);
#else
    /* Init the low level hardware */
    HAL_ADC_MspInit(hadc);
 80020c6:	6878      	ldr	r0, [r7, #4]
 80020c8:	f7ff fdca 	bl	8001c60 <HAL_ADC_MspInit>
  /* Stop potential conversion on going, on regular and injected groups */
  /* Disable ADC peripheral */
  /* Note: In case of ADC already enabled, precaution to not launch an        */
  /*       unwanted conversion while modifying register CR2 by writing 1 to   */
  /*       bit ADON.                                                          */
  tmp_hal_status = ADC_ConversionStop_Disable(hadc);
 80020cc:	6878      	ldr	r0, [r7, #4]
 80020ce:	f000 fbc5 	bl	800285c <ADC_ConversionStop_Disable>
 80020d2:	4603      	mov	r3, r0
 80020d4:	75fb      	strb	r3, [r7, #23]
  
  
  /* Configuration of ADC parameters if previous preliminary actions are      */ 
  /* correctly completed.                                                     */
  if (HAL_IS_BIT_CLR(hadc->State, HAL_ADC_STATE_ERROR_INTERNAL) &&
 80020d6:	687b      	ldr	r3, [r7, #4]
 80020d8:	6a9b      	ldr	r3, [r3, #40]	@ 0x28
 80020da:	f003 0310 	and.w	r3, r3, #16
 80020de:	2b00      	cmp	r3, #0
 80020e0:	f040 8099 	bne.w	8002216 <HAL_ADC_Init+0x18e>
 80020e4:	7dfb      	ldrb	r3, [r7, #23]
 80020e6:	2b00      	cmp	r3, #0
 80020e8:	f040 8095 	bne.w	8002216 <HAL_ADC_Init+0x18e>
      (tmp_hal_status == HAL_OK)                                  )
  {
    /* Set ADC state */
    ADC_STATE_CLR_SET(hadc->State,
 80020ec:	687b      	ldr	r3, [r7, #4]
 80020ee:	6a9b      	ldr	r3, [r3, #40]	@ 0x28
 80020f0:	f423 5388 	bic.w	r3, r3, #4352	@ 0x1100
 80020f4:	f023 0302 	bic.w	r3, r3, #2
 80020f8:	f043 0202 	orr.w	r2, r3, #2
 80020fc:	687b      	ldr	r3, [r7, #4]
 80020fe:	629a      	str	r2, [r3, #40]	@ 0x28
    /*  - continuous conversion mode                                          */
    /* Note: External trigger polarity (ADC_CR2_EXTTRIG) is set into          */
    /*       HAL_ADC_Start_xxx functions because if set in this function,     */
    /*       a conversion on injected group would start a conversion also on  */
    /*       regular group after ADC enabling.                                */
    tmp_cr2 |= (hadc->Init.DataAlign                                          |
 8002100:	687b      	ldr	r3, [r7, #4]
 8002102:	685a      	ldr	r2, [r3, #4]
                ADC_CFGR_EXTSEL(hadc, hadc->Init.ExternalTrigConv)            |
 8002104:	687b      	ldr	r3, [r7, #4]
 8002106:	69db      	ldr	r3, [r3, #28]
    tmp_cr2 |= (hadc->Init.DataAlign                                          |
 8002108:	431a      	orrs	r2, r3
                ADC_CR2_CONTINUOUS((uint32_t)hadc->Init.ContinuousConvMode)   );
 800210a:	687b      	ldr	r3, [r7, #4]
 800210c:	7b1b      	ldrb	r3, [r3, #12]
 800210e:	005b      	lsls	r3, r3, #1
                ADC_CFGR_EXTSEL(hadc, hadc->Init.ExternalTrigConv)            |
 8002110:	4313      	orrs	r3, r2
    tmp_cr2 |= (hadc->Init.DataAlign                                          |
 8002112:	68ba      	ldr	r2, [r7, #8]
 8002114:	4313      	orrs	r3, r2
 8002116:	60bb      	str	r3, [r7, #8]

    /* Configuration of ADC:                                                  */
    /*  - scan mode                                                           */
    /*  - discontinuous mode disable/enable                                   */
    /*  - discontinuous mode number of conversions                            */
    tmp_cr1 |= (ADC_CR1_SCAN_SET(hadc->Init.ScanConvMode));
 8002118:	687b      	ldr	r3, [r7, #4]
 800211a:	689b      	ldr	r3, [r3, #8]
 800211c:	f5b3 7f80 	cmp.w	r3, #256	@ 0x100
 8002120:	d003      	beq.n	800212a <HAL_ADC_Init+0xa2>
 8002122:	687b      	ldr	r3, [r7, #4]
 8002124:	689b      	ldr	r3, [r3, #8]
 8002126:	2b01      	cmp	r3, #1
 8002128:	d102      	bne.n	8002130 <HAL_ADC_Init+0xa8>
 800212a:	f44f 7380 	mov.w	r3, #256	@ 0x100
 800212e:	e000      	b.n	8002132 <HAL_ADC_Init+0xaa>
 8002130:	2300      	movs	r3, #0
 8002132:	693a      	ldr	r2, [r7, #16]
 8002134:	4313      	orrs	r3, r2
 8002136:	613b      	str	r3, [r7, #16]
    
    /* Enable discontinuous mode only if continuous mode is disabled */
    /* Note: If parameter "Init.ScanConvMode" is set to disable, parameter    */
    /*       discontinuous is set anyway, but will have no effect on ADC HW.  */
    if (hadc->Init.DiscontinuousConvMode == ENABLE)
 8002138:	687b      	ldr	r3, [r7, #4]
 800213a:	7d1b      	ldrb	r3, [r3, #20]
 800213c:	2b01      	cmp	r3, #1
 800213e:	d119      	bne.n	8002174 <HAL_ADC_Init+0xec>
    {
      if (hadc->Init.ContinuousConvMode == DISABLE)
 8002140:	687b      	ldr	r3, [r7, #4]
 8002142:	7b1b      	ldrb	r3, [r3, #12]
 8002144:	2b00      	cmp	r3, #0
 8002146:	d109      	bne.n	800215c <HAL_ADC_Init+0xd4>
      {
        /* Enable the selected ADC regular discontinuous mode */
        /* Set the number of channels to be converted in discontinuous mode */
        SET_BIT(tmp_cr1, ADC_CR1_DISCEN                                            |
 8002148:	687b      	ldr	r3, [r7, #4]
 800214a:	699b      	ldr	r3, [r3, #24]
 800214c:	3b01      	subs	r3, #1
 800214e:	035a      	lsls	r2, r3, #13
 8002150:	693b      	ldr	r3, [r7, #16]
 8002152:	4313      	orrs	r3, r2
 8002154:	f443 6300 	orr.w	r3, r3, #2048	@ 0x800
 8002158:	613b      	str	r3, [r7, #16]
 800215a:	e00b      	b.n	8002174 <HAL_ADC_Init+0xec>
      {
        /* ADC regular group settings continuous and sequencer discontinuous*/
        /* cannot be enabled simultaneously.                                */
        
        /* Update ADC state machine to error */
        SET_BIT(hadc->State, HAL_ADC_STATE_ERROR_CONFIG);
 800215c:	687b      	ldr	r3, [r7, #4]
 800215e:	6a9b      	ldr	r3, [r3, #40]	@ 0x28
 8002160:	f043 0220 	orr.w	r2, r3, #32
 8002164:	687b      	ldr	r3, [r7, #4]
 8002166:	629a      	str	r2, [r3, #40]	@ 0x28
        
        /* Set ADC error code to ADC IP internal error */
        SET_BIT(hadc->ErrorCode, HAL_ADC_ERROR_INTERNAL);
 8002168:	687b      	ldr	r3, [r7, #4]
 800216a:	6adb      	ldr	r3, [r3, #44]	@ 0x2c
 800216c:	f043 0201 	orr.w	r2, r3, #1
 8002170:	687b      	ldr	r3, [r7, #4]
 8002172:	62da      	str	r2, [r3, #44]	@ 0x2c
      }
    }
    
    /* Update ADC configuration register CR1 with previous settings */
      MODIFY_REG(hadc->Instance->CR1,
 8002174:	687b      	ldr	r3, [r7, #4]
 8002176:	681b      	ldr	r3, [r3, #0]
 8002178:	685b      	ldr	r3, [r3, #4]
 800217a:	f423 4169 	bic.w	r1, r3, #59648	@ 0xe900
 800217e:	687b      	ldr	r3, [r7, #4]
 8002180:	681b      	ldr	r3, [r3, #0]
 8002182:	693a      	ldr	r2, [r7, #16]
 8002184:	430a      	orrs	r2, r1
 8002186:	605a      	str	r2, [r3, #4]
                 ADC_CR1_DISCEN  |
                 ADC_CR1_DISCNUM    ,
                 tmp_cr1             );
    
    /* Update ADC configuration register CR2 with previous settings */
      MODIFY_REG(hadc->Instance->CR2,
 8002188:	687b      	ldr	r3, [r7, #4]
 800218a:	681b      	ldr	r3, [r3, #0]
 800218c:	689a      	ldr	r2, [r3, #8]
 800218e:	4b28      	ldr	r3, [pc, #160]	@ (8002230 <HAL_ADC_Init+0x1a8>)
 8002190:	4013      	ands	r3, r2
 8002192:	687a      	ldr	r2, [r7, #4]
 8002194:	6812      	ldr	r2, [r2, #0]
 8002196:	68b9      	ldr	r1, [r7, #8]
 8002198:	430b      	orrs	r3, r1
 800219a:	6093      	str	r3, [r2, #8]
    /*   Note: Scan mode is present by hardware on this device and, if        */
    /*   disabled, discards automatically nb of conversions. Anyway, nb of    */
    /*   conversions is forced to 0x00 for alignment over all STM32 devices.  */
    /* - if scan mode is enabled, regular channels sequence length is set to  */
    /*   parameter "NbrOfConversion"                                          */
    if (ADC_CR1_SCAN_SET(hadc->Init.ScanConvMode) == ADC_SCAN_ENABLE)
 800219c:	687b      	ldr	r3, [r7, #4]
 800219e:	689b      	ldr	r3, [r3, #8]
 80021a0:	f5b3 7f80 	cmp.w	r3, #256	@ 0x100
 80021a4:	d003      	beq.n	80021ae <HAL_ADC_Init+0x126>
 80021a6:	687b      	ldr	r3, [r7, #4]
 80021a8:	689b      	ldr	r3, [r3, #8]
 80021aa:	2b01      	cmp	r3, #1
 80021ac:	d104      	bne.n	80021b8 <HAL_ADC_Init+0x130>
    {
      tmp_sqr1 = ADC_SQR1_L_SHIFT(hadc->Init.NbrOfConversion);
 80021ae:	687b      	ldr	r3, [r7, #4]
 80021b0:	691b      	ldr	r3, [r3, #16]
 80021b2:	3b01      	subs	r3, #1
 80021b4:	051b      	lsls	r3, r3, #20
 80021b6:	60fb      	str	r3, [r7, #12]
    }
      
    MODIFY_REG(hadc->Instance->SQR1,
 80021b8:	687b      	ldr	r3, [r7, #4]
 80021ba:	681b      	ldr	r3, [r3, #0]
 80021bc:	6adb      	ldr	r3, [r3, #44]	@ 0x2c
 80021be:	f423 0170 	bic.w	r1, r3, #15728640	@ 0xf00000
 80021c2:	687b      	ldr	r3, [r7, #4]
 80021c4:	681b      	ldr	r3, [r3, #0]
 80021c6:	68fa      	ldr	r2, [r7, #12]
 80021c8:	430a      	orrs	r2, r1
 80021ca:	62da      	str	r2, [r3, #44]	@ 0x2c
    /* ensure of no potential problem of ADC core IP clocking.                */
    /* Check through register CR2 (excluding bits set in other functions:     */
    /* execution control bits (ADON, JSWSTART, SWSTART), regular group bits   */
    /* (DMA), injected group bits (JEXTTRIG and JEXTSEL), channel internal    */
    /* measurement path bit (TSVREFE).                                        */
    if (READ_BIT(hadc->Instance->CR2, ~(ADC_CR2_ADON | ADC_CR2_DMA |
 80021cc:	687b      	ldr	r3, [r7, #4]
 80021ce:	681b      	ldr	r3, [r3, #0]
 80021d0:	689a      	ldr	r2, [r3, #8]
 80021d2:	4b18      	ldr	r3, [pc, #96]	@ (8002234 <HAL_ADC_Init+0x1ac>)
 80021d4:	4013      	ands	r3, r2
 80021d6:	68ba      	ldr	r2, [r7, #8]
 80021d8:	429a      	cmp	r2, r3
 80021da:	d10b      	bne.n	80021f4 <HAL_ADC_Init+0x16c>
                                        ADC_CR2_JEXTTRIG | ADC_CR2_JEXTSEL |
                                        ADC_CR2_TSVREFE                     ))
         == tmp_cr2)
    {
      /* Set ADC error code to none */
      ADC_CLEAR_ERRORCODE(hadc);
 80021dc:	687b      	ldr	r3, [r7, #4]
 80021de:	2200      	movs	r2, #0
 80021e0:	62da      	str	r2, [r3, #44]	@ 0x2c
      
      /* Set the ADC state */
      ADC_STATE_CLR_SET(hadc->State,
 80021e2:	687b      	ldr	r3, [r7, #4]
 80021e4:	6a9b      	ldr	r3, [r3, #40]	@ 0x28
 80021e6:	f023 0303 	bic.w	r3, r3, #3
 80021ea:	f043 0201 	orr.w	r2, r3, #1
 80021ee:	687b      	ldr	r3, [r7, #4]
 80021f0:	629a      	str	r2, [r3, #40]	@ 0x28
    if (READ_BIT(hadc->Instance->CR2, ~(ADC_CR2_ADON | ADC_CR2_DMA |
 80021f2:	e018      	b.n	8002226 <HAL_ADC_Init+0x19e>
                        HAL_ADC_STATE_READY);
    }
    else
    {
      /* Update ADC state machine to error */
      ADC_STATE_CLR_SET(hadc->State,
 80021f4:	687b      	ldr	r3, [r7, #4]
 80021f6:	6a9b      	ldr	r3, [r3, #40]	@ 0x28
 80021f8:	f023 0312 	bic.w	r3, r3, #18
 80021fc:	f043 0210 	orr.w	r2, r3, #16
 8002200:	687b      	ldr	r3, [r7, #4]
 8002202:	629a      	str	r2, [r3, #40]	@ 0x28
                        HAL_ADC_STATE_BUSY_INTERNAL,
                        HAL_ADC_STATE_ERROR_INTERNAL);
      
      /* Set ADC error code to ADC IP internal error */
      SET_BIT(hadc->ErrorCode, HAL_ADC_ERROR_INTERNAL);
 8002204:	687b      	ldr	r3, [r7, #4]
 8002206:	6adb      	ldr	r3, [r3, #44]	@ 0x2c
 8002208:	f043 0201 	orr.w	r2, r3, #1
 800220c:	687b      	ldr	r3, [r7, #4]
 800220e:	62da      	str	r2, [r3, #44]	@ 0x2c
      
      tmp_hal_status = HAL_ERROR;
 8002210:	2301      	movs	r3, #1
 8002212:	75fb      	strb	r3, [r7, #23]
    if (READ_BIT(hadc->Instance->CR2, ~(ADC_CR2_ADON | ADC_CR2_DMA |
 8002214:	e007      	b.n	8002226 <HAL_ADC_Init+0x19e>
  
  }
  else
  {
    /* Update ADC state machine to error */
    SET_BIT(hadc->State, HAL_ADC_STATE_ERROR_INTERNAL);
 8002216:	687b      	ldr	r3, [r7, #4]
 8002218:	6a9b      	ldr	r3, [r3, #40]	@ 0x28
 800221a:	f043 0210 	orr.w	r2, r3, #16
 800221e:	687b      	ldr	r3, [r7, #4]
 8002220:	629a      	str	r2, [r3, #40]	@ 0x28
        
    tmp_hal_status = HAL_ERROR;
 8002222:	2301      	movs	r3, #1
 8002224:	75fb      	strb	r3, [r7, #23]
  }
  
  /* Return function status */
  return tmp_hal_status;
 8002226:	7dfb      	ldrb	r3, [r7, #23]
}
 8002228:	4618      	mov	r0, r3
 800222a:	3718      	adds	r7, #24
 800222c:	46bd      	mov	sp, r7
 800222e:	bd80      	pop	{r7, pc}
 8002230:	ffe1f7fd 	.word	0xffe1f7fd
 8002234:	ff1f0efe 	.word	0xff1f0efe

08002238 <HAL_ADC_Start>:
  *         Interruptions enabled in this function: None.
  * @param  hadc: ADC handle
  * @retval HAL status
  */
HAL_StatusTypeDef HAL_ADC_Start(ADC_HandleTypeDef* hadc)
{
 8002238:	b580      	push	{r7, lr}
 800223a:	b084      	sub	sp, #16
 800223c:	af00      	add	r7, sp, #0
 800223e:	6078      	str	r0, [r7, #4]
  HAL_StatusTypeDef tmp_hal_status = HAL_OK;
 8002240:	2300      	movs	r3, #0
 8002242:	73fb      	strb	r3, [r7, #15]
  
  /* Check the parameters */
  assert_param(IS_ADC_ALL_INSTANCE(hadc->Instance));
  
  /* Process locked */
  __HAL_LOCK(hadc);
 8002244:	687b      	ldr	r3, [r7, #4]
 8002246:	f893 3024 	ldrb.w	r3, [r3, #36]	@ 0x24
 800224a:	2b01      	cmp	r3, #1
 800224c:	d101      	bne.n	8002252 <HAL_ADC_Start+0x1a>
 800224e:	2302      	movs	r3, #2
 8002250:	e098      	b.n	8002384 <HAL_ADC_Start+0x14c>
 8002252:	687b      	ldr	r3, [r7, #4]
 8002254:	2201      	movs	r2, #1
 8002256:	f883 2024 	strb.w	r2, [r3, #36]	@ 0x24
   
  /* Enable the ADC peripheral */
  tmp_hal_status = ADC_Enable(hadc);
 800225a:	6878      	ldr	r0, [r7, #4]
 800225c:	f000 faa4 	bl	80027a8 <ADC_Enable>
 8002260:	4603      	mov	r3, r0
 8002262:	73fb      	strb	r3, [r7, #15]
  
  /* Start conversion if ADC is effectively enabled */
  if (tmp_hal_status == HAL_OK)
 8002264:	7bfb      	ldrb	r3, [r7, #15]
 8002266:	2b00      	cmp	r3, #0
 8002268:	f040 8087 	bne.w	800237a <HAL_ADC_Start+0x142>
  {
    /* Set ADC state                                                          */
    /* - Clear state bitfield related to regular group conversion results     */
    /* - Set state bitfield related to regular operation                      */
    ADC_STATE_CLR_SET(hadc->State,
 800226c:	687b      	ldr	r3, [r7, #4]
 800226e:	6a9b      	ldr	r3, [r3, #40]	@ 0x28
 8002270:	f423 7340 	bic.w	r3, r3, #768	@ 0x300
 8002274:	f023 0301 	bic.w	r3, r3, #1
 8002278:	f443 7280 	orr.w	r2, r3, #256	@ 0x100
 800227c:	687b      	ldr	r3, [r7, #4]
 800227e:	629a      	str	r2, [r3, #40]	@ 0x28
                      HAL_ADC_STATE_REG_BUSY);
    
    /* Set group injected state (from auto-injection) and multimode state     */
    /* for all cases of multimode: independent mode, multimode ADC master     */
    /* or multimode ADC slave (for devices with several ADCs):                */
    if (ADC_NONMULTIMODE_OR_MULTIMODEMASTER(hadc))
 8002280:	687b      	ldr	r3, [r7, #4]
 8002282:	681b      	ldr	r3, [r3, #0]
 8002284:	4a41      	ldr	r2, [pc, #260]	@ (800238c <HAL_ADC_Start+0x154>)
 8002286:	4293      	cmp	r3, r2
 8002288:	d105      	bne.n	8002296 <HAL_ADC_Start+0x5e>
 800228a:	4b41      	ldr	r3, [pc, #260]	@ (8002390 <HAL_ADC_Start+0x158>)
 800228c:	685b      	ldr	r3, [r3, #4]
 800228e:	f403 2370 	and.w	r3, r3, #983040	@ 0xf0000
 8002292:	2b00      	cmp	r3, #0
 8002294:	d115      	bne.n	80022c2 <HAL_ADC_Start+0x8a>
    {
      /* Set ADC state (ADC independent or master) */
      CLEAR_BIT(hadc->State, HAL_ADC_STATE_MULTIMODE_SLAVE);
 8002296:	687b      	ldr	r3, [r7, #4]
 8002298:	6a9b      	ldr	r3, [r3, #40]	@ 0x28
 800229a:	f423 1280 	bic.w	r2, r3, #1048576	@ 0x100000
 800229e:	687b      	ldr	r3, [r7, #4]
 80022a0:	629a      	str	r2, [r3, #40]	@ 0x28
      
      /* If conversions on group regular are also triggering group injected,  */
      /* update ADC state.                                                    */
      if (READ_BIT(hadc->Instance->CR1, ADC_CR1_JAUTO) != RESET)
 80022a2:	687b      	ldr	r3, [r7, #4]
 80022a4:	681b      	ldr	r3, [r3, #0]
 80022a6:	685b      	ldr	r3, [r3, #4]
 80022a8:	f403 6380 	and.w	r3, r3, #1024	@ 0x400
 80022ac:	2b00      	cmp	r3, #0
 80022ae:	d026      	beq.n	80022fe <HAL_ADC_Start+0xc6>
      {
        ADC_STATE_CLR_SET(hadc->State, HAL_ADC_STATE_INJ_EOC, HAL_ADC_STATE_INJ_BUSY);  
 80022b0:	687b      	ldr	r3, [r7, #4]
 80022b2:	6a9b      	ldr	r3, [r3, #40]	@ 0x28
 80022b4:	f423 5340 	bic.w	r3, r3, #12288	@ 0x3000
 80022b8:	f443 5280 	orr.w	r2, r3, #4096	@ 0x1000
 80022bc:	687b      	ldr	r3, [r7, #4]
 80022be:	629a      	str	r2, [r3, #40]	@ 0x28
      if (READ_BIT(hadc->Instance->CR1, ADC_CR1_JAUTO) != RESET)
 80022c0:	e01d      	b.n	80022fe <HAL_ADC_Start+0xc6>
      }
    }
    else
    {
      /* Set ADC state (ADC slave) */
      SET_BIT(hadc->State, HAL_ADC_STATE_MULTIMODE_SLAVE);
 80022c2:	687b      	ldr	r3, [r7, #4]
 80022c4:	6a9b      	ldr	r3, [r3, #40]	@ 0x28
 80022c6:	f443 1280 	orr.w	r2, r3, #1048576	@ 0x100000
 80022ca:	687b      	ldr	r3, [r7, #4]
 80022cc:	629a      	str	r2, [r3, #40]	@ 0x28
      
      /* If conversions on group regular are also triggering group injected,  */
      /* update ADC state.                                                    */
      if (ADC_MULTIMODE_AUTO_INJECTED(hadc))
 80022ce:	687b      	ldr	r3, [r7, #4]
 80022d0:	681b      	ldr	r3, [r3, #0]
 80022d2:	4a2f      	ldr	r2, [pc, #188]	@ (8002390 <HAL_ADC_Start+0x158>)
 80022d4:	4293      	cmp	r3, r2
 80022d6:	d004      	beq.n	80022e2 <HAL_ADC_Start+0xaa>
 80022d8:	687b      	ldr	r3, [r7, #4]
 80022da:	681b      	ldr	r3, [r3, #0]
 80022dc:	4a2b      	ldr	r2, [pc, #172]	@ (800238c <HAL_ADC_Start+0x154>)
 80022de:	4293      	cmp	r3, r2
 80022e0:	d10d      	bne.n	80022fe <HAL_ADC_Start+0xc6>
 80022e2:	4b2b      	ldr	r3, [pc, #172]	@ (8002390 <HAL_ADC_Start+0x158>)
 80022e4:	685b      	ldr	r3, [r3, #4]
 80022e6:	f403 6380 	and.w	r3, r3, #1024	@ 0x400
 80022ea:	2b00      	cmp	r3, #0
 80022ec:	d007      	beq.n	80022fe <HAL_ADC_Start+0xc6>
      {
        ADC_STATE_CLR_SET(hadc->State, HAL_ADC_STATE_INJ_EOC, HAL_ADC_STATE_INJ_BUSY);
 80022ee:	687b      	ldr	r3, [r7, #4]
 80022f0:	6a9b      	ldr	r3, [r3, #40]	@ 0x28
 80022f2:	f423 5340 	bic.w	r3, r3, #12288	@ 0x3000
 80022f6:	f443 5280 	orr.w	r2, r3, #4096	@ 0x1000
 80022fa:	687b      	ldr	r3, [r7, #4]
 80022fc:	629a      	str	r2, [r3, #40]	@ 0x28
      }
    }
    
    /* State machine update: Check if an injected conversion is ongoing */
    if (HAL_IS_BIT_SET(hadc->State, HAL_ADC_STATE_INJ_BUSY))
 80022fe:	687b      	ldr	r3, [r7, #4]
 8002300:	6a9b      	ldr	r3, [r3, #40]	@ 0x28
 8002302:	f403 5380 	and.w	r3, r3, #4096	@ 0x1000
 8002306:	2b00      	cmp	r3, #0
 8002308:	d006      	beq.n	8002318 <HAL_ADC_Start+0xe0>
    {
      /* Reset ADC error code fields related to conversions on group regular */
      CLEAR_BIT(hadc->ErrorCode, (HAL_ADC_ERROR_OVR | HAL_ADC_ERROR_DMA));         
 800230a:	687b      	ldr	r3, [r7, #4]
 800230c:	6adb      	ldr	r3, [r3, #44]	@ 0x2c
 800230e:	f023 0206 	bic.w	r2, r3, #6
 8002312:	687b      	ldr	r3, [r7, #4]
 8002314:	62da      	str	r2, [r3, #44]	@ 0x2c
 8002316:	e002      	b.n	800231e <HAL_ADC_Start+0xe6>
    }
    else
    {
      /* Reset ADC all error code fields */
      ADC_CLEAR_ERRORCODE(hadc);
 8002318:	687b      	ldr	r3, [r7, #4]
 800231a:	2200      	movs	r2, #0
 800231c:	62da      	str	r2, [r3, #44]	@ 0x2c
    }
    
    /* Process unlocked */
    /* Unlock before starting ADC conversions: in case of potential           */
    /* interruption, to let the process to ADC IRQ Handler.                   */
    __HAL_UNLOCK(hadc);
 800231e:	687b      	ldr	r3, [r7, #4]
 8002320:	2200      	movs	r2, #0
 8002322:	f883 2024 	strb.w	r2, [r3, #36]	@ 0x24
  
    /* Clear regular group conversion flag */
    /* (To ensure of no unknown state from potential previous ADC operations) */
    __HAL_ADC_CLEAR_FLAG(hadc, ADC_FLAG_EOC);
 8002326:	687b      	ldr	r3, [r7, #4]
 8002328:	681b      	ldr	r3, [r3, #0]
 800232a:	f06f 0202 	mvn.w	r2, #2
 800232e:	601a      	str	r2, [r3, #0]
    /*  - if ADC is slave, ADC is enabled only (conversion is not started).   */
    /*  - if ADC is master, ADC is enabled and conversion is started.         */
    /* If ADC is master, ADC is enabled and conversion is started.            */
    /* Note: Alternate trigger for single conversion could be to force an     */
    /*       additional set of bit ADON "hadc->Instance->CR2 |= ADC_CR2_ADON;"*/
    if (ADC_IS_SOFTWARE_START_REGULAR(hadc)      &&
 8002330:	687b      	ldr	r3, [r7, #4]
 8002332:	681b      	ldr	r3, [r3, #0]
 8002334:	689b      	ldr	r3, [r3, #8]
 8002336:	f403 2360 	and.w	r3, r3, #917504	@ 0xe0000
 800233a:	f5b3 2f60 	cmp.w	r3, #917504	@ 0xe0000
 800233e:	d113      	bne.n	8002368 <HAL_ADC_Start+0x130>
        ADC_NONMULTIMODE_OR_MULTIMODEMASTER(hadc)  )
 8002340:	687b      	ldr	r3, [r7, #4]
 8002342:	681b      	ldr	r3, [r3, #0]
    if (ADC_IS_SOFTWARE_START_REGULAR(hadc)      &&
 8002344:	4a11      	ldr	r2, [pc, #68]	@ (800238c <HAL_ADC_Start+0x154>)
 8002346:	4293      	cmp	r3, r2
 8002348:	d105      	bne.n	8002356 <HAL_ADC_Start+0x11e>
        ADC_NONMULTIMODE_OR_MULTIMODEMASTER(hadc)  )
 800234a:	4b11      	ldr	r3, [pc, #68]	@ (8002390 <HAL_ADC_Start+0x158>)
 800234c:	685b      	ldr	r3, [r3, #4]
 800234e:	f403 2370 	and.w	r3, r3, #983040	@ 0xf0000
    if (ADC_IS_SOFTWARE_START_REGULAR(hadc)      &&
 8002352:	2b00      	cmp	r3, #0
 8002354:	d108      	bne.n	8002368 <HAL_ADC_Start+0x130>
    {
      /* Start ADC conversion on regular group with SW start */
      SET_BIT(hadc->Instance->CR2, (ADC_CR2_SWSTART | ADC_CR2_EXTTRIG));
 8002356:	687b      	ldr	r3, [r7, #4]
 8002358:	681b      	ldr	r3, [r3, #0]
 800235a:	689a      	ldr	r2, [r3, #8]
 800235c:	687b      	ldr	r3, [r7, #4]
 800235e:	681b      	ldr	r3, [r3, #0]
 8002360:	f442 02a0 	orr.w	r2, r2, #5242880	@ 0x500000
 8002364:	609a      	str	r2, [r3, #8]
 8002366:	e00c      	b.n	8002382 <HAL_ADC_Start+0x14a>
    }
    else
    {
      /* Start ADC conversion on regular group with external trigger */
      SET_BIT(hadc->Instance->CR2, ADC_CR2_EXTTRIG);
 8002368:	687b      	ldr	r3, [r7, #4]
 800236a:	681b      	ldr	r3, [r3, #0]
 800236c:	689a      	ldr	r2, [r3, #8]
 800236e:	687b      	ldr	r3, [r7, #4]
 8002370:	681b      	ldr	r3, [r3, #0]
 8002372:	f442 1280 	orr.w	r2, r2, #1048576	@ 0x100000
 8002376:	609a      	str	r2, [r3, #8]
 8002378:	e003      	b.n	8002382 <HAL_ADC_Start+0x14a>
    }
  }
  else
  {
    /* Process unlocked */
    __HAL_UNLOCK(hadc);
 800237a:	687b      	ldr	r3, [r7, #4]
 800237c:	2200      	movs	r2, #0
 800237e:	f883 2024 	strb.w	r2, [r3, #36]	@ 0x24
  }
    
  /* Return function status */
  return tmp_hal_status;
 8002382:	7bfb      	ldrb	r3, [r7, #15]
}
 8002384:	4618      	mov	r0, r3
 8002386:	3710      	adds	r7, #16
 8002388:	46bd      	mov	sp, r7
 800238a:	bd80      	pop	{r7, pc}
 800238c:	40012800 	.word	0x40012800
 8002390:	40012400 	.word	0x40012400

08002394 <HAL_ADC_PollForConversion>:
  * @param  hadc: ADC handle
  * @param  Timeout: Timeout value in millisecond.
  * @retval HAL status
  */
HAL_StatusTypeDef HAL_ADC_PollForConversion(ADC_HandleTypeDef* hadc, uint32_t Timeout)
{
 8002394:	b590      	push	{r4, r7, lr}
 8002396:	b087      	sub	sp, #28
 8002398:	af00      	add	r7, sp, #0
 800239a:	6078      	str	r0, [r7, #4]
 800239c:	6039      	str	r1, [r7, #0]
  uint32_t tickstart = 0U;
 800239e:	2300      	movs	r3, #0
 80023a0:	617b      	str	r3, [r7, #20]
  
  /* Variables for polling in case of scan mode enabled and polling for each  */
  /* conversion.                                                              */
  __IO uint32_t Conversion_Timeout_CPU_cycles = 0U;
 80023a2:	2300      	movs	r3, #0
 80023a4:	60fb      	str	r3, [r7, #12]
  uint32_t Conversion_Timeout_CPU_cycles_max = 0U;
 80023a6:	2300      	movs	r3, #0
 80023a8:	613b      	str	r3, [r7, #16]
 
  /* Check the parameters */
  assert_param(IS_ADC_ALL_INSTANCE(hadc->Instance));
  
  /* Get tick count */
  tickstart = HAL_GetTick();
 80023aa:	f7ff fe63 	bl	8002074 <HAL_GetTick>
 80023ae:	6178      	str	r0, [r7, #20]
  
  /* Verification that ADC configuration is compliant with polling for        */
  /* each conversion:                                                         */
  /* Particular case is ADC configured in DMA mode                            */
  if (HAL_IS_BIT_SET(hadc->Instance->CR2, ADC_CR2_DMA))
 80023b0:	687b      	ldr	r3, [r7, #4]
 80023b2:	681b      	ldr	r3, [r3, #0]
 80023b4:	689b      	ldr	r3, [r3, #8]
 80023b6:	f403 7380 	and.w	r3, r3, #256	@ 0x100
 80023ba:	2b00      	cmp	r3, #0
 80023bc:	d00b      	beq.n	80023d6 <HAL_ADC_PollForConversion+0x42>
  {
    /* Update ADC state machine to error */
    SET_BIT(hadc->State, HAL_ADC_STATE_ERROR_CONFIG);
 80023be:	687b      	ldr	r3, [r7, #4]
 80023c0:	6a9b      	ldr	r3, [r3, #40]	@ 0x28
 80023c2:	f043 0220 	orr.w	r2, r3, #32
 80023c6:	687b      	ldr	r3, [r7, #4]
 80023c8:	629a      	str	r2, [r3, #40]	@ 0x28
    
    /* Process unlocked */
    __HAL_UNLOCK(hadc);
 80023ca:	687b      	ldr	r3, [r7, #4]
 80023cc:	2200      	movs	r2, #0
 80023ce:	f883 2024 	strb.w	r2, [r3, #36]	@ 0x24
    
    return HAL_ERROR;
 80023d2:	2301      	movs	r3, #1
 80023d4:	e0d3      	b.n	800257e <HAL_ADC_PollForConversion+0x1ea>
  /*    from ADC conversion time (selected sampling time + conversion time of */
  /*    12.5 ADC clock cycles) and APB2/ADC clock prescalers (depending on    */
  /*    settings, conversion time range can be from 28 to 32256 CPU cycles).  */
  /*    As flag EOC is not set after each conversion, no timeout status can   */
  /*    be set.                                                               */
  if (HAL_IS_BIT_CLR(hadc->Instance->CR1, ADC_CR1_SCAN) &&
 80023d6:	687b      	ldr	r3, [r7, #4]
 80023d8:	681b      	ldr	r3, [r3, #0]
 80023da:	685b      	ldr	r3, [r3, #4]
 80023dc:	f403 7380 	and.w	r3, r3, #256	@ 0x100
 80023e0:	2b00      	cmp	r3, #0
 80023e2:	d131      	bne.n	8002448 <HAL_ADC_PollForConversion+0xb4>
      HAL_IS_BIT_CLR(hadc->Instance->SQR1, ADC_SQR1_L)    )
 80023e4:	687b      	ldr	r3, [r7, #4]
 80023e6:	681b      	ldr	r3, [r3, #0]
 80023e8:	6adb      	ldr	r3, [r3, #44]	@ 0x2c
 80023ea:	f403 0370 	and.w	r3, r3, #15728640	@ 0xf00000
  if (HAL_IS_BIT_CLR(hadc->Instance->CR1, ADC_CR1_SCAN) &&
 80023ee:	2b00      	cmp	r3, #0
 80023f0:	d12a      	bne.n	8002448 <HAL_ADC_PollForConversion+0xb4>
  {
    /* Wait until End of Conversion flag is raised */
    while(HAL_IS_BIT_CLR(hadc->Instance->SR, ADC_FLAG_EOC))
 80023f2:	e021      	b.n	8002438 <HAL_ADC_PollForConversion+0xa4>
    {
      /* Check if timeout is disabled (set to infinite wait) */
      if(Timeout != HAL_MAX_DELAY)
 80023f4:	683b      	ldr	r3, [r7, #0]
 80023f6:	f1b3 3fff 	cmp.w	r3, #4294967295	@ 0xffffffff
 80023fa:	d01d      	beq.n	8002438 <HAL_ADC_PollForConversion+0xa4>
      {
        if((Timeout == 0U) || ((HAL_GetTick() - tickstart ) > Timeout))
 80023fc:	683b      	ldr	r3, [r7, #0]
 80023fe:	2b00      	cmp	r3, #0
 8002400:	d007      	beq.n	8002412 <HAL_ADC_PollForConversion+0x7e>
 8002402:	f7ff fe37 	bl	8002074 <HAL_GetTick>
 8002406:	4602      	mov	r2, r0
 8002408:	697b      	ldr	r3, [r7, #20]
 800240a:	1ad3      	subs	r3, r2, r3
 800240c:	683a      	ldr	r2, [r7, #0]
 800240e:	429a      	cmp	r2, r3
 8002410:	d212      	bcs.n	8002438 <HAL_ADC_PollForConversion+0xa4>
        {
          /* New check to avoid false timeout detection in case of preemption */
          if(HAL_IS_BIT_CLR(hadc->Instance->SR, ADC_FLAG_EOC))
 8002412:	687b      	ldr	r3, [r7, #4]
 8002414:	681b      	ldr	r3, [r3, #0]
 8002416:	681b      	ldr	r3, [r3, #0]
 8002418:	f003 0302 	and.w	r3, r3, #2
 800241c:	2b00      	cmp	r3, #0
 800241e:	d10b      	bne.n	8002438 <HAL_ADC_PollForConversion+0xa4>
          {
            /* Update ADC state machine to timeout */
            SET_BIT(hadc->State, HAL_ADC_STATE_TIMEOUT);
 8002420:	687b      	ldr	r3, [r7, #4]
 8002422:	6a9b      	ldr	r3, [r3, #40]	@ 0x28
 8002424:	f043 0204 	orr.w	r2, r3, #4
 8002428:	687b      	ldr	r3, [r7, #4]
 800242a:	629a      	str	r2, [r3, #40]	@ 0x28
            
            /* Process unlocked */
            __HAL_UNLOCK(hadc);
 800242c:	687b      	ldr	r3, [r7, #4]
 800242e:	2200      	movs	r2, #0
 8002430:	f883 2024 	strb.w	r2, [r3, #36]	@ 0x24
            
            return HAL_TIMEOUT;
 8002434:	2303      	movs	r3, #3
 8002436:	e0a2      	b.n	800257e <HAL_ADC_PollForConversion+0x1ea>
    while(HAL_IS_BIT_CLR(hadc->Instance->SR, ADC_FLAG_EOC))
 8002438:	687b      	ldr	r3, [r7, #4]
 800243a:	681b      	ldr	r3, [r3, #0]
 800243c:	681b      	ldr	r3, [r3, #0]
 800243e:	f003 0302 	and.w	r3, r3, #2
 8002442:	2b00      	cmp	r3, #0
 8002444:	d0d6      	beq.n	80023f4 <HAL_ADC_PollForConversion+0x60>
  if (HAL_IS_BIT_CLR(hadc->Instance->CR1, ADC_CR1_SCAN) &&
 8002446:	e070      	b.n	800252a <HAL_ADC_PollForConversion+0x196>
    /* Replace polling by wait for maximum conversion time */
    /*  - Computation of CPU clock cycles corresponding to ADC clock cycles   */
    /*    and ADC maximum conversion cycles on all channels.                  */
    /*  - Wait for the expected ADC clock cycles delay                        */
    Conversion_Timeout_CPU_cycles_max = ((SystemCoreClock
                                          / HAL_RCCEx_GetPeriphCLKFreq(RCC_PERIPHCLK_ADC))
 8002448:	4b4f      	ldr	r3, [pc, #316]	@ (8002588 <HAL_ADC_PollForConversion+0x1f4>)
 800244a:	681c      	ldr	r4, [r3, #0]
 800244c:	2002      	movs	r0, #2
 800244e:	f002 f96d 	bl	800472c <HAL_RCCEx_GetPeriphCLKFreq>
 8002452:	4603      	mov	r3, r0
 8002454:	fbb4 f2f3 	udiv	r2, r4, r3
                                         * ADC_CONVCYCLES_MAX_RANGE(hadc)                 );
 8002458:	687b      	ldr	r3, [r7, #4]
 800245a:	681b      	ldr	r3, [r3, #0]
 800245c:	6919      	ldr	r1, [r3, #16]
 800245e:	4b4b      	ldr	r3, [pc, #300]	@ (800258c <HAL_ADC_PollForConversion+0x1f8>)
 8002460:	400b      	ands	r3, r1
 8002462:	2b00      	cmp	r3, #0
 8002464:	d118      	bne.n	8002498 <HAL_ADC_PollForConversion+0x104>
 8002466:	687b      	ldr	r3, [r7, #4]
 8002468:	681b      	ldr	r3, [r3, #0]
 800246a:	68d9      	ldr	r1, [r3, #12]
 800246c:	4b48      	ldr	r3, [pc, #288]	@ (8002590 <HAL_ADC_PollForConversion+0x1fc>)
 800246e:	400b      	ands	r3, r1
 8002470:	2b00      	cmp	r3, #0
 8002472:	d111      	bne.n	8002498 <HAL_ADC_PollForConversion+0x104>
 8002474:	687b      	ldr	r3, [r7, #4]
 8002476:	681b      	ldr	r3, [r3, #0]
 8002478:	6919      	ldr	r1, [r3, #16]
 800247a:	4b46      	ldr	r3, [pc, #280]	@ (8002594 <HAL_ADC_PollForConversion+0x200>)
 800247c:	400b      	ands	r3, r1
 800247e:	2b00      	cmp	r3, #0
 8002480:	d108      	bne.n	8002494 <HAL_ADC_PollForConversion+0x100>
 8002482:	687b      	ldr	r3, [r7, #4]
 8002484:	681b      	ldr	r3, [r3, #0]
 8002486:	68d9      	ldr	r1, [r3, #12]
 8002488:	4b43      	ldr	r3, [pc, #268]	@ (8002598 <HAL_ADC_PollForConversion+0x204>)
 800248a:	400b      	ands	r3, r1
 800248c:	2b00      	cmp	r3, #0
 800248e:	d101      	bne.n	8002494 <HAL_ADC_PollForConversion+0x100>
 8002490:	2314      	movs	r3, #20
 8002492:	e020      	b.n	80024d6 <HAL_ADC_PollForConversion+0x142>
 8002494:	2329      	movs	r3, #41	@ 0x29
 8002496:	e01e      	b.n	80024d6 <HAL_ADC_PollForConversion+0x142>
 8002498:	687b      	ldr	r3, [r7, #4]
 800249a:	681b      	ldr	r3, [r3, #0]
 800249c:	6919      	ldr	r1, [r3, #16]
 800249e:	4b3d      	ldr	r3, [pc, #244]	@ (8002594 <HAL_ADC_PollForConversion+0x200>)
 80024a0:	400b      	ands	r3, r1
 80024a2:	2b00      	cmp	r3, #0
 80024a4:	d106      	bne.n	80024b4 <HAL_ADC_PollForConversion+0x120>
 80024a6:	687b      	ldr	r3, [r7, #4]
 80024a8:	681b      	ldr	r3, [r3, #0]
 80024aa:	68d9      	ldr	r1, [r3, #12]
 80024ac:	4b3a      	ldr	r3, [pc, #232]	@ (8002598 <HAL_ADC_PollForConversion+0x204>)
 80024ae:	400b      	ands	r3, r1
 80024b0:	2b00      	cmp	r3, #0
 80024b2:	d00d      	beq.n	80024d0 <HAL_ADC_PollForConversion+0x13c>
 80024b4:	687b      	ldr	r3, [r7, #4]
 80024b6:	681b      	ldr	r3, [r3, #0]
 80024b8:	6919      	ldr	r1, [r3, #16]
 80024ba:	4b38      	ldr	r3, [pc, #224]	@ (800259c <HAL_ADC_PollForConversion+0x208>)
 80024bc:	400b      	ands	r3, r1
 80024be:	2b00      	cmp	r3, #0
 80024c0:	d108      	bne.n	80024d4 <HAL_ADC_PollForConversion+0x140>
 80024c2:	687b      	ldr	r3, [r7, #4]
 80024c4:	681b      	ldr	r3, [r3, #0]
 80024c6:	68d9      	ldr	r1, [r3, #12]
 80024c8:	4b34      	ldr	r3, [pc, #208]	@ (800259c <HAL_ADC_PollForConversion+0x208>)
 80024ca:	400b      	ands	r3, r1
 80024cc:	2b00      	cmp	r3, #0
 80024ce:	d101      	bne.n	80024d4 <HAL_ADC_PollForConversion+0x140>
 80024d0:	2354      	movs	r3, #84	@ 0x54
 80024d2:	e000      	b.n	80024d6 <HAL_ADC_PollForConversion+0x142>
 80024d4:	23fc      	movs	r3, #252	@ 0xfc
    Conversion_Timeout_CPU_cycles_max = ((SystemCoreClock
 80024d6:	fb02 f303 	mul.w	r3, r2, r3
 80024da:	613b      	str	r3, [r7, #16]
    
    while(Conversion_Timeout_CPU_cycles < Conversion_Timeout_CPU_cycles_max)
 80024dc:	e021      	b.n	8002522 <HAL_ADC_PollForConversion+0x18e>
    {
      /* Check if timeout is disabled (set to infinite wait) */
      if(Timeout != HAL_MAX_DELAY)
 80024de:	683b      	ldr	r3, [r7, #0]
 80024e0:	f1b3 3fff 	cmp.w	r3, #4294967295	@ 0xffffffff
 80024e4:	d01a      	beq.n	800251c <HAL_ADC_PollForConversion+0x188>
      {
        if((Timeout == 0U) || ((HAL_GetTick() - tickstart) > Timeout))
 80024e6:	683b      	ldr	r3, [r7, #0]
 80024e8:	2b00      	cmp	r3, #0
 80024ea:	d007      	beq.n	80024fc <HAL_ADC_PollForConversion+0x168>
 80024ec:	f7ff fdc2 	bl	8002074 <HAL_GetTick>
 80024f0:	4602      	mov	r2, r0
 80024f2:	697b      	ldr	r3, [r7, #20]
 80024f4:	1ad3      	subs	r3, r2, r3
 80024f6:	683a      	ldr	r2, [r7, #0]
 80024f8:	429a      	cmp	r2, r3
 80024fa:	d20f      	bcs.n	800251c <HAL_ADC_PollForConversion+0x188>
        {
          /* New check to avoid false timeout detection in case of preemption */
          if(Conversion_Timeout_CPU_cycles < Conversion_Timeout_CPU_cycles_max)
 80024fc:	68fb      	ldr	r3, [r7, #12]
 80024fe:	693a      	ldr	r2, [r7, #16]
 8002500:	429a      	cmp	r2, r3
 8002502:	d90b      	bls.n	800251c <HAL_ADC_PollForConversion+0x188>
          {
            /* Update ADC state machine to timeout */
            SET_BIT(hadc->State, HAL_ADC_STATE_TIMEOUT);
 8002504:	687b      	ldr	r3, [r7, #4]
 8002506:	6a9b      	ldr	r3, [r3, #40]	@ 0x28
 8002508:	f043 0204 	orr.w	r2, r3, #4
 800250c:	687b      	ldr	r3, [r7, #4]
 800250e:	629a      	str	r2, [r3, #40]	@ 0x28

            /* Process unlocked */
            __HAL_UNLOCK(hadc);
 8002510:	687b      	ldr	r3, [r7, #4]
 8002512:	2200      	movs	r2, #0
 8002514:	f883 2024 	strb.w	r2, [r3, #36]	@ 0x24

            return HAL_TIMEOUT;
 8002518:	2303      	movs	r3, #3
 800251a:	e030      	b.n	800257e <HAL_ADC_PollForConversion+0x1ea>
          }
        }
      }
      Conversion_Timeout_CPU_cycles ++;
 800251c:	68fb      	ldr	r3, [r7, #12]
 800251e:	3301      	adds	r3, #1
 8002520:	60fb      	str	r3, [r7, #12]
    while(Conversion_Timeout_CPU_cycles < Conversion_Timeout_CPU_cycles_max)
 8002522:	68fb      	ldr	r3, [r7, #12]
 8002524:	693a      	ldr	r2, [r7, #16]
 8002526:	429a      	cmp	r2, r3
 8002528:	d8d9      	bhi.n	80024de <HAL_ADC_PollForConversion+0x14a>
    }
  }
  
  /* Clear regular group conversion flag */
  __HAL_ADC_CLEAR_FLAG(hadc, ADC_FLAG_STRT | ADC_FLAG_EOC);
 800252a:	687b      	ldr	r3, [r7, #4]
 800252c:	681b      	ldr	r3, [r3, #0]
 800252e:	f06f 0212 	mvn.w	r2, #18
 8002532:	601a      	str	r2, [r3, #0]
  
  /* Update ADC state machine */
  SET_BIT(hadc->State, HAL_ADC_STATE_REG_EOC);
 8002534:	687b      	ldr	r3, [r7, #4]
 8002536:	6a9b      	ldr	r3, [r3, #40]	@ 0x28
 8002538:	f443 7200 	orr.w	r2, r3, #512	@ 0x200
 800253c:	687b      	ldr	r3, [r7, #4]
 800253e:	629a      	str	r2, [r3, #40]	@ 0x28
  /* Determine whether any further conversion upcoming on group regular       */
  /* by external trigger, continuous mode or scan sequence on going.          */
  /* Note: On STM32F1 devices, in case of sequencer enabled                   */
  /*       (several ranks selected), end of conversion flag is raised         */
  /*       at the end of the sequence.                                        */
  if(ADC_IS_SOFTWARE_START_REGULAR(hadc)        && 
 8002540:	687b      	ldr	r3, [r7, #4]
 8002542:	681b      	ldr	r3, [r3, #0]
 8002544:	689b      	ldr	r3, [r3, #8]
 8002546:	f403 2360 	and.w	r3, r3, #917504	@ 0xe0000
 800254a:	f5b3 2f60 	cmp.w	r3, #917504	@ 0xe0000
 800254e:	d115      	bne.n	800257c <HAL_ADC_PollForConversion+0x1e8>
     (hadc->Init.ContinuousConvMode == DISABLE)   )
 8002550:	687b      	ldr	r3, [r7, #4]
 8002552:	7b1b      	ldrb	r3, [r3, #12]
  if(ADC_IS_SOFTWARE_START_REGULAR(hadc)        && 
 8002554:	2b00      	cmp	r3, #0
 8002556:	d111      	bne.n	800257c <HAL_ADC_PollForConversion+0x1e8>
  {   
    /* Set ADC state */
    CLEAR_BIT(hadc->State, HAL_ADC_STATE_REG_BUSY);   
 8002558:	687b      	ldr	r3, [r7, #4]
 800255a:	6a9b      	ldr	r3, [r3, #40]	@ 0x28
 800255c:	f423 7280 	bic.w	r2, r3, #256	@ 0x100
 8002560:	687b      	ldr	r3, [r7, #4]
 8002562:	629a      	str	r2, [r3, #40]	@ 0x28

    if (HAL_IS_BIT_CLR(hadc->State, HAL_ADC_STATE_INJ_BUSY))
 8002564:	687b      	ldr	r3, [r7, #4]
 8002566:	6a9b      	ldr	r3, [r3, #40]	@ 0x28
 8002568:	f403 5380 	and.w	r3, r3, #4096	@ 0x1000
 800256c:	2b00      	cmp	r3, #0
 800256e:	d105      	bne.n	800257c <HAL_ADC_PollForConversion+0x1e8>
    { 
      SET_BIT(hadc->State, HAL_ADC_STATE_READY);
 8002570:	687b      	ldr	r3, [r7, #4]
 8002572:	6a9b      	ldr	r3, [r3, #40]	@ 0x28
 8002574:	f043 0201 	orr.w	r2, r3, #1
 8002578:	687b      	ldr	r3, [r7, #4]
 800257a:	629a      	str	r2, [r3, #40]	@ 0x28
    }
  }
  
  /* Return ADC state */
  return HAL_OK;
 800257c:	2300      	movs	r3, #0
}
 800257e:	4618      	mov	r0, r3
 8002580:	371c      	adds	r7, #28
 8002582:	46bd      	mov	sp, r7
 8002584:	bd90      	pop	{r4, r7, pc}
 8002586:	bf00      	nop
 8002588:	20000008 	.word	0x20000008
 800258c:	24924924 	.word	0x24924924
 8002590:	00924924 	.word	0x00924924
 8002594:	12492492 	.word	0x12492492
 8002598:	00492492 	.word	0x00492492
 800259c:	00249249 	.word	0x00249249

080025a0 <HAL_ADC_GetValue>:
  *         or @ref __HAL_ADC_CLEAR_FLAG(&hadc, ADC_FLAG_EOS).
  * @param  hadc: ADC handle
  * @retval ADC group regular conversion data
  */
uint32_t HAL_ADC_GetValue(ADC_HandleTypeDef* hadc)
{
 80025a0:	b480      	push	{r7}
 80025a2:	b083      	sub	sp, #12
 80025a4:	af00      	add	r7, sp, #0
 80025a6:	6078      	str	r0, [r7, #4]

  /* Note: EOC flag is not cleared here by software because automatically     */
  /*       cleared by hardware when reading register DR.                      */
  
  /* Return ADC converted value */ 
  return hadc->Instance->DR;
 80025a8:	687b      	ldr	r3, [r7, #4]
 80025aa:	681b      	ldr	r3, [r3, #0]
 80025ac:	6cdb      	ldr	r3, [r3, #76]	@ 0x4c
}
 80025ae:	4618      	mov	r0, r3
 80025b0:	370c      	adds	r7, #12
 80025b2:	46bd      	mov	sp, r7
 80025b4:	bc80      	pop	{r7}
 80025b6:	4770      	bx	lr

080025b8 <HAL_ADC_ConfigChannel>:
  * @param  hadc: ADC handle
  * @param  sConfig: Structure of ADC channel for regular group.
  * @retval HAL status
  */
HAL_StatusTypeDef HAL_ADC_ConfigChannel(ADC_HandleTypeDef* hadc, ADC_ChannelConfTypeDef* sConfig)
{ 
 80025b8:	b480      	push	{r7}
 80025ba:	b085      	sub	sp, #20
 80025bc:	af00      	add	r7, sp, #0
 80025be:	6078      	str	r0, [r7, #4]
 80025c0:	6039      	str	r1, [r7, #0]
  HAL_StatusTypeDef tmp_hal_status = HAL_OK;
 80025c2:	2300      	movs	r3, #0
 80025c4:	73fb      	strb	r3, [r7, #15]
  __IO uint32_t wait_loop_index = 0U;
 80025c6:	2300      	movs	r3, #0
 80025c8:	60bb      	str	r3, [r7, #8]
  assert_param(IS_ADC_CHANNEL(sConfig->Channel));
  assert_param(IS_ADC_REGULAR_RANK(sConfig->Rank));
  assert_param(IS_ADC_SAMPLE_TIME(sConfig->SamplingTime));
  
  /* Process locked */
  __HAL_LOCK(hadc);
 80025ca:	687b      	ldr	r3, [r7, #4]
 80025cc:	f893 3024 	ldrb.w	r3, [r3, #36]	@ 0x24
 80025d0:	2b01      	cmp	r3, #1
 80025d2:	d101      	bne.n	80025d8 <HAL_ADC_ConfigChannel+0x20>
 80025d4:	2302      	movs	r3, #2
 80025d6:	e0dc      	b.n	8002792 <HAL_ADC_ConfigChannel+0x1da>
 80025d8:	687b      	ldr	r3, [r7, #4]
 80025da:	2201      	movs	r2, #1
 80025dc:	f883 2024 	strb.w	r2, [r3, #36]	@ 0x24
  
  
  /* Regular sequence configuration */
  /* For Rank 1 to 6 */
  if (sConfig->Rank < 7U)
 80025e0:	683b      	ldr	r3, [r7, #0]
 80025e2:	685b      	ldr	r3, [r3, #4]
 80025e4:	2b06      	cmp	r3, #6
 80025e6:	d81c      	bhi.n	8002622 <HAL_ADC_ConfigChannel+0x6a>
  {
    MODIFY_REG(hadc->Instance->SQR3                        ,
 80025e8:	687b      	ldr	r3, [r7, #4]
 80025ea:	681b      	ldr	r3, [r3, #0]
 80025ec:	6b59      	ldr	r1, [r3, #52]	@ 0x34
 80025ee:	683b      	ldr	r3, [r7, #0]
 80025f0:	685a      	ldr	r2, [r3, #4]
 80025f2:	4613      	mov	r3, r2
 80025f4:	009b      	lsls	r3, r3, #2
 80025f6:	4413      	add	r3, r2
 80025f8:	3b05      	subs	r3, #5
 80025fa:	221f      	movs	r2, #31
 80025fc:	fa02 f303 	lsl.w	r3, r2, r3
 8002600:	43db      	mvns	r3, r3
 8002602:	4019      	ands	r1, r3
 8002604:	683b      	ldr	r3, [r7, #0]
 8002606:	6818      	ldr	r0, [r3, #0]
 8002608:	683b      	ldr	r3, [r7, #0]
 800260a:	685a      	ldr	r2, [r3, #4]
 800260c:	4613      	mov	r3, r2
 800260e:	009b      	lsls	r3, r3, #2
 8002610:	4413      	add	r3, r2
 8002612:	3b05      	subs	r3, #5
 8002614:	fa00 f203 	lsl.w	r2, r0, r3
 8002618:	687b      	ldr	r3, [r7, #4]
 800261a:	681b      	ldr	r3, [r3, #0]
 800261c:	430a      	orrs	r2, r1
 800261e:	635a      	str	r2, [r3, #52]	@ 0x34
 8002620:	e03c      	b.n	800269c <HAL_ADC_ConfigChannel+0xe4>
               ADC_SQR3_RK(ADC_SQR3_SQ1, sConfig->Rank)    ,
               ADC_SQR3_RK(sConfig->Channel, sConfig->Rank) );
  }
  /* For Rank 7 to 12 */
  else if (sConfig->Rank < 13U)
 8002622:	683b      	ldr	r3, [r7, #0]
 8002624:	685b      	ldr	r3, [r3, #4]
 8002626:	2b0c      	cmp	r3, #12
 8002628:	d81c      	bhi.n	8002664 <HAL_ADC_ConfigChannel+0xac>
  {
    MODIFY_REG(hadc->Instance->SQR2                        ,
 800262a:	687b      	ldr	r3, [r7, #4]
 800262c:	681b      	ldr	r3, [r3, #0]
 800262e:	6b19      	ldr	r1, [r3, #48]	@ 0x30
 8002630:	683b      	ldr	r3, [r7, #0]
 8002632:	685a      	ldr	r2, [r3, #4]
 8002634:	4613      	mov	r3, r2
 8002636:	009b      	lsls	r3, r3, #2
 8002638:	4413      	add	r3, r2
 800263a:	3b23      	subs	r3, #35	@ 0x23
 800263c:	221f      	movs	r2, #31
 800263e:	fa02 f303 	lsl.w	r3, r2, r3
 8002642:	43db      	mvns	r3, r3
 8002644:	4019      	ands	r1, r3
 8002646:	683b      	ldr	r3, [r7, #0]
 8002648:	6818      	ldr	r0, [r3, #0]
 800264a:	683b      	ldr	r3, [r7, #0]
 800264c:	685a      	ldr	r2, [r3, #4]
 800264e:	4613      	mov	r3, r2
 8002650:	009b      	lsls	r3, r3, #2
 8002652:	4413      	add	r3, r2
 8002654:	3b23      	subs	r3, #35	@ 0x23
 8002656:	fa00 f203 	lsl.w	r2, r0, r3
 800265a:	687b      	ldr	r3, [r7, #4]
 800265c:	681b      	ldr	r3, [r3, #0]
 800265e:	430a      	orrs	r2, r1
 8002660:	631a      	str	r2, [r3, #48]	@ 0x30
 8002662:	e01b      	b.n	800269c <HAL_ADC_ConfigChannel+0xe4>
               ADC_SQR2_RK(sConfig->Channel, sConfig->Rank) );
  }
  /* For Rank 13 to 16 */
  else
  {
    MODIFY_REG(hadc->Instance->SQR1                        ,
 8002664:	687b      	ldr	r3, [r7, #4]
 8002666:	681b      	ldr	r3, [r3, #0]
 8002668:	6ad9      	ldr	r1, [r3, #44]	@ 0x2c
 800266a:	683b      	ldr	r3, [r7, #0]
 800266c:	685a      	ldr	r2, [r3, #4]
 800266e:	4613      	mov	r3, r2
 8002670:	009b      	lsls	r3, r3, #2
 8002672:	4413      	add	r3, r2
 8002674:	3b41      	subs	r3, #65	@ 0x41
 8002676:	221f      	movs	r2, #31
 8002678:	fa02 f303 	lsl.w	r3, r2, r3
 800267c:	43db      	mvns	r3, r3
 800267e:	4019      	ands	r1, r3
 8002680:	683b      	ldr	r3, [r7, #0]
 8002682:	6818      	ldr	r0, [r3, #0]
 8002684:	683b      	ldr	r3, [r7, #0]
 8002686:	685a      	ldr	r2, [r3, #4]
 8002688:	4613      	mov	r3, r2
 800268a:	009b      	lsls	r3, r3, #2
 800268c:	4413      	add	r3, r2
 800268e:	3b41      	subs	r3, #65	@ 0x41
 8002690:	fa00 f203 	lsl.w	r2, r0, r3
 8002694:	687b      	ldr	r3, [r7, #4]
 8002696:	681b      	ldr	r3, [r3, #0]
 8002698:	430a      	orrs	r2, r1
 800269a:	62da      	str	r2, [r3, #44]	@ 0x2c
  }
  
  
  /* Channel sampling time configuration */
  /* For channels 10 to 17 */
  if (sConfig->Channel >= ADC_CHANNEL_10)
 800269c:	683b      	ldr	r3, [r7, #0]
 800269e:	681b      	ldr	r3, [r3, #0]
 80026a0:	2b09      	cmp	r3, #9
 80026a2:	d91c      	bls.n	80026de <HAL_ADC_ConfigChannel+0x126>
  {
    MODIFY_REG(hadc->Instance->SMPR1                             ,
 80026a4:	687b      	ldr	r3, [r7, #4]
 80026a6:	681b      	ldr	r3, [r3, #0]
 80026a8:	68d9      	ldr	r1, [r3, #12]
 80026aa:	683b      	ldr	r3, [r7, #0]
 80026ac:	681a      	ldr	r2, [r3, #0]
 80026ae:	4613      	mov	r3, r2
 80026b0:	005b      	lsls	r3, r3, #1
 80026b2:	4413      	add	r3, r2
 80026b4:	3b1e      	subs	r3, #30
 80026b6:	2207      	movs	r2, #7
 80026b8:	fa02 f303 	lsl.w	r3, r2, r3
 80026bc:	43db      	mvns	r3, r3
 80026be:	4019      	ands	r1, r3
 80026c0:	683b      	ldr	r3, [r7, #0]
 80026c2:	6898      	ldr	r0, [r3, #8]
 80026c4:	683b      	ldr	r3, [r7, #0]
 80026c6:	681a      	ldr	r2, [r3, #0]
 80026c8:	4613      	mov	r3, r2
 80026ca:	005b      	lsls	r3, r3, #1
 80026cc:	4413      	add	r3, r2
 80026ce:	3b1e      	subs	r3, #30
 80026d0:	fa00 f203 	lsl.w	r2, r0, r3
 80026d4:	687b      	ldr	r3, [r7, #4]
 80026d6:	681b      	ldr	r3, [r3, #0]
 80026d8:	430a      	orrs	r2, r1
 80026da:	60da      	str	r2, [r3, #12]
 80026dc:	e019      	b.n	8002712 <HAL_ADC_ConfigChannel+0x15a>
               ADC_SMPR1(ADC_SMPR1_SMP10, sConfig->Channel)      ,
               ADC_SMPR1(sConfig->SamplingTime, sConfig->Channel) );
  }
  else /* For channels 0 to 9 */
  {
    MODIFY_REG(hadc->Instance->SMPR2                             ,
 80026de:	687b      	ldr	r3, [r7, #4]
 80026e0:	681b      	ldr	r3, [r3, #0]
 80026e2:	6919      	ldr	r1, [r3, #16]
 80026e4:	683b      	ldr	r3, [r7, #0]
 80026e6:	681a      	ldr	r2, [r3, #0]
 80026e8:	4613      	mov	r3, r2
 80026ea:	005b      	lsls	r3, r3, #1
 80026ec:	4413      	add	r3, r2
 80026ee:	2207      	movs	r2, #7
 80026f0:	fa02 f303 	lsl.w	r3, r2, r3
 80026f4:	43db      	mvns	r3, r3
 80026f6:	4019      	ands	r1, r3
 80026f8:	683b      	ldr	r3, [r7, #0]
 80026fa:	6898      	ldr	r0, [r3, #8]
 80026fc:	683b      	ldr	r3, [r7, #0]
 80026fe:	681a      	ldr	r2, [r3, #0]
 8002700:	4613      	mov	r3, r2
 8002702:	005b      	lsls	r3, r3, #1
 8002704:	4413      	add	r3, r2
 8002706:	fa00 f203 	lsl.w	r2, r0, r3
 800270a:	687b      	ldr	r3, [r7, #4]
 800270c:	681b      	ldr	r3, [r3, #0]
 800270e:	430a      	orrs	r2, r1
 8002710:	611a      	str	r2, [r3, #16]
               ADC_SMPR2(sConfig->SamplingTime, sConfig->Channel) );
  }
  
  /* If ADC1 Channel_16 or Channel_17 is selected, enable Temperature sensor  */
  /* and VREFINT measurement path.                                            */
  if ((sConfig->Channel == ADC_CHANNEL_TEMPSENSOR) ||
 8002712:	683b      	ldr	r3, [r7, #0]
 8002714:	681b      	ldr	r3, [r3, #0]
 8002716:	2b10      	cmp	r3, #16
 8002718:	d003      	beq.n	8002722 <HAL_ADC_ConfigChannel+0x16a>
      (sConfig->Channel == ADC_CHANNEL_VREFINT)      )
 800271a:	683b      	ldr	r3, [r7, #0]
 800271c:	681b      	ldr	r3, [r3, #0]
  if ((sConfig->Channel == ADC_CHANNEL_TEMPSENSOR) ||
 800271e:	2b11      	cmp	r3, #17
 8002720:	d132      	bne.n	8002788 <HAL_ADC_ConfigChannel+0x1d0>
  {
    /* For STM32F1 devices with several ADC: Only ADC1 can access internal    */
    /* measurement channels (VrefInt/TempSensor). If these channels are       */
    /* intended to be set on other ADC instances, an error is reported.       */
    if (hadc->Instance == ADC1)
 8002722:	687b      	ldr	r3, [r7, #4]
 8002724:	681b      	ldr	r3, [r3, #0]
 8002726:	4a1d      	ldr	r2, [pc, #116]	@ (800279c <HAL_ADC_ConfigChannel+0x1e4>)
 8002728:	4293      	cmp	r3, r2
 800272a:	d125      	bne.n	8002778 <HAL_ADC_ConfigChannel+0x1c0>
    {
      if (READ_BIT(hadc->Instance->CR2, ADC_CR2_TSVREFE) == RESET)
 800272c:	687b      	ldr	r3, [r7, #4]
 800272e:	681b      	ldr	r3, [r3, #0]
 8002730:	689b      	ldr	r3, [r3, #8]
 8002732:	f403 0300 	and.w	r3, r3, #8388608	@ 0x800000
 8002736:	2b00      	cmp	r3, #0
 8002738:	d126      	bne.n	8002788 <HAL_ADC_ConfigChannel+0x1d0>
      {
        SET_BIT(hadc->Instance->CR2, ADC_CR2_TSVREFE);
 800273a:	687b      	ldr	r3, [r7, #4]
 800273c:	681b      	ldr	r3, [r3, #0]
 800273e:	689a      	ldr	r2, [r3, #8]
 8002740:	687b      	ldr	r3, [r7, #4]
 8002742:	681b      	ldr	r3, [r3, #0]
 8002744:	f442 0200 	orr.w	r2, r2, #8388608	@ 0x800000
 8002748:	609a      	str	r2, [r3, #8]
        
        if (sConfig->Channel == ADC_CHANNEL_TEMPSENSOR)
 800274a:	683b      	ldr	r3, [r7, #0]
 800274c:	681b      	ldr	r3, [r3, #0]
 800274e:	2b10      	cmp	r3, #16
 8002750:	d11a      	bne.n	8002788 <HAL_ADC_ConfigChannel+0x1d0>
        {
          /* Delay for temperature sensor stabilization time */
          /* Compute number of CPU cycles to wait for */
          wait_loop_index = (ADC_TEMPSENSOR_DELAY_US * (SystemCoreClock / 1000000U));
 8002752:	4b13      	ldr	r3, [pc, #76]	@ (80027a0 <HAL_ADC_ConfigChannel+0x1e8>)
 8002754:	681b      	ldr	r3, [r3, #0]
 8002756:	4a13      	ldr	r2, [pc, #76]	@ (80027a4 <HAL_ADC_ConfigChannel+0x1ec>)
 8002758:	fba2 2303 	umull	r2, r3, r2, r3
 800275c:	0c9a      	lsrs	r2, r3, #18
 800275e:	4613      	mov	r3, r2
 8002760:	009b      	lsls	r3, r3, #2
 8002762:	4413      	add	r3, r2
 8002764:	005b      	lsls	r3, r3, #1
 8002766:	60bb      	str	r3, [r7, #8]
          while(wait_loop_index != 0U)
 8002768:	e002      	b.n	8002770 <HAL_ADC_ConfigChannel+0x1b8>
          {
            wait_loop_index--;
 800276a:	68bb      	ldr	r3, [r7, #8]
 800276c:	3b01      	subs	r3, #1
 800276e:	60bb      	str	r3, [r7, #8]
          while(wait_loop_index != 0U)
 8002770:	68bb      	ldr	r3, [r7, #8]
 8002772:	2b00      	cmp	r3, #0
 8002774:	d1f9      	bne.n	800276a <HAL_ADC_ConfigChannel+0x1b2>
 8002776:	e007      	b.n	8002788 <HAL_ADC_ConfigChannel+0x1d0>
      }
    }
    else
    {
      /* Update ADC state machine to error */
      SET_BIT(hadc->State, HAL_ADC_STATE_ERROR_CONFIG);
 8002778:	687b      	ldr	r3, [r7, #4]
 800277a:	6a9b      	ldr	r3, [r3, #40]	@ 0x28
 800277c:	f043 0220 	orr.w	r2, r3, #32
 8002780:	687b      	ldr	r3, [r7, #4]
 8002782:	629a      	str	r2, [r3, #40]	@ 0x28
      
      tmp_hal_status = HAL_ERROR;
 8002784:	2301      	movs	r3, #1
 8002786:	73fb      	strb	r3, [r7, #15]
    }
  }
  
  /* Process unlocked */
  __HAL_UNLOCK(hadc);
 8002788:	687b      	ldr	r3, [r7, #4]
 800278a:	2200      	movs	r2, #0
 800278c:	f883 2024 	strb.w	r2, [r3, #36]	@ 0x24
  
  /* Return function status */
  return tmp_hal_status;
 8002790:	7bfb      	ldrb	r3, [r7, #15]
}
 8002792:	4618      	mov	r0, r3
 8002794:	3714      	adds	r7, #20
 8002796:	46bd      	mov	sp, r7
 8002798:	bc80      	pop	{r7}
 800279a:	4770      	bx	lr
 800279c:	40012400 	.word	0x40012400
 80027a0:	20000008 	.word	0x20000008
 80027a4:	431bde83 	.word	0x431bde83

080027a8 <ADC_Enable>:
  *         and voltage regulator must be enabled (done into HAL_ADC_Init()).
  * @param  hadc: ADC handle
  * @retval HAL status.
  */
HAL_StatusTypeDef ADC_Enable(ADC_HandleTypeDef* hadc)
{
 80027a8:	b580      	push	{r7, lr}
 80027aa:	b084      	sub	sp, #16
 80027ac:	af00      	add	r7, sp, #0
 80027ae:	6078      	str	r0, [r7, #4]
  uint32_t tickstart = 0U;
 80027b0:	2300      	movs	r3, #0
 80027b2:	60fb      	str	r3, [r7, #12]
  __IO uint32_t wait_loop_index = 0U;
 80027b4:	2300      	movs	r3, #0
 80027b6:	60bb      	str	r3, [r7, #8]
  
  /* ADC enable and wait for ADC ready (in case of ADC is disabled or         */
  /* enabling phase not yet completed: flag ADC ready not yet set).           */
  /* Timeout implemented to not be stuck if ADC cannot be enabled (possible   */
  /* causes: ADC clock not running, ...).                                     */
  if (ADC_IS_ENABLE(hadc) == RESET)
 80027b8:	687b      	ldr	r3, [r7, #4]
 80027ba:	681b      	ldr	r3, [r3, #0]
 80027bc:	689b      	ldr	r3, [r3, #8]
 80027be:	f003 0301 	and.w	r3, r3, #1
 80027c2:	2b01      	cmp	r3, #1
 80027c4:	d040      	beq.n	8002848 <ADC_Enable+0xa0>
  {
    /* Enable the Peripheral */
    __HAL_ADC_ENABLE(hadc);
 80027c6:	687b      	ldr	r3, [r7, #4]
 80027c8:	681b      	ldr	r3, [r3, #0]
 80027ca:	689a      	ldr	r2, [r3, #8]
 80027cc:	687b      	ldr	r3, [r7, #4]
 80027ce:	681b      	ldr	r3, [r3, #0]
 80027d0:	f042 0201 	orr.w	r2, r2, #1
 80027d4:	609a      	str	r2, [r3, #8]
    
    /* Delay for ADC stabilization time */
    /* Compute number of CPU cycles to wait for */
    wait_loop_index = (ADC_STAB_DELAY_US * (SystemCoreClock / 1000000U));
 80027d6:	4b1f      	ldr	r3, [pc, #124]	@ (8002854 <ADC_Enable+0xac>)
 80027d8:	681b      	ldr	r3, [r3, #0]
 80027da:	4a1f      	ldr	r2, [pc, #124]	@ (8002858 <ADC_Enable+0xb0>)
 80027dc:	fba2 2303 	umull	r2, r3, r2, r3
 80027e0:	0c9b      	lsrs	r3, r3, #18
 80027e2:	60bb      	str	r3, [r7, #8]
    while(wait_loop_index != 0U)
 80027e4:	e002      	b.n	80027ec <ADC_Enable+0x44>
    {
      wait_loop_index--;
 80027e6:	68bb      	ldr	r3, [r7, #8]
 80027e8:	3b01      	subs	r3, #1
 80027ea:	60bb      	str	r3, [r7, #8]
    while(wait_loop_index != 0U)
 80027ec:	68bb      	ldr	r3, [r7, #8]
 80027ee:	2b00      	cmp	r3, #0
 80027f0:	d1f9      	bne.n	80027e6 <ADC_Enable+0x3e>
    }
    
    /* Get tick count */
    tickstart = HAL_GetTick();
 80027f2:	f7ff fc3f 	bl	8002074 <HAL_GetTick>
 80027f6:	60f8      	str	r0, [r7, #12]

    /* Wait for ADC effectively enabled */
    while(ADC_IS_ENABLE(hadc) == RESET)
 80027f8:	e01f      	b.n	800283a <ADC_Enable+0x92>
    {
      if((HAL_GetTick() - tickstart) > ADC_ENABLE_TIMEOUT)
 80027fa:	f7ff fc3b 	bl	8002074 <HAL_GetTick>
 80027fe:	4602      	mov	r2, r0
 8002800:	68fb      	ldr	r3, [r7, #12]
 8002802:	1ad3      	subs	r3, r2, r3
 8002804:	2b02      	cmp	r3, #2
 8002806:	d918      	bls.n	800283a <ADC_Enable+0x92>
      {
        /* New check to avoid false timeout detection in case of preemption */
        if(ADC_IS_ENABLE(hadc) == RESET)
 8002808:	687b      	ldr	r3, [r7, #4]
 800280a:	681b      	ldr	r3, [r3, #0]
 800280c:	689b      	ldr	r3, [r3, #8]
 800280e:	f003 0301 	and.w	r3, r3, #1
 8002812:	2b01      	cmp	r3, #1
 8002814:	d011      	beq.n	800283a <ADC_Enable+0x92>
        {
          /* Update ADC state machine to error */
          SET_BIT(hadc->State, HAL_ADC_STATE_ERROR_INTERNAL);
 8002816:	687b      	ldr	r3, [r7, #4]
 8002818:	6a9b      	ldr	r3, [r3, #40]	@ 0x28
 800281a:	f043 0210 	orr.w	r2, r3, #16
 800281e:	687b      	ldr	r3, [r7, #4]
 8002820:	629a      	str	r2, [r3, #40]	@ 0x28

          /* Set ADC error code to ADC IP internal error */
          SET_BIT(hadc->ErrorCode, HAL_ADC_ERROR_INTERNAL);
 8002822:	687b      	ldr	r3, [r7, #4]
 8002824:	6adb      	ldr	r3, [r3, #44]	@ 0x2c
 8002826:	f043 0201 	orr.w	r2, r3, #1
 800282a:	687b      	ldr	r3, [r7, #4]
 800282c:	62da      	str	r2, [r3, #44]	@ 0x2c

          /* Process unlocked */
          __HAL_UNLOCK(hadc);
 800282e:	687b      	ldr	r3, [r7, #4]
 8002830:	2200      	movs	r2, #0
 8002832:	f883 2024 	strb.w	r2, [r3, #36]	@ 0x24

          return HAL_ERROR;
 8002836:	2301      	movs	r3, #1
 8002838:	e007      	b.n	800284a <ADC_Enable+0xa2>
    while(ADC_IS_ENABLE(hadc) == RESET)
 800283a:	687b      	ldr	r3, [r7, #4]
 800283c:	681b      	ldr	r3, [r3, #0]
 800283e:	689b      	ldr	r3, [r3, #8]
 8002840:	f003 0301 	and.w	r3, r3, #1
 8002844:	2b01      	cmp	r3, #1
 8002846:	d1d8      	bne.n	80027fa <ADC_Enable+0x52>
      }
    }
  }
   
  /* Return HAL status */
  return HAL_OK;
 8002848:	2300      	movs	r3, #0
}
 800284a:	4618      	mov	r0, r3
 800284c:	3710      	adds	r7, #16
 800284e:	46bd      	mov	sp, r7
 8002850:	bd80      	pop	{r7, pc}
 8002852:	bf00      	nop
 8002854:	20000008 	.word	0x20000008
 8002858:	431bde83 	.word	0x431bde83

0800285c <ADC_ConversionStop_Disable>:
  *         stopped to disable the ADC.
  * @param  hadc: ADC handle
  * @retval HAL status.
  */
HAL_StatusTypeDef ADC_ConversionStop_Disable(ADC_HandleTypeDef* hadc)
{
 800285c:	b580      	push	{r7, lr}
 800285e:	b084      	sub	sp, #16
 8002860:	af00      	add	r7, sp, #0
 8002862:	6078      	str	r0, [r7, #4]
  uint32_t tickstart = 0U;
 8002864:	2300      	movs	r3, #0
 8002866:	60fb      	str	r3, [r7, #12]
  
  /* Verification if ADC is not already disabled */
  if (ADC_IS_ENABLE(hadc) != RESET)
 8002868:	687b      	ldr	r3, [r7, #4]
 800286a:	681b      	ldr	r3, [r3, #0]
 800286c:	689b      	ldr	r3, [r3, #8]
 800286e:	f003 0301 	and.w	r3, r3, #1
 8002872:	2b01      	cmp	r3, #1
 8002874:	d12e      	bne.n	80028d4 <ADC_ConversionStop_Disable+0x78>
  {
    /* Disable the ADC peripheral */
    __HAL_ADC_DISABLE(hadc);
 8002876:	687b      	ldr	r3, [r7, #4]
 8002878:	681b      	ldr	r3, [r3, #0]
 800287a:	689a      	ldr	r2, [r3, #8]
 800287c:	687b      	ldr	r3, [r7, #4]
 800287e:	681b      	ldr	r3, [r3, #0]
 8002880:	f022 0201 	bic.w	r2, r2, #1
 8002884:	609a      	str	r2, [r3, #8]
     
    /* Get tick count */
    tickstart = HAL_GetTick();
 8002886:	f7ff fbf5 	bl	8002074 <HAL_GetTick>
 800288a:	60f8      	str	r0, [r7, #12]
    
    /* Wait for ADC effectively disabled */
    while(ADC_IS_ENABLE(hadc) != RESET)
 800288c:	e01b      	b.n	80028c6 <ADC_ConversionStop_Disable+0x6a>
    {
      if((HAL_GetTick() - tickstart) > ADC_DISABLE_TIMEOUT)
 800288e:	f7ff fbf1 	bl	8002074 <HAL_GetTick>
 8002892:	4602      	mov	r2, r0
 8002894:	68fb      	ldr	r3, [r7, #12]
 8002896:	1ad3      	subs	r3, r2, r3
 8002898:	2b02      	cmp	r3, #2
 800289a:	d914      	bls.n	80028c6 <ADC_ConversionStop_Disable+0x6a>
      {
        /* New check to avoid false timeout detection in case of preemption */
        if(ADC_IS_ENABLE(hadc) != RESET)
 800289c:	687b      	ldr	r3, [r7, #4]
 800289e:	681b      	ldr	r3, [r3, #0]
 80028a0:	689b      	ldr	r3, [r3, #8]
 80028a2:	f003 0301 	and.w	r3, r3, #1
 80028a6:	2b01      	cmp	r3, #1
 80028a8:	d10d      	bne.n	80028c6 <ADC_ConversionStop_Disable+0x6a>
        {
          /* Update ADC state machine to error */
          SET_BIT(hadc->State, HAL_ADC_STATE_ERROR_INTERNAL);
 80028aa:	687b      	ldr	r3, [r7, #4]
 80028ac:	6a9b      	ldr	r3, [r3, #40]	@ 0x28
 80028ae:	f043 0210 	orr.w	r2, r3, #16
 80028b2:	687b      	ldr	r3, [r7, #4]
 80028b4:	629a      	str	r2, [r3, #40]	@ 0x28

          /* Set ADC error code to ADC IP internal error */
          SET_BIT(hadc->ErrorCode, HAL_ADC_ERROR_INTERNAL);
 80028b6:	687b      	ldr	r3, [r7, #4]
 80028b8:	6adb      	ldr	r3, [r3, #44]	@ 0x2c
 80028ba:	f043 0201 	orr.w	r2, r3, #1
 80028be:	687b      	ldr	r3, [r7, #4]
 80028c0:	62da      	str	r2, [r3, #44]	@ 0x2c

          return HAL_ERROR;
 80028c2:	2301      	movs	r3, #1
 80028c4:	e007      	b.n	80028d6 <ADC_ConversionStop_Disable+0x7a>
    while(ADC_IS_ENABLE(hadc) != RESET)
 80028c6:	687b      	ldr	r3, [r7, #4]
 80028c8:	681b      	ldr	r3, [r3, #0]
 80028ca:	689b      	ldr	r3, [r3, #8]
 80028cc:	f003 0301 	and.w	r3, r3, #1
 80028d0:	2b01      	cmp	r3, #1
 80028d2:	d0dc      	beq.n	800288e <ADC_ConversionStop_Disable+0x32>
      }
    }
  }
  
  /* Return HAL status */
  return HAL_OK;
 80028d4:	2300      	movs	r3, #0
}
 80028d6:	4618      	mov	r0, r3
 80028d8:	3710      	adds	r7, #16
 80028da:	46bd      	mov	sp, r7
 80028dc:	bd80      	pop	{r7, pc}
	...

080028e0 <__NVIC_SetPriorityGrouping>:
           In case of a conflict between priority grouping and available
           priority bits (__NVIC_PRIO_BITS), the smallest possible priority group is set.
  \param [in]      PriorityGroup  Priority grouping field.
 */
__STATIC_INLINE void __NVIC_SetPriorityGrouping(uint32_t PriorityGroup)
{
 80028e0:	b480      	push	{r7}
 80028e2:	b085      	sub	sp, #20
 80028e4:	af00      	add	r7, sp, #0
 80028e6:	6078      	str	r0, [r7, #4]
  uint32_t reg_value;
  uint32_t PriorityGroupTmp = (PriorityGroup & (uint32_t)0x07UL);             /* only values 0..7 are used          */
 80028e8:	687b      	ldr	r3, [r7, #4]
 80028ea:	f003 0307 	and.w	r3, r3, #7
 80028ee:	60fb      	str	r3, [r7, #12]

  reg_value  =  SCB->AIRCR;                                                   /* read old register configuration    */
 80028f0:	4b0c      	ldr	r3, [pc, #48]	@ (8002924 <__NVIC_SetPriorityGrouping+0x44>)
 80028f2:	68db      	ldr	r3, [r3, #12]
 80028f4:	60bb      	str	r3, [r7, #8]
  reg_value &= ~((uint32_t)(SCB_AIRCR_VECTKEY_Msk | SCB_AIRCR_PRIGROUP_Msk)); /* clear bits to change               */
 80028f6:	68ba      	ldr	r2, [r7, #8]
 80028f8:	f64f 03ff 	movw	r3, #63743	@ 0xf8ff
 80028fc:	4013      	ands	r3, r2
 80028fe:	60bb      	str	r3, [r7, #8]
  reg_value  =  (reg_value                                   |
                ((uint32_t)0x5FAUL << SCB_AIRCR_VECTKEY_Pos) |
                (PriorityGroupTmp << SCB_AIRCR_PRIGROUP_Pos) );               /* Insert write key and priority group */
 8002900:	68fb      	ldr	r3, [r7, #12]
 8002902:	021a      	lsls	r2, r3, #8
                ((uint32_t)0x5FAUL << SCB_AIRCR_VECTKEY_Pos) |
 8002904:	68bb      	ldr	r3, [r7, #8]
 8002906:	4313      	orrs	r3, r2
  reg_value  =  (reg_value                                   |
 8002908:	f043 63bf 	orr.w	r3, r3, #100139008	@ 0x5f80000
 800290c:	f443 3300 	orr.w	r3, r3, #131072	@ 0x20000
 8002910:	60bb      	str	r3, [r7, #8]
  SCB->AIRCR =  reg_value;
 8002912:	4a04      	ldr	r2, [pc, #16]	@ (8002924 <__NVIC_SetPriorityGrouping+0x44>)
 8002914:	68bb      	ldr	r3, [r7, #8]
 8002916:	60d3      	str	r3, [r2, #12]
}
 8002918:	bf00      	nop
 800291a:	3714      	adds	r7, #20
 800291c:	46bd      	mov	sp, r7
 800291e:	bc80      	pop	{r7}
 8002920:	4770      	bx	lr
 8002922:	bf00      	nop
 8002924:	e000ed00 	.word	0xe000ed00

08002928 <__NVIC_GetPriorityGrouping>:
  \brief   Get Priority Grouping
  \details Reads the priority grouping field from the NVIC Interrupt Controller.
  \return                Priority grouping field (SCB->AIRCR [10:8] PRIGROUP field).
 */
__STATIC_INLINE uint32_t __NVIC_GetPriorityGrouping(void)
{
 8002928:	b480      	push	{r7}
 800292a:	af00      	add	r7, sp, #0
  return ((uint32_t)((SCB->AIRCR & SCB_AIRCR_PRIGROUP_Msk) >> SCB_AIRCR_PRIGROUP_Pos));
 800292c:	4b04      	ldr	r3, [pc, #16]	@ (8002940 <__NVIC_GetPriorityGrouping+0x18>)
 800292e:	68db      	ldr	r3, [r3, #12]
 8002930:	0a1b      	lsrs	r3, r3, #8
 8002932:	f003 0307 	and.w	r3, r3, #7
}
 8002936:	4618      	mov	r0, r3
 8002938:	46bd      	mov	sp, r7
 800293a:	bc80      	pop	{r7}
 800293c:	4770      	bx	lr
 800293e:	bf00      	nop
 8002940:	e000ed00 	.word	0xe000ed00

08002944 <__NVIC_EnableIRQ>:
  \details Enables a device specific interrupt in the NVIC interrupt controller.
  \param [in]      IRQn  Device specific interrupt number.
  \note    IRQn must not be negative.
 */
__STATIC_INLINE void __NVIC_EnableIRQ(IRQn_Type IRQn)
{
 8002944:	b480      	push	{r7}
 8002946:	b083      	sub	sp, #12
 8002948:	af00      	add	r7, sp, #0
 800294a:	4603      	mov	r3, r0
 800294c:	71fb      	strb	r3, [r7, #7]
  if ((int32_t)(IRQn) >= 0)
 800294e:	f997 3007 	ldrsb.w	r3, [r7, #7]
 8002952:	2b00      	cmp	r3, #0
 8002954:	db0b      	blt.n	800296e <__NVIC_EnableIRQ+0x2a>
  {
    NVIC->ISER[(((uint32_t)IRQn) >> 5UL)] = (uint32_t)(1UL << (((uint32_t)IRQn) & 0x1FUL));
 8002956:	79fb      	ldrb	r3, [r7, #7]
 8002958:	f003 021f 	and.w	r2, r3, #31
 800295c:	4906      	ldr	r1, [pc, #24]	@ (8002978 <__NVIC_EnableIRQ+0x34>)
 800295e:	f997 3007 	ldrsb.w	r3, [r7, #7]
 8002962:	095b      	lsrs	r3, r3, #5
 8002964:	2001      	movs	r0, #1
 8002966:	fa00 f202 	lsl.w	r2, r0, r2
 800296a:	f841 2023 	str.w	r2, [r1, r3, lsl #2]
  }
}
 800296e:	bf00      	nop
 8002970:	370c      	adds	r7, #12
 8002972:	46bd      	mov	sp, r7
 8002974:	bc80      	pop	{r7}
 8002976:	4770      	bx	lr
 8002978:	e000e100 	.word	0xe000e100

0800297c <__NVIC_SetPriority>:
  \param [in]      IRQn  Interrupt number.
  \param [in]  priority  Priority to set.
  \note    The priority cannot be set for every processor exception.
 */
__STATIC_INLINE void __NVIC_SetPriority(IRQn_Type IRQn, uint32_t priority)
{
 800297c:	b480      	push	{r7}
 800297e:	b083      	sub	sp, #12
 8002980:	af00      	add	r7, sp, #0
 8002982:	4603      	mov	r3, r0
 8002984:	6039      	str	r1, [r7, #0]
 8002986:	71fb      	strb	r3, [r7, #7]
  if ((int32_t)(IRQn) >= 0)
 8002988:	f997 3007 	ldrsb.w	r3, [r7, #7]
 800298c:	2b00      	cmp	r3, #0
 800298e:	db0a      	blt.n	80029a6 <__NVIC_SetPriority+0x2a>
  {
    NVIC->IP[((uint32_t)IRQn)]               = (uint8_t)((priority << (8U - __NVIC_PRIO_BITS)) & (uint32_t)0xFFUL);
 8002990:	683b      	ldr	r3, [r7, #0]
 8002992:	b2da      	uxtb	r2, r3
 8002994:	490c      	ldr	r1, [pc, #48]	@ (80029c8 <__NVIC_SetPriority+0x4c>)
 8002996:	f997 3007 	ldrsb.w	r3, [r7, #7]
 800299a:	0112      	lsls	r2, r2, #4
 800299c:	b2d2      	uxtb	r2, r2
 800299e:	440b      	add	r3, r1
 80029a0:	f883 2300 	strb.w	r2, [r3, #768]	@ 0x300
  }
  else
  {
    SCB->SHP[(((uint32_t)IRQn) & 0xFUL)-4UL] = (uint8_t)((priority << (8U - __NVIC_PRIO_BITS)) & (uint32_t)0xFFUL);
  }
}
 80029a4:	e00a      	b.n	80029bc <__NVIC_SetPriority+0x40>
    SCB->SHP[(((uint32_t)IRQn) & 0xFUL)-4UL] = (uint8_t)((priority << (8U - __NVIC_PRIO_BITS)) & (uint32_t)0xFFUL);
 80029a6:	683b      	ldr	r3, [r7, #0]
 80029a8:	b2da      	uxtb	r2, r3
 80029aa:	4908      	ldr	r1, [pc, #32]	@ (80029cc <__NVIC_SetPriority+0x50>)
 80029ac:	79fb      	ldrb	r3, [r7, #7]
 80029ae:	f003 030f 	and.w	r3, r3, #15
 80029b2:	3b04      	subs	r3, #4
 80029b4:	0112      	lsls	r2, r2, #4
 80029b6:	b2d2      	uxtb	r2, r2
 80029b8:	440b      	add	r3, r1
 80029ba:	761a      	strb	r2, [r3, #24]
}
 80029bc:	bf00      	nop
 80029be:	370c      	adds	r7, #12
 80029c0:	46bd      	mov	sp, r7
 80029c2:	bc80      	pop	{r7}
 80029c4:	4770      	bx	lr
 80029c6:	bf00      	nop
 80029c8:	e000e100 	.word	0xe000e100
 80029cc:	e000ed00 	.word	0xe000ed00

080029d0 <NVIC_EncodePriority>:
  \param [in]   PreemptPriority  Preemptive priority value (starting from 0).
  \param [in]       SubPriority  Subpriority value (starting from 0).
  \return                        Encoded priority. Value can be used in the function \ref NVIC_SetPriority().
 */
__STATIC_INLINE uint32_t NVIC_EncodePriority (uint32_t PriorityGroup, uint32_t PreemptPriority, uint32_t SubPriority)
{
 80029d0:	b480      	push	{r7}
 80029d2:	b089      	sub	sp, #36	@ 0x24
 80029d4:	af00      	add	r7, sp, #0
 80029d6:	60f8      	str	r0, [r7, #12]
 80029d8:	60b9      	str	r1, [r7, #8]
 80029da:	607a      	str	r2, [r7, #4]
  uint32_t PriorityGroupTmp = (PriorityGroup & (uint32_t)0x07UL);   /* only values 0..7 are used          */
 80029dc:	68fb      	ldr	r3, [r7, #12]
 80029de:	f003 0307 	and.w	r3, r3, #7
 80029e2:	61fb      	str	r3, [r7, #28]
  uint32_t PreemptPriorityBits;
  uint32_t SubPriorityBits;

  PreemptPriorityBits = ((7UL - PriorityGroupTmp) > (uint32_t)(__NVIC_PRIO_BITS)) ? (uint32_t)(__NVIC_PRIO_BITS) : (uint32_t)(7UL - PriorityGroupTmp);
 80029e4:	69fb      	ldr	r3, [r7, #28]
 80029e6:	f1c3 0307 	rsb	r3, r3, #7
 80029ea:	2b04      	cmp	r3, #4
 80029ec:	bf28      	it	cs
 80029ee:	2304      	movcs	r3, #4
 80029f0:	61bb      	str	r3, [r7, #24]
  SubPriorityBits     = ((PriorityGroupTmp + (uint32_t)(__NVIC_PRIO_BITS)) < (uint32_t)7UL) ? (uint32_t)0UL : (uint32_t)((PriorityGroupTmp - 7UL) + (uint32_t)(__NVIC_PRIO_BITS));
 80029f2:	69fb      	ldr	r3, [r7, #28]
 80029f4:	3304      	adds	r3, #4
 80029f6:	2b06      	cmp	r3, #6
 80029f8:	d902      	bls.n	8002a00 <NVIC_EncodePriority+0x30>
 80029fa:	69fb      	ldr	r3, [r7, #28]
 80029fc:	3b03      	subs	r3, #3
 80029fe:	e000      	b.n	8002a02 <NVIC_EncodePriority+0x32>
 8002a00:	2300      	movs	r3, #0
 8002a02:	617b      	str	r3, [r7, #20]

  return (
           ((PreemptPriority & (uint32_t)((1UL << (PreemptPriorityBits)) - 1UL)) << SubPriorityBits) |
 8002a04:	f04f 32ff 	mov.w	r2, #4294967295	@ 0xffffffff
 8002a08:	69bb      	ldr	r3, [r7, #24]
 8002a0a:	fa02 f303 	lsl.w	r3, r2, r3
 8002a0e:	43da      	mvns	r2, r3
 8002a10:	68bb      	ldr	r3, [r7, #8]
 8002a12:	401a      	ands	r2, r3
 8002a14:	697b      	ldr	r3, [r7, #20]
 8002a16:	409a      	lsls	r2, r3
           ((SubPriority     & (uint32_t)((1UL << (SubPriorityBits    )) - 1UL)))
 8002a18:	f04f 31ff 	mov.w	r1, #4294967295	@ 0xffffffff
 8002a1c:	697b      	ldr	r3, [r7, #20]
 8002a1e:	fa01 f303 	lsl.w	r3, r1, r3
 8002a22:	43d9      	mvns	r1, r3
 8002a24:	687b      	ldr	r3, [r7, #4]
 8002a26:	400b      	ands	r3, r1
           ((PreemptPriority & (uint32_t)((1UL << (PreemptPriorityBits)) - 1UL)) << SubPriorityBits) |
 8002a28:	4313      	orrs	r3, r2
         );
}
 8002a2a:	4618      	mov	r0, r3
 8002a2c:	3724      	adds	r7, #36	@ 0x24
 8002a2e:	46bd      	mov	sp, r7
 8002a30:	bc80      	pop	{r7}
 8002a32:	4770      	bx	lr

08002a34 <HAL_NVIC_SetPriorityGrouping>:
  * @note   When the NVIC_PriorityGroup_0 is selected, IRQ preemption is no more possible. 
  *         The pending IRQ priority will be managed only by the subpriority. 
  * @retval None
  */
void HAL_NVIC_SetPriorityGrouping(uint32_t PriorityGroup)
{
 8002a34:	b580      	push	{r7, lr}
 8002a36:	b082      	sub	sp, #8
 8002a38:	af00      	add	r7, sp, #0
 8002a3a:	6078      	str	r0, [r7, #4]
  /* Check the parameters */
  assert_param(IS_NVIC_PRIORITY_GROUP(PriorityGroup));
  
  /* Set the PRIGROUP[10:8] bits according to the PriorityGroup parameter value */
  NVIC_SetPriorityGrouping(PriorityGroup);
 8002a3c:	6878      	ldr	r0, [r7, #4]
 8002a3e:	f7ff ff4f 	bl	80028e0 <__NVIC_SetPriorityGrouping>
}
 8002a42:	bf00      	nop
 8002a44:	3708      	adds	r7, #8
 8002a46:	46bd      	mov	sp, r7
 8002a48:	bd80      	pop	{r7, pc}

08002a4a <HAL_NVIC_SetPriority>:
  *         This parameter can be a value between 0 and 15
  *         A lower priority value indicates a higher priority.          
  * @retval None
  */
void HAL_NVIC_SetPriority(IRQn_Type IRQn, uint32_t PreemptPriority, uint32_t SubPriority)
{ 
 8002a4a:	b580      	push	{r7, lr}
 8002a4c:	b086      	sub	sp, #24
 8002a4e:	af00      	add	r7, sp, #0
 8002a50:	4603      	mov	r3, r0
 8002a52:	60b9      	str	r1, [r7, #8]
 8002a54:	607a      	str	r2, [r7, #4]
 8002a56:	73fb      	strb	r3, [r7, #15]
  uint32_t prioritygroup = 0x00U;
 8002a58:	2300      	movs	r3, #0
 8002a5a:	617b      	str	r3, [r7, #20]
  
  /* Check the parameters */
  assert_param(IS_NVIC_SUB_PRIORITY(SubPriority));
  assert_param(IS_NVIC_PREEMPTION_PRIORITY(PreemptPriority));
  
  prioritygroup = NVIC_GetPriorityGrouping();
 8002a5c:	f7ff ff64 	bl	8002928 <__NVIC_GetPriorityGrouping>
 8002a60:	6178      	str	r0, [r7, #20]
  
  NVIC_SetPriority(IRQn, NVIC_EncodePriority(prioritygroup, PreemptPriority, SubPriority));
 8002a62:	687a      	ldr	r2, [r7, #4]
 8002a64:	68b9      	ldr	r1, [r7, #8]
 8002a66:	6978      	ldr	r0, [r7, #20]
 8002a68:	f7ff ffb2 	bl	80029d0 <NVIC_EncodePriority>
 8002a6c:	4602      	mov	r2, r0
 8002a6e:	f997 300f 	ldrsb.w	r3, [r7, #15]
 8002a72:	4611      	mov	r1, r2
 8002a74:	4618      	mov	r0, r3
 8002a76:	f7ff ff81 	bl	800297c <__NVIC_SetPriority>
}
 8002a7a:	bf00      	nop
 8002a7c:	3718      	adds	r7, #24
 8002a7e:	46bd      	mov	sp, r7
 8002a80:	bd80      	pop	{r7, pc}

08002a82 <HAL_NVIC_EnableIRQ>:
  *         This parameter can be an enumerator of IRQn_Type enumeration
  *         (For the complete STM32 Devices IRQ Channels list, please refer to the appropriate CMSIS device file (stm32f10xxx.h))
  * @retval None
  */
void HAL_NVIC_EnableIRQ(IRQn_Type IRQn)
{
 8002a82:	b580      	push	{r7, lr}
 8002a84:	b082      	sub	sp, #8
 8002a86:	af00      	add	r7, sp, #0
 8002a88:	4603      	mov	r3, r0
 8002a8a:	71fb      	strb	r3, [r7, #7]
  /* Check the parameters */
  assert_param(IS_NVIC_DEVICE_IRQ(IRQn));

  /* Enable interrupt */
  NVIC_EnableIRQ(IRQn);
 8002a8c:	f997 3007 	ldrsb.w	r3, [r7, #7]
 8002a90:	4618      	mov	r0, r3
 8002a92:	f7ff ff57 	bl	8002944 <__NVIC_EnableIRQ>
}
 8002a96:	bf00      	nop
 8002a98:	3708      	adds	r7, #8
 8002a9a:	46bd      	mov	sp, r7
 8002a9c:	bd80      	pop	{r7, pc}
	...

08002aa0 <HAL_GPIO_Init>:
  * @param  GPIO_Init: pointer to a GPIO_InitTypeDef structure that contains
  *         the configuration information for the specified GPIO peripheral.
  * @retval None
  */
void HAL_GPIO_Init(GPIO_TypeDef  *GPIOx, GPIO_InitTypeDef *GPIO_Init)
{
 8002aa0:	b480      	push	{r7}
 8002aa2:	b08b      	sub	sp, #44	@ 0x2c
 8002aa4:	af00      	add	r7, sp, #0
 8002aa6:	6078      	str	r0, [r7, #4]
 8002aa8:	6039      	str	r1, [r7, #0]
  uint32_t position = 0x00u;
 8002aaa:	2300      	movs	r3, #0
 8002aac:	627b      	str	r3, [r7, #36]	@ 0x24
  uint32_t ioposition;
  uint32_t iocurrent;
  uint32_t temp;
  uint32_t config = 0x00u;
 8002aae:	2300      	movs	r3, #0
 8002ab0:	623b      	str	r3, [r7, #32]
  assert_param(IS_GPIO_ALL_INSTANCE(GPIOx));
  assert_param(IS_GPIO_PIN(GPIO_Init->Pin));
  assert_param(IS_GPIO_MODE(GPIO_Init->Mode));

  /* Configure the port pins */
  while (((GPIO_Init->Pin) >> position) != 0x00u)
 8002ab2:	e161      	b.n	8002d78 <HAL_GPIO_Init+0x2d8>
  {
    /* Get the IO position */
    ioposition = (0x01uL << position);
 8002ab4:	2201      	movs	r2, #1
 8002ab6:	6a7b      	ldr	r3, [r7, #36]	@ 0x24
 8002ab8:	fa02 f303 	lsl.w	r3, r2, r3
 8002abc:	61fb      	str	r3, [r7, #28]

    /* Get the current IO position */
    iocurrent = (uint32_t)(GPIO_Init->Pin) & ioposition;
 8002abe:	683b      	ldr	r3, [r7, #0]
 8002ac0:	681b      	ldr	r3, [r3, #0]
 8002ac2:	69fa      	ldr	r2, [r7, #28]
 8002ac4:	4013      	ands	r3, r2
 8002ac6:	61bb      	str	r3, [r7, #24]

    if (iocurrent == ioposition)
 8002ac8:	69ba      	ldr	r2, [r7, #24]
 8002aca:	69fb      	ldr	r3, [r7, #28]
 8002acc:	429a      	cmp	r2, r3
 8002ace:	f040 8150 	bne.w	8002d72 <HAL_GPIO_Init+0x2d2>
    {
      /* Check the Alternate function parameters */
      assert_param(IS_GPIO_AF_INSTANCE(GPIOx));

      /* Based on the required mode, filling config variable with MODEy[1:0] and CNFy[3:2] corresponding bits */
      switch (GPIO_Init->Mode)
 8002ad2:	683b      	ldr	r3, [r7, #0]
 8002ad4:	685b      	ldr	r3, [r3, #4]
 8002ad6:	4a97      	ldr	r2, [pc, #604]	@ (8002d34 <HAL_GPIO_Init+0x294>)
 8002ad8:	4293      	cmp	r3, r2
 8002ada:	d05e      	beq.n	8002b9a <HAL_GPIO_Init+0xfa>
 8002adc:	4a95      	ldr	r2, [pc, #596]	@ (8002d34 <HAL_GPIO_Init+0x294>)
 8002ade:	4293      	cmp	r3, r2
 8002ae0:	d875      	bhi.n	8002bce <HAL_GPIO_Init+0x12e>
 8002ae2:	4a95      	ldr	r2, [pc, #596]	@ (8002d38 <HAL_GPIO_Init+0x298>)
 8002ae4:	4293      	cmp	r3, r2
 8002ae6:	d058      	beq.n	8002b9a <HAL_GPIO_Init+0xfa>
 8002ae8:	4a93      	ldr	r2, [pc, #588]	@ (8002d38 <HAL_GPIO_Init+0x298>)
 8002aea:	4293      	cmp	r3, r2
 8002aec:	d86f      	bhi.n	8002bce <HAL_GPIO_Init+0x12e>
 8002aee:	4a93      	ldr	r2, [pc, #588]	@ (8002d3c <HAL_GPIO_Init+0x29c>)
 8002af0:	4293      	cmp	r3, r2
 8002af2:	d052      	beq.n	8002b9a <HAL_GPIO_Init+0xfa>
 8002af4:	4a91      	ldr	r2, [pc, #580]	@ (8002d3c <HAL_GPIO_Init+0x29c>)
 8002af6:	4293      	cmp	r3, r2
 8002af8:	d869      	bhi.n	8002bce <HAL_GPIO_Init+0x12e>
 8002afa:	4a91      	ldr	r2, [pc, #580]	@ (8002d40 <HAL_GPIO_Init+0x2a0>)
 8002afc:	4293      	cmp	r3, r2
 8002afe:	d04c      	beq.n	8002b9a <HAL_GPIO_Init+0xfa>
 8002b00:	4a8f      	ldr	r2, [pc, #572]	@ (8002d40 <HAL_GPIO_Init+0x2a0>)
 8002b02:	4293      	cmp	r3, r2
 8002b04:	d863      	bhi.n	8002bce <HAL_GPIO_Init+0x12e>
 8002b06:	4a8f      	ldr	r2, [pc, #572]	@ (8002d44 <HAL_GPIO_Init+0x2a4>)
 8002b08:	4293      	cmp	r3, r2
 8002b0a:	d046      	beq.n	8002b9a <HAL_GPIO_Init+0xfa>
 8002b0c:	4a8d      	ldr	r2, [pc, #564]	@ (8002d44 <HAL_GPIO_Init+0x2a4>)
 8002b0e:	4293      	cmp	r3, r2
 8002b10:	d85d      	bhi.n	8002bce <HAL_GPIO_Init+0x12e>
 8002b12:	2b12      	cmp	r3, #18
 8002b14:	d82a      	bhi.n	8002b6c <HAL_GPIO_Init+0xcc>
 8002b16:	2b12      	cmp	r3, #18
 8002b18:	d859      	bhi.n	8002bce <HAL_GPIO_Init+0x12e>
 8002b1a:	a201      	add	r2, pc, #4	@ (adr r2, 8002b20 <HAL_GPIO_Init+0x80>)
 8002b1c:	f852 f023 	ldr.w	pc, [r2, r3, lsl #2]
 8002b20:	08002b9b 	.word	0x08002b9b
 8002b24:	08002b75 	.word	0x08002b75
 8002b28:	08002b87 	.word	0x08002b87
 8002b2c:	08002bc9 	.word	0x08002bc9
 8002b30:	08002bcf 	.word	0x08002bcf
 8002b34:	08002bcf 	.word	0x08002bcf
 8002b38:	08002bcf 	.word	0x08002bcf
 8002b3c:	08002bcf 	.word	0x08002bcf
 8002b40:	08002bcf 	.word	0x08002bcf
 8002b44:	08002bcf 	.word	0x08002bcf
 8002b48:	08002bcf 	.word	0x08002bcf
 8002b4c:	08002bcf 	.word	0x08002bcf
 8002b50:	08002bcf 	.word	0x08002bcf
 8002b54:	08002bcf 	.word	0x08002bcf
 8002b58:	08002bcf 	.word	0x08002bcf
 8002b5c:	08002bcf 	.word	0x08002bcf
 8002b60:	08002bcf 	.word	0x08002bcf
 8002b64:	08002b7d 	.word	0x08002b7d
 8002b68:	08002b91 	.word	0x08002b91
 8002b6c:	4a76      	ldr	r2, [pc, #472]	@ (8002d48 <HAL_GPIO_Init+0x2a8>)
 8002b6e:	4293      	cmp	r3, r2
 8002b70:	d013      	beq.n	8002b9a <HAL_GPIO_Init+0xfa>
          config = GPIO_CR_MODE_INPUT + GPIO_CR_CNF_ANALOG;
          break;

        /* Parameters are checked with assert_param */
        default:
          break;
 8002b72:	e02c      	b.n	8002bce <HAL_GPIO_Init+0x12e>
          config = GPIO_Init->Speed + GPIO_CR_CNF_GP_OUTPUT_PP;
 8002b74:	683b      	ldr	r3, [r7, #0]
 8002b76:	68db      	ldr	r3, [r3, #12]
 8002b78:	623b      	str	r3, [r7, #32]
          break;
 8002b7a:	e029      	b.n	8002bd0 <HAL_GPIO_Init+0x130>
          config = GPIO_Init->Speed + GPIO_CR_CNF_GP_OUTPUT_OD;
 8002b7c:	683b      	ldr	r3, [r7, #0]
 8002b7e:	68db      	ldr	r3, [r3, #12]
 8002b80:	3304      	adds	r3, #4
 8002b82:	623b      	str	r3, [r7, #32]
          break;
 8002b84:	e024      	b.n	8002bd0 <HAL_GPIO_Init+0x130>
          config = GPIO_Init->Speed + GPIO_CR_CNF_AF_OUTPUT_PP;
 8002b86:	683b      	ldr	r3, [r7, #0]
 8002b88:	68db      	ldr	r3, [r3, #12]
 8002b8a:	3308      	adds	r3, #8
 8002b8c:	623b      	str	r3, [r7, #32]
          break;
 8002b8e:	e01f      	b.n	8002bd0 <HAL_GPIO_Init+0x130>
          config = GPIO_Init->Speed + GPIO_CR_CNF_AF_OUTPUT_OD;
 8002b90:	683b      	ldr	r3, [r7, #0]
 8002b92:	68db      	ldr	r3, [r3, #12]
 8002b94:	330c      	adds	r3, #12
 8002b96:	623b      	str	r3, [r7, #32]
          break;
 8002b98:	e01a      	b.n	8002bd0 <HAL_GPIO_Init+0x130>
          if (GPIO_Init->Pull == GPIO_NOPULL)
 8002b9a:	683b      	ldr	r3, [r7, #0]
 8002b9c:	689b      	ldr	r3, [r3, #8]
 8002b9e:	2b00      	cmp	r3, #0
 8002ba0:	d102      	bne.n	8002ba8 <HAL_GPIO_Init+0x108>
            config = GPIO_CR_MODE_INPUT + GPIO_CR_CNF_INPUT_FLOATING;
 8002ba2:	2304      	movs	r3, #4
 8002ba4:	623b      	str	r3, [r7, #32]
          break;
 8002ba6:	e013      	b.n	8002bd0 <HAL_GPIO_Init+0x130>
          else if (GPIO_Init->Pull == GPIO_PULLUP)
 8002ba8:	683b      	ldr	r3, [r7, #0]
 8002baa:	689b      	ldr	r3, [r3, #8]
 8002bac:	2b01      	cmp	r3, #1
 8002bae:	d105      	bne.n	8002bbc <HAL_GPIO_Init+0x11c>
            config = GPIO_CR_MODE_INPUT + GPIO_CR_CNF_INPUT_PU_PD;
 8002bb0:	2308      	movs	r3, #8
 8002bb2:	623b      	str	r3, [r7, #32]
            GPIOx->BSRR = ioposition;
 8002bb4:	687b      	ldr	r3, [r7, #4]
 8002bb6:	69fa      	ldr	r2, [r7, #28]
 8002bb8:	611a      	str	r2, [r3, #16]
          break;
 8002bba:	e009      	b.n	8002bd0 <HAL_GPIO_Init+0x130>
            config = GPIO_CR_MODE_INPUT + GPIO_CR_CNF_INPUT_PU_PD;
 8002bbc:	2308      	movs	r3, #8
 8002bbe:	623b      	str	r3, [r7, #32]
            GPIOx->BRR = ioposition;
 8002bc0:	687b      	ldr	r3, [r7, #4]
 8002bc2:	69fa      	ldr	r2, [r7, #28]
 8002bc4:	615a      	str	r2, [r3, #20]
          break;
 8002bc6:	e003      	b.n	8002bd0 <HAL_GPIO_Init+0x130>
          config = GPIO_CR_MODE_INPUT + GPIO_CR_CNF_ANALOG;
 8002bc8:	2300      	movs	r3, #0
 8002bca:	623b      	str	r3, [r7, #32]
          break;
 8002bcc:	e000      	b.n	8002bd0 <HAL_GPIO_Init+0x130>
          break;
 8002bce:	bf00      	nop
      }

      /* Check if the current bit belongs to first half or last half of the pin count number
       in order to address CRH or CRL register*/
      configregister = (iocurrent < GPIO_PIN_8) ? &GPIOx->CRL     : &GPIOx->CRH;
 8002bd0:	69bb      	ldr	r3, [r7, #24]
 8002bd2:	2bff      	cmp	r3, #255	@ 0xff
 8002bd4:	d801      	bhi.n	8002bda <HAL_GPIO_Init+0x13a>
 8002bd6:	687b      	ldr	r3, [r7, #4]
 8002bd8:	e001      	b.n	8002bde <HAL_GPIO_Init+0x13e>
 8002bda:	687b      	ldr	r3, [r7, #4]
 8002bdc:	3304      	adds	r3, #4
 8002bde:	617b      	str	r3, [r7, #20]
      registeroffset = (iocurrent < GPIO_PIN_8) ? (position << 2u) : ((position - 8u) << 2u);
 8002be0:	69bb      	ldr	r3, [r7, #24]
 8002be2:	2bff      	cmp	r3, #255	@ 0xff
 8002be4:	d802      	bhi.n	8002bec <HAL_GPIO_Init+0x14c>
 8002be6:	6a7b      	ldr	r3, [r7, #36]	@ 0x24
 8002be8:	009b      	lsls	r3, r3, #2
 8002bea:	e002      	b.n	8002bf2 <HAL_GPIO_Init+0x152>
 8002bec:	6a7b      	ldr	r3, [r7, #36]	@ 0x24
 8002bee:	3b08      	subs	r3, #8
 8002bf0:	009b      	lsls	r3, r3, #2
 8002bf2:	613b      	str	r3, [r7, #16]

      /* Apply the new configuration of the pin to the register */
      MODIFY_REG((*configregister), ((GPIO_CRL_MODE0 | GPIO_CRL_CNF0) << registeroffset), (config << registeroffset));
 8002bf4:	697b      	ldr	r3, [r7, #20]
 8002bf6:	681a      	ldr	r2, [r3, #0]
 8002bf8:	210f      	movs	r1, #15
 8002bfa:	693b      	ldr	r3, [r7, #16]
 8002bfc:	fa01 f303 	lsl.w	r3, r1, r3
 8002c00:	43db      	mvns	r3, r3
 8002c02:	401a      	ands	r2, r3
 8002c04:	6a39      	ldr	r1, [r7, #32]
 8002c06:	693b      	ldr	r3, [r7, #16]
 8002c08:	fa01 f303 	lsl.w	r3, r1, r3
 8002c0c:	431a      	orrs	r2, r3
 8002c0e:	697b      	ldr	r3, [r7, #20]
 8002c10:	601a      	str	r2, [r3, #0]

      /*--------------------- EXTI Mode Configuration ------------------------*/
      /* Configure the External Interrupt or event for the current IO */
      if ((GPIO_Init->Mode & EXTI_MODE) == EXTI_MODE)
 8002c12:	683b      	ldr	r3, [r7, #0]
 8002c14:	685b      	ldr	r3, [r3, #4]
 8002c16:	f003 5380 	and.w	r3, r3, #268435456	@ 0x10000000
 8002c1a:	2b00      	cmp	r3, #0
 8002c1c:	f000 80a9 	beq.w	8002d72 <HAL_GPIO_Init+0x2d2>
      {
        /* Enable AFIO Clock */
        __HAL_RCC_AFIO_CLK_ENABLE();
 8002c20:	4b4a      	ldr	r3, [pc, #296]	@ (8002d4c <HAL_GPIO_Init+0x2ac>)
 8002c22:	699b      	ldr	r3, [r3, #24]
 8002c24:	4a49      	ldr	r2, [pc, #292]	@ (8002d4c <HAL_GPIO_Init+0x2ac>)
 8002c26:	f043 0301 	orr.w	r3, r3, #1
 8002c2a:	6193      	str	r3, [r2, #24]
 8002c2c:	4b47      	ldr	r3, [pc, #284]	@ (8002d4c <HAL_GPIO_Init+0x2ac>)
 8002c2e:	699b      	ldr	r3, [r3, #24]
 8002c30:	f003 0301 	and.w	r3, r3, #1
 8002c34:	60bb      	str	r3, [r7, #8]
 8002c36:	68bb      	ldr	r3, [r7, #8]
        temp = AFIO->EXTICR[position >> 2u];
 8002c38:	4a45      	ldr	r2, [pc, #276]	@ (8002d50 <HAL_GPIO_Init+0x2b0>)
 8002c3a:	6a7b      	ldr	r3, [r7, #36]	@ 0x24
 8002c3c:	089b      	lsrs	r3, r3, #2
 8002c3e:	3302      	adds	r3, #2
 8002c40:	f852 3023 	ldr.w	r3, [r2, r3, lsl #2]
 8002c44:	60fb      	str	r3, [r7, #12]
        CLEAR_BIT(temp, (0x0Fu) << (4u * (position & 0x03u)));
 8002c46:	6a7b      	ldr	r3, [r7, #36]	@ 0x24
 8002c48:	f003 0303 	and.w	r3, r3, #3
 8002c4c:	009b      	lsls	r3, r3, #2
 8002c4e:	220f      	movs	r2, #15
 8002c50:	fa02 f303 	lsl.w	r3, r2, r3
 8002c54:	43db      	mvns	r3, r3
 8002c56:	68fa      	ldr	r2, [r7, #12]
 8002c58:	4013      	ands	r3, r2
 8002c5a:	60fb      	str	r3, [r7, #12]
        SET_BIT(temp, (GPIO_GET_INDEX(GPIOx)) << (4u * (position & 0x03u)));
 8002c5c:	687b      	ldr	r3, [r7, #4]
 8002c5e:	4a3d      	ldr	r2, [pc, #244]	@ (8002d54 <HAL_GPIO_Init+0x2b4>)
 8002c60:	4293      	cmp	r3, r2
 8002c62:	d00d      	beq.n	8002c80 <HAL_GPIO_Init+0x1e0>
 8002c64:	687b      	ldr	r3, [r7, #4]
 8002c66:	4a3c      	ldr	r2, [pc, #240]	@ (8002d58 <HAL_GPIO_Init+0x2b8>)
 8002c68:	4293      	cmp	r3, r2
 8002c6a:	d007      	beq.n	8002c7c <HAL_GPIO_Init+0x1dc>
 8002c6c:	687b      	ldr	r3, [r7, #4]
 8002c6e:	4a3b      	ldr	r2, [pc, #236]	@ (8002d5c <HAL_GPIO_Init+0x2bc>)
 8002c70:	4293      	cmp	r3, r2
 8002c72:	d101      	bne.n	8002c78 <HAL_GPIO_Init+0x1d8>
 8002c74:	2302      	movs	r3, #2
 8002c76:	e004      	b.n	8002c82 <HAL_GPIO_Init+0x1e2>
 8002c78:	2303      	movs	r3, #3
 8002c7a:	e002      	b.n	8002c82 <HAL_GPIO_Init+0x1e2>
 8002c7c:	2301      	movs	r3, #1
 8002c7e:	e000      	b.n	8002c82 <HAL_GPIO_Init+0x1e2>
 8002c80:	2300      	movs	r3, #0
 8002c82:	6a7a      	ldr	r2, [r7, #36]	@ 0x24
 8002c84:	f002 0203 	and.w	r2, r2, #3
 8002c88:	0092      	lsls	r2, r2, #2
 8002c8a:	4093      	lsls	r3, r2
 8002c8c:	68fa      	ldr	r2, [r7, #12]
 8002c8e:	4313      	orrs	r3, r2
 8002c90:	60fb      	str	r3, [r7, #12]
        AFIO->EXTICR[position >> 2u] = temp;
 8002c92:	492f      	ldr	r1, [pc, #188]	@ (8002d50 <HAL_GPIO_Init+0x2b0>)
 8002c94:	6a7b      	ldr	r3, [r7, #36]	@ 0x24
 8002c96:	089b      	lsrs	r3, r3, #2
 8002c98:	3302      	adds	r3, #2
 8002c9a:	68fa      	ldr	r2, [r7, #12]
 8002c9c:	f841 2023 	str.w	r2, [r1, r3, lsl #2]


        /* Enable or disable the rising trigger */
        if ((GPIO_Init->Mode & RISING_EDGE) == RISING_EDGE)
 8002ca0:	683b      	ldr	r3, [r7, #0]
 8002ca2:	685b      	ldr	r3, [r3, #4]
 8002ca4:	f403 1380 	and.w	r3, r3, #1048576	@ 0x100000
 8002ca8:	2b00      	cmp	r3, #0
 8002caa:	d006      	beq.n	8002cba <HAL_GPIO_Init+0x21a>
        {
          SET_BIT(EXTI->RTSR, iocurrent);
 8002cac:	4b2c      	ldr	r3, [pc, #176]	@ (8002d60 <HAL_GPIO_Init+0x2c0>)
 8002cae:	689a      	ldr	r2, [r3, #8]
 8002cb0:	492b      	ldr	r1, [pc, #172]	@ (8002d60 <HAL_GPIO_Init+0x2c0>)
 8002cb2:	69bb      	ldr	r3, [r7, #24]
 8002cb4:	4313      	orrs	r3, r2
 8002cb6:	608b      	str	r3, [r1, #8]
 8002cb8:	e006      	b.n	8002cc8 <HAL_GPIO_Init+0x228>
        }
        else
        {
          CLEAR_BIT(EXTI->RTSR, iocurrent);
 8002cba:	4b29      	ldr	r3, [pc, #164]	@ (8002d60 <HAL_GPIO_Init+0x2c0>)
 8002cbc:	689a      	ldr	r2, [r3, #8]
 8002cbe:	69bb      	ldr	r3, [r7, #24]
 8002cc0:	43db      	mvns	r3, r3
 8002cc2:	4927      	ldr	r1, [pc, #156]	@ (8002d60 <HAL_GPIO_Init+0x2c0>)
 8002cc4:	4013      	ands	r3, r2
 8002cc6:	608b      	str	r3, [r1, #8]
        }

        /* Enable or disable the falling trigger */
        if ((GPIO_Init->Mode & FALLING_EDGE) == FALLING_EDGE)
 8002cc8:	683b      	ldr	r3, [r7, #0]
 8002cca:	685b      	ldr	r3, [r3, #4]
 8002ccc:	f403 1300 	and.w	r3, r3, #2097152	@ 0x200000
 8002cd0:	2b00      	cmp	r3, #0
 8002cd2:	d006      	beq.n	8002ce2 <HAL_GPIO_Init+0x242>
        {
          SET_BIT(EXTI->FTSR, iocurrent);
 8002cd4:	4b22      	ldr	r3, [pc, #136]	@ (8002d60 <HAL_GPIO_Init+0x2c0>)
 8002cd6:	68da      	ldr	r2, [r3, #12]
 8002cd8:	4921      	ldr	r1, [pc, #132]	@ (8002d60 <HAL_GPIO_Init+0x2c0>)
 8002cda:	69bb      	ldr	r3, [r7, #24]
 8002cdc:	4313      	orrs	r3, r2
 8002cde:	60cb      	str	r3, [r1, #12]
 8002ce0:	e006      	b.n	8002cf0 <HAL_GPIO_Init+0x250>
        }
        else
        {
          CLEAR_BIT(EXTI->FTSR, iocurrent);
 8002ce2:	4b1f      	ldr	r3, [pc, #124]	@ (8002d60 <HAL_GPIO_Init+0x2c0>)
 8002ce4:	68da      	ldr	r2, [r3, #12]
 8002ce6:	69bb      	ldr	r3, [r7, #24]
 8002ce8:	43db      	mvns	r3, r3
 8002cea:	491d      	ldr	r1, [pc, #116]	@ (8002d60 <HAL_GPIO_Init+0x2c0>)
 8002cec:	4013      	ands	r3, r2
 8002cee:	60cb      	str	r3, [r1, #12]
        }

        /* Configure the event mask */
        if ((GPIO_Init->Mode & GPIO_MODE_EVT) == GPIO_MODE_EVT)
 8002cf0:	683b      	ldr	r3, [r7, #0]
 8002cf2:	685b      	ldr	r3, [r3, #4]
 8002cf4:	f403 3300 	and.w	r3, r3, #131072	@ 0x20000
 8002cf8:	2b00      	cmp	r3, #0
 8002cfa:	d006      	beq.n	8002d0a <HAL_GPIO_Init+0x26a>
        {
          SET_BIT(EXTI->EMR, iocurrent);
 8002cfc:	4b18      	ldr	r3, [pc, #96]	@ (8002d60 <HAL_GPIO_Init+0x2c0>)
 8002cfe:	685a      	ldr	r2, [r3, #4]
 8002d00:	4917      	ldr	r1, [pc, #92]	@ (8002d60 <HAL_GPIO_Init+0x2c0>)
 8002d02:	69bb      	ldr	r3, [r7, #24]
 8002d04:	4313      	orrs	r3, r2
 8002d06:	604b      	str	r3, [r1, #4]
 8002d08:	e006      	b.n	8002d18 <HAL_GPIO_Init+0x278>
        }
        else
        {
          CLEAR_BIT(EXTI->EMR, iocurrent);
 8002d0a:	4b15      	ldr	r3, [pc, #84]	@ (8002d60 <HAL_GPIO_Init+0x2c0>)
 8002d0c:	685a      	ldr	r2, [r3, #4]
 8002d0e:	69bb      	ldr	r3, [r7, #24]
 8002d10:	43db      	mvns	r3, r3
 8002d12:	4913      	ldr	r1, [pc, #76]	@ (8002d60 <HAL_GPIO_Init+0x2c0>)
 8002d14:	4013      	ands	r3, r2
 8002d16:	604b      	str	r3, [r1, #4]
        }

        /* Configure the interrupt mask */
        if ((GPIO_Init->Mode & GPIO_MODE_IT) == GPIO_MODE_IT)
 8002d18:	683b      	ldr	r3, [r7, #0]
 8002d1a:	685b      	ldr	r3, [r3, #4]
 8002d1c:	f403 3380 	and.w	r3, r3, #65536	@ 0x10000
 8002d20:	2b00      	cmp	r3, #0
 8002d22:	d01f      	beq.n	8002d64 <HAL_GPIO_Init+0x2c4>
        {
          SET_BIT(EXTI->IMR, iocurrent);
 8002d24:	4b0e      	ldr	r3, [pc, #56]	@ (8002d60 <HAL_GPIO_Init+0x2c0>)
 8002d26:	681a      	ldr	r2, [r3, #0]
 8002d28:	490d      	ldr	r1, [pc, #52]	@ (8002d60 <HAL_GPIO_Init+0x2c0>)
 8002d2a:	69bb      	ldr	r3, [r7, #24]
 8002d2c:	4313      	orrs	r3, r2
 8002d2e:	600b      	str	r3, [r1, #0]
 8002d30:	e01f      	b.n	8002d72 <HAL_GPIO_Init+0x2d2>
 8002d32:	bf00      	nop
 8002d34:	10320000 	.word	0x10320000
 8002d38:	10310000 	.word	0x10310000
 8002d3c:	10220000 	.word	0x10220000
 8002d40:	10210000 	.word	0x10210000
 8002d44:	10120000 	.word	0x10120000
 8002d48:	10110000 	.word	0x10110000
 8002d4c:	40021000 	.word	0x40021000
 8002d50:	40010000 	.word	0x40010000
 8002d54:	40010800 	.word	0x40010800
 8002d58:	40010c00 	.word	0x40010c00
 8002d5c:	40011000 	.word	0x40011000
 8002d60:	40010400 	.word	0x40010400
        }
        else
        {
          CLEAR_BIT(EXTI->IMR, iocurrent);
 8002d64:	4b0b      	ldr	r3, [pc, #44]	@ (8002d94 <HAL_GPIO_Init+0x2f4>)
 8002d66:	681a      	ldr	r2, [r3, #0]
 8002d68:	69bb      	ldr	r3, [r7, #24]
 8002d6a:	43db      	mvns	r3, r3
 8002d6c:	4909      	ldr	r1, [pc, #36]	@ (8002d94 <HAL_GPIO_Init+0x2f4>)
 8002d6e:	4013      	ands	r3, r2
 8002d70:	600b      	str	r3, [r1, #0]
        }
      }
    }

	position++;
 8002d72:	6a7b      	ldr	r3, [r7, #36]	@ 0x24
 8002d74:	3301      	adds	r3, #1
 8002d76:	627b      	str	r3, [r7, #36]	@ 0x24
  while (((GPIO_Init->Pin) >> position) != 0x00u)
 8002d78:	683b      	ldr	r3, [r7, #0]
 8002d7a:	681a      	ldr	r2, [r3, #0]
 8002d7c:	6a7b      	ldr	r3, [r7, #36]	@ 0x24
 8002d7e:	fa22 f303 	lsr.w	r3, r2, r3
 8002d82:	2b00      	cmp	r3, #0
 8002d84:	f47f ae96 	bne.w	8002ab4 <HAL_GPIO_Init+0x14>
  }
}
 8002d88:	bf00      	nop
 8002d8a:	bf00      	nop
 8002d8c:	372c      	adds	r7, #44	@ 0x2c
 8002d8e:	46bd      	mov	sp, r7
 8002d90:	bc80      	pop	{r7}
 8002d92:	4770      	bx	lr
 8002d94:	40010400 	.word	0x40010400

08002d98 <HAL_GPIO_WritePin>:
  *            @arg GPIO_PIN_RESET: to clear the port pin
  *            @arg GPIO_PIN_SET: to set the port pin
  * @retval None
  */
void HAL_GPIO_WritePin(GPIO_TypeDef *GPIOx, uint16_t GPIO_Pin, GPIO_PinState PinState)
{
 8002d98:	b480      	push	{r7}
 8002d9a:	b083      	sub	sp, #12
 8002d9c:	af00      	add	r7, sp, #0
 8002d9e:	6078      	str	r0, [r7, #4]
 8002da0:	460b      	mov	r3, r1
 8002da2:	807b      	strh	r3, [r7, #2]
 8002da4:	4613      	mov	r3, r2
 8002da6:	707b      	strb	r3, [r7, #1]
  /* Check the parameters */
  assert_param(IS_GPIO_PIN(GPIO_Pin));
  assert_param(IS_GPIO_PIN_ACTION(PinState));

  if (PinState != GPIO_PIN_RESET)
 8002da8:	787b      	ldrb	r3, [r7, #1]
 8002daa:	2b00      	cmp	r3, #0
 8002dac:	d003      	beq.n	8002db6 <HAL_GPIO_WritePin+0x1e>
  {
    GPIOx->BSRR = GPIO_Pin;
 8002dae:	887a      	ldrh	r2, [r7, #2]
 8002db0:	687b      	ldr	r3, [r7, #4]
 8002db2:	611a      	str	r2, [r3, #16]
  }
  else
  {
    GPIOx->BSRR = (uint32_t)GPIO_Pin << 16u;
  }
}
 8002db4:	e003      	b.n	8002dbe <HAL_GPIO_WritePin+0x26>
    GPIOx->BSRR = (uint32_t)GPIO_Pin << 16u;
 8002db6:	887b      	ldrh	r3, [r7, #2]
 8002db8:	041a      	lsls	r2, r3, #16
 8002dba:	687b      	ldr	r3, [r7, #4]
 8002dbc:	611a      	str	r2, [r3, #16]
}
 8002dbe:	bf00      	nop
 8002dc0:	370c      	adds	r7, #12
 8002dc2:	46bd      	mov	sp, r7
 8002dc4:	bc80      	pop	{r7}
 8002dc6:	4770      	bx	lr

08002dc8 <HAL_I2C_Init>:
  * @param  hi2c Pointer to a I2C_HandleTypeDef structure that contains
  *                the configuration information for the specified I2C.
  * @retval HAL status
  */
HAL_StatusTypeDef HAL_I2C_Init(I2C_HandleTypeDef *hi2c)
{
 8002dc8:	b580      	push	{r7, lr}
 8002dca:	b084      	sub	sp, #16
 8002dcc:	af00      	add	r7, sp, #0
 8002dce:	6078      	str	r0, [r7, #4]
  uint32_t freqrange;
  uint32_t pclk1;

  /* Check the I2C handle allocation */
  if (hi2c == NULL)
 8002dd0:	687b      	ldr	r3, [r7, #4]
 8002dd2:	2b00      	cmp	r3, #0
 8002dd4:	d101      	bne.n	8002dda <HAL_I2C_Init+0x12>
  {
    return HAL_ERROR;
 8002dd6:	2301      	movs	r3, #1
 8002dd8:	e12b      	b.n	8003032 <HAL_I2C_Init+0x26a>
  assert_param(IS_I2C_DUAL_ADDRESS(hi2c->Init.DualAddressMode));
  assert_param(IS_I2C_OWN_ADDRESS2(hi2c->Init.OwnAddress2));
  assert_param(IS_I2C_GENERAL_CALL(hi2c->Init.GeneralCallMode));
  assert_param(IS_I2C_NO_STRETCH(hi2c->Init.NoStretchMode));

  if (hi2c->State == HAL_I2C_STATE_RESET)
 8002dda:	687b      	ldr	r3, [r7, #4]
 8002ddc:	f893 303d 	ldrb.w	r3, [r3, #61]	@ 0x3d
 8002de0:	b2db      	uxtb	r3, r3
 8002de2:	2b00      	cmp	r3, #0
 8002de4:	d106      	bne.n	8002df4 <HAL_I2C_Init+0x2c>
  {
    /* Allocate lock resource and initialize it */
    hi2c->Lock = HAL_UNLOCKED;
 8002de6:	687b      	ldr	r3, [r7, #4]
 8002de8:	2200      	movs	r2, #0
 8002dea:	f883 203c 	strb.w	r2, [r3, #60]	@ 0x3c

    /* Init the low level hardware : GPIO, CLOCK, NVIC */
    hi2c->MspInitCallback(hi2c);
#else
    /* Init the low level hardware : GPIO, CLOCK, NVIC */
    HAL_I2C_MspInit(hi2c);
 8002dee:	6878      	ldr	r0, [r7, #4]
 8002df0:	f7fe ff72 	bl	8001cd8 <HAL_I2C_MspInit>
#endif /* USE_HAL_I2C_REGISTER_CALLBACKS */
  }

  hi2c->State = HAL_I2C_STATE_BUSY;
 8002df4:	687b      	ldr	r3, [r7, #4]
 8002df6:	2224      	movs	r2, #36	@ 0x24
 8002df8:	f883 203d 	strb.w	r2, [r3, #61]	@ 0x3d

  /* Disable the selected I2C peripheral */
  __HAL_I2C_DISABLE(hi2c);
 8002dfc:	687b      	ldr	r3, [r7, #4]
 8002dfe:	681b      	ldr	r3, [r3, #0]
 8002e00:	681a      	ldr	r2, [r3, #0]
 8002e02:	687b      	ldr	r3, [r7, #4]
 8002e04:	681b      	ldr	r3, [r3, #0]
 8002e06:	f022 0201 	bic.w	r2, r2, #1
 8002e0a:	601a      	str	r2, [r3, #0]

  /*Reset I2C*/
  hi2c->Instance->CR1 |= I2C_CR1_SWRST;
 8002e0c:	687b      	ldr	r3, [r7, #4]
 8002e0e:	681b      	ldr	r3, [r3, #0]
 8002e10:	681a      	ldr	r2, [r3, #0]
 8002e12:	687b      	ldr	r3, [r7, #4]
 8002e14:	681b      	ldr	r3, [r3, #0]
 8002e16:	f442 4200 	orr.w	r2, r2, #32768	@ 0x8000
 8002e1a:	601a      	str	r2, [r3, #0]
  hi2c->Instance->CR1 &= ~I2C_CR1_SWRST;
 8002e1c:	687b      	ldr	r3, [r7, #4]
 8002e1e:	681b      	ldr	r3, [r3, #0]
 8002e20:	681a      	ldr	r2, [r3, #0]
 8002e22:	687b      	ldr	r3, [r7, #4]
 8002e24:	681b      	ldr	r3, [r3, #0]
 8002e26:	f422 4200 	bic.w	r2, r2, #32768	@ 0x8000
 8002e2a:	601a      	str	r2, [r3, #0]

  /* Get PCLK1 frequency */
  pclk1 = HAL_RCC_GetPCLK1Freq();
 8002e2c:	f001 fb52 	bl	80044d4 <HAL_RCC_GetPCLK1Freq>
 8002e30:	60f8      	str	r0, [r7, #12]

  /* Check the minimum allowed PCLK1 frequency */
  if (I2C_MIN_PCLK_FREQ(pclk1, hi2c->Init.ClockSpeed) == 1U)
 8002e32:	687b      	ldr	r3, [r7, #4]
 8002e34:	685b      	ldr	r3, [r3, #4]
 8002e36:	4a81      	ldr	r2, [pc, #516]	@ (800303c <HAL_I2C_Init+0x274>)
 8002e38:	4293      	cmp	r3, r2
 8002e3a:	d807      	bhi.n	8002e4c <HAL_I2C_Init+0x84>
 8002e3c:	68fb      	ldr	r3, [r7, #12]
 8002e3e:	4a80      	ldr	r2, [pc, #512]	@ (8003040 <HAL_I2C_Init+0x278>)
 8002e40:	4293      	cmp	r3, r2
 8002e42:	bf94      	ite	ls
 8002e44:	2301      	movls	r3, #1
 8002e46:	2300      	movhi	r3, #0
 8002e48:	b2db      	uxtb	r3, r3
 8002e4a:	e006      	b.n	8002e5a <HAL_I2C_Init+0x92>
 8002e4c:	68fb      	ldr	r3, [r7, #12]
 8002e4e:	4a7d      	ldr	r2, [pc, #500]	@ (8003044 <HAL_I2C_Init+0x27c>)
 8002e50:	4293      	cmp	r3, r2
 8002e52:	bf94      	ite	ls
 8002e54:	2301      	movls	r3, #1
 8002e56:	2300      	movhi	r3, #0
 8002e58:	b2db      	uxtb	r3, r3
 8002e5a:	2b00      	cmp	r3, #0
 8002e5c:	d001      	beq.n	8002e62 <HAL_I2C_Init+0x9a>
  {
    return HAL_ERROR;
 8002e5e:	2301      	movs	r3, #1
 8002e60:	e0e7      	b.n	8003032 <HAL_I2C_Init+0x26a>
  }

  /* Calculate frequency range */
  freqrange = I2C_FREQRANGE(pclk1);
 8002e62:	68fb      	ldr	r3, [r7, #12]
 8002e64:	4a78      	ldr	r2, [pc, #480]	@ (8003048 <HAL_I2C_Init+0x280>)
 8002e66:	fba2 2303 	umull	r2, r3, r2, r3
 8002e6a:	0c9b      	lsrs	r3, r3, #18
 8002e6c:	60bb      	str	r3, [r7, #8]

  /*---------------------------- I2Cx CR2 Configuration ----------------------*/
  /* Configure I2Cx: Frequency range */
  MODIFY_REG(hi2c->Instance->CR2, I2C_CR2_FREQ, freqrange);
 8002e6e:	687b      	ldr	r3, [r7, #4]
 8002e70:	681b      	ldr	r3, [r3, #0]
 8002e72:	685b      	ldr	r3, [r3, #4]
 8002e74:	f023 013f 	bic.w	r1, r3, #63	@ 0x3f
 8002e78:	687b      	ldr	r3, [r7, #4]
 8002e7a:	681b      	ldr	r3, [r3, #0]
 8002e7c:	68ba      	ldr	r2, [r7, #8]
 8002e7e:	430a      	orrs	r2, r1
 8002e80:	605a      	str	r2, [r3, #4]

  /*---------------------------- I2Cx TRISE Configuration --------------------*/
  /* Configure I2Cx: Rise Time */
  MODIFY_REG(hi2c->Instance->TRISE, I2C_TRISE_TRISE, I2C_RISE_TIME(freqrange, hi2c->Init.ClockSpeed));
 8002e82:	687b      	ldr	r3, [r7, #4]
 8002e84:	681b      	ldr	r3, [r3, #0]
 8002e86:	6a1b      	ldr	r3, [r3, #32]
 8002e88:	f023 013f 	bic.w	r1, r3, #63	@ 0x3f
 8002e8c:	687b      	ldr	r3, [r7, #4]
 8002e8e:	685b      	ldr	r3, [r3, #4]
 8002e90:	4a6a      	ldr	r2, [pc, #424]	@ (800303c <HAL_I2C_Init+0x274>)
 8002e92:	4293      	cmp	r3, r2
 8002e94:	d802      	bhi.n	8002e9c <HAL_I2C_Init+0xd4>
 8002e96:	68bb      	ldr	r3, [r7, #8]
 8002e98:	3301      	adds	r3, #1
 8002e9a:	e009      	b.n	8002eb0 <HAL_I2C_Init+0xe8>
 8002e9c:	68bb      	ldr	r3, [r7, #8]
 8002e9e:	f44f 7296 	mov.w	r2, #300	@ 0x12c
 8002ea2:	fb02 f303 	mul.w	r3, r2, r3
 8002ea6:	4a69      	ldr	r2, [pc, #420]	@ (800304c <HAL_I2C_Init+0x284>)
 8002ea8:	fba2 2303 	umull	r2, r3, r2, r3
 8002eac:	099b      	lsrs	r3, r3, #6
 8002eae:	3301      	adds	r3, #1
 8002eb0:	687a      	ldr	r2, [r7, #4]
 8002eb2:	6812      	ldr	r2, [r2, #0]
 8002eb4:	430b      	orrs	r3, r1
 8002eb6:	6213      	str	r3, [r2, #32]

  /*---------------------------- I2Cx CCR Configuration ----------------------*/
  /* Configure I2Cx: Speed */
  MODIFY_REG(hi2c->Instance->CCR, (I2C_CCR_FS | I2C_CCR_DUTY | I2C_CCR_CCR), I2C_SPEED(pclk1, hi2c->Init.ClockSpeed, hi2c->Init.DutyCycle));
 8002eb8:	687b      	ldr	r3, [r7, #4]
 8002eba:	681b      	ldr	r3, [r3, #0]
 8002ebc:	69db      	ldr	r3, [r3, #28]
 8002ebe:	f423 424f 	bic.w	r2, r3, #52992	@ 0xcf00
 8002ec2:	f022 02ff 	bic.w	r2, r2, #255	@ 0xff
 8002ec6:	687b      	ldr	r3, [r7, #4]
 8002ec8:	685b      	ldr	r3, [r3, #4]
 8002eca:	495c      	ldr	r1, [pc, #368]	@ (800303c <HAL_I2C_Init+0x274>)
 8002ecc:	428b      	cmp	r3, r1
 8002ece:	d819      	bhi.n	8002f04 <HAL_I2C_Init+0x13c>
 8002ed0:	68fb      	ldr	r3, [r7, #12]
 8002ed2:	1e59      	subs	r1, r3, #1
 8002ed4:	687b      	ldr	r3, [r7, #4]
 8002ed6:	685b      	ldr	r3, [r3, #4]
 8002ed8:	005b      	lsls	r3, r3, #1
 8002eda:	fbb1 f3f3 	udiv	r3, r1, r3
 8002ede:	1c59      	adds	r1, r3, #1
 8002ee0:	f640 73fc 	movw	r3, #4092	@ 0xffc
 8002ee4:	400b      	ands	r3, r1
 8002ee6:	2b00      	cmp	r3, #0
 8002ee8:	d00a      	beq.n	8002f00 <HAL_I2C_Init+0x138>
 8002eea:	68fb      	ldr	r3, [r7, #12]
 8002eec:	1e59      	subs	r1, r3, #1
 8002eee:	687b      	ldr	r3, [r7, #4]
 8002ef0:	685b      	ldr	r3, [r3, #4]
 8002ef2:	005b      	lsls	r3, r3, #1
 8002ef4:	fbb1 f3f3 	udiv	r3, r1, r3
 8002ef8:	3301      	adds	r3, #1
 8002efa:	f3c3 030b 	ubfx	r3, r3, #0, #12
 8002efe:	e051      	b.n	8002fa4 <HAL_I2C_Init+0x1dc>
 8002f00:	2304      	movs	r3, #4
 8002f02:	e04f      	b.n	8002fa4 <HAL_I2C_Init+0x1dc>
 8002f04:	687b      	ldr	r3, [r7, #4]
 8002f06:	689b      	ldr	r3, [r3, #8]
 8002f08:	2b00      	cmp	r3, #0
 8002f0a:	d111      	bne.n	8002f30 <HAL_I2C_Init+0x168>
 8002f0c:	68fb      	ldr	r3, [r7, #12]
 8002f0e:	1e58      	subs	r0, r3, #1
 8002f10:	687b      	ldr	r3, [r7, #4]
 8002f12:	6859      	ldr	r1, [r3, #4]
 8002f14:	460b      	mov	r3, r1
 8002f16:	005b      	lsls	r3, r3, #1
 8002f18:	440b      	add	r3, r1
 8002f1a:	fbb0 f3f3 	udiv	r3, r0, r3
 8002f1e:	3301      	adds	r3, #1
 8002f20:	f3c3 030b 	ubfx	r3, r3, #0, #12
 8002f24:	2b00      	cmp	r3, #0
 8002f26:	bf0c      	ite	eq
 8002f28:	2301      	moveq	r3, #1
 8002f2a:	2300      	movne	r3, #0
 8002f2c:	b2db      	uxtb	r3, r3
 8002f2e:	e012      	b.n	8002f56 <HAL_I2C_Init+0x18e>
 8002f30:	68fb      	ldr	r3, [r7, #12]
 8002f32:	1e58      	subs	r0, r3, #1
 8002f34:	687b      	ldr	r3, [r7, #4]
 8002f36:	6859      	ldr	r1, [r3, #4]
 8002f38:	460b      	mov	r3, r1
 8002f3a:	009b      	lsls	r3, r3, #2
 8002f3c:	440b      	add	r3, r1
 8002f3e:	0099      	lsls	r1, r3, #2
 8002f40:	440b      	add	r3, r1
 8002f42:	fbb0 f3f3 	udiv	r3, r0, r3
 8002f46:	3301      	adds	r3, #1
 8002f48:	f3c3 030b 	ubfx	r3, r3, #0, #12
 8002f4c:	2b00      	cmp	r3, #0
 8002f4e:	bf0c      	ite	eq
 8002f50:	2301      	moveq	r3, #1
 8002f52:	2300      	movne	r3, #0
 8002f54:	b2db      	uxtb	r3, r3
 8002f56:	2b00      	cmp	r3, #0
 8002f58:	d001      	beq.n	8002f5e <HAL_I2C_Init+0x196>
 8002f5a:	2301      	movs	r3, #1
 8002f5c:	e022      	b.n	8002fa4 <HAL_I2C_Init+0x1dc>
 8002f5e:	687b      	ldr	r3, [r7, #4]
 8002f60:	689b      	ldr	r3, [r3, #8]
 8002f62:	2b00      	cmp	r3, #0
 8002f64:	d10e      	bne.n	8002f84 <HAL_I2C_Init+0x1bc>
 8002f66:	68fb      	ldr	r3, [r7, #12]
 8002f68:	1e58      	subs	r0, r3, #1
 8002f6a:	687b      	ldr	r3, [r7, #4]
 8002f6c:	6859      	ldr	r1, [r3, #4]
 8002f6e:	460b      	mov	r3, r1
 8002f70:	005b      	lsls	r3, r3, #1
 8002f72:	440b      	add	r3, r1
 8002f74:	fbb0 f3f3 	udiv	r3, r0, r3
 8002f78:	3301      	adds	r3, #1
 8002f7a:	f3c3 030b 	ubfx	r3, r3, #0, #12
 8002f7e:	f443 4300 	orr.w	r3, r3, #32768	@ 0x8000
 8002f82:	e00f      	b.n	8002fa4 <HAL_I2C_Init+0x1dc>
 8002f84:	68fb      	ldr	r3, [r7, #12]
 8002f86:	1e58      	subs	r0, r3, #1
 8002f88:	687b      	ldr	r3, [r7, #4]
 8002f8a:	6859      	ldr	r1, [r3, #4]
 8002f8c:	460b      	mov	r3, r1
 8002f8e:	009b      	lsls	r3, r3, #2
 8002f90:	440b      	add	r3, r1
 8002f92:	0099      	lsls	r1, r3, #2
 8002f94:	440b      	add	r3, r1
 8002f96:	fbb0 f3f3 	udiv	r3, r0, r3
 8002f9a:	3301      	adds	r3, #1
 8002f9c:	f3c3 030b 	ubfx	r3, r3, #0, #12
 8002fa0:	f443 4340 	orr.w	r3, r3, #49152	@ 0xc000
 8002fa4:	6879      	ldr	r1, [r7, #4]
 8002fa6:	6809      	ldr	r1, [r1, #0]
 8002fa8:	4313      	orrs	r3, r2
 8002faa:	61cb      	str	r3, [r1, #28]

  /*---------------------------- I2Cx CR1 Configuration ----------------------*/
  /* Configure I2Cx: Generalcall and NoStretch mode */
  MODIFY_REG(hi2c->Instance->CR1, (I2C_CR1_ENGC | I2C_CR1_NOSTRETCH), (hi2c->Init.GeneralCallMode | hi2c->Init.NoStretchMode));
 8002fac:	687b      	ldr	r3, [r7, #4]
 8002fae:	681b      	ldr	r3, [r3, #0]
 8002fb0:	681b      	ldr	r3, [r3, #0]
 8002fb2:	f023 01c0 	bic.w	r1, r3, #192	@ 0xc0
 8002fb6:	687b      	ldr	r3, [r7, #4]
 8002fb8:	69da      	ldr	r2, [r3, #28]
 8002fba:	687b      	ldr	r3, [r7, #4]
 8002fbc:	6a1b      	ldr	r3, [r3, #32]
 8002fbe:	431a      	orrs	r2, r3
 8002fc0:	687b      	ldr	r3, [r7, #4]
 8002fc2:	681b      	ldr	r3, [r3, #0]
 8002fc4:	430a      	orrs	r2, r1
 8002fc6:	601a      	str	r2, [r3, #0]

  /*---------------------------- I2Cx OAR1 Configuration ---------------------*/
  /* Configure I2Cx: Own Address1 and addressing mode */
  MODIFY_REG(hi2c->Instance->OAR1, (I2C_OAR1_ADDMODE | I2C_OAR1_ADD8_9 | I2C_OAR1_ADD1_7 | I2C_OAR1_ADD0), (hi2c->Init.AddressingMode | hi2c->Init.OwnAddress1));
 8002fc8:	687b      	ldr	r3, [r7, #4]
 8002fca:	681b      	ldr	r3, [r3, #0]
 8002fcc:	689b      	ldr	r3, [r3, #8]
 8002fce:	f423 4303 	bic.w	r3, r3, #33536	@ 0x8300
 8002fd2:	f023 03ff 	bic.w	r3, r3, #255	@ 0xff
 8002fd6:	687a      	ldr	r2, [r7, #4]
 8002fd8:	6911      	ldr	r1, [r2, #16]
 8002fda:	687a      	ldr	r2, [r7, #4]
 8002fdc:	68d2      	ldr	r2, [r2, #12]
 8002fde:	4311      	orrs	r1, r2
 8002fe0:	687a      	ldr	r2, [r7, #4]
 8002fe2:	6812      	ldr	r2, [r2, #0]
 8002fe4:	430b      	orrs	r3, r1
 8002fe6:	6093      	str	r3, [r2, #8]

  /*---------------------------- I2Cx OAR2 Configuration ---------------------*/
  /* Configure I2Cx: Dual mode and Own Address2 */
  MODIFY_REG(hi2c->Instance->OAR2, (I2C_OAR2_ENDUAL | I2C_OAR2_ADD2), (hi2c->Init.DualAddressMode | hi2c->Init.OwnAddress2));
 8002fe8:	687b      	ldr	r3, [r7, #4]
 8002fea:	681b      	ldr	r3, [r3, #0]
 8002fec:	68db      	ldr	r3, [r3, #12]
 8002fee:	f023 01ff 	bic.w	r1, r3, #255	@ 0xff
 8002ff2:	687b      	ldr	r3, [r7, #4]
 8002ff4:	695a      	ldr	r2, [r3, #20]
 8002ff6:	687b      	ldr	r3, [r7, #4]
 8002ff8:	699b      	ldr	r3, [r3, #24]
 8002ffa:	431a      	orrs	r2, r3
 8002ffc:	687b      	ldr	r3, [r7, #4]
 8002ffe:	681b      	ldr	r3, [r3, #0]
 8003000:	430a      	orrs	r2, r1
 8003002:	60da      	str	r2, [r3, #12]

  /* Enable the selected I2C peripheral */
  __HAL_I2C_ENABLE(hi2c);
 8003004:	687b      	ldr	r3, [r7, #4]
 8003006:	681b      	ldr	r3, [r3, #0]
 8003008:	681a      	ldr	r2, [r3, #0]
 800300a:	687b      	ldr	r3, [r7, #4]
 800300c:	681b      	ldr	r3, [r3, #0]
 800300e:	f042 0201 	orr.w	r2, r2, #1
 8003012:	601a      	str	r2, [r3, #0]

  hi2c->ErrorCode = HAL_I2C_ERROR_NONE;
 8003014:	687b      	ldr	r3, [r7, #4]
 8003016:	2200      	movs	r2, #0
 8003018:	641a      	str	r2, [r3, #64]	@ 0x40
  hi2c->State = HAL_I2C_STATE_READY;
 800301a:	687b      	ldr	r3, [r7, #4]
 800301c:	2220      	movs	r2, #32
 800301e:	f883 203d 	strb.w	r2, [r3, #61]	@ 0x3d
  hi2c->PreviousState = I2C_STATE_NONE;
 8003022:	687b      	ldr	r3, [r7, #4]
 8003024:	2200      	movs	r2, #0
 8003026:	631a      	str	r2, [r3, #48]	@ 0x30
  hi2c->Mode = HAL_I2C_MODE_NONE;
 8003028:	687b      	ldr	r3, [r7, #4]
 800302a:	2200      	movs	r2, #0
 800302c:	f883 203e 	strb.w	r2, [r3, #62]	@ 0x3e

  return HAL_OK;
 8003030:	2300      	movs	r3, #0
}
 8003032:	4618      	mov	r0, r3
 8003034:	3710      	adds	r7, #16
 8003036:	46bd      	mov	sp, r7
 8003038:	bd80      	pop	{r7, pc}
 800303a:	bf00      	nop
 800303c:	000186a0 	.word	0x000186a0
 8003040:	001e847f 	.word	0x001e847f
 8003044:	003d08ff 	.word	0x003d08ff
 8003048:	431bde83 	.word	0x431bde83
 800304c:	10624dd3 	.word	0x10624dd3

08003050 <HAL_I2C_Mem_Read>:
  * @param  Size Amount of data to be sent
  * @param  Timeout Timeout duration
  * @retval HAL status
  */
HAL_StatusTypeDef HAL_I2C_Mem_Read(I2C_HandleTypeDef *hi2c, uint16_t DevAddress, uint16_t MemAddress, uint16_t MemAddSize, uint8_t *pData, uint16_t Size, uint32_t Timeout)
{
 8003050:	b580      	push	{r7, lr}
 8003052:	b08c      	sub	sp, #48	@ 0x30
 8003054:	af02      	add	r7, sp, #8
 8003056:	60f8      	str	r0, [r7, #12]
 8003058:	4608      	mov	r0, r1
 800305a:	4611      	mov	r1, r2
 800305c:	461a      	mov	r2, r3
 800305e:	4603      	mov	r3, r0
 8003060:	817b      	strh	r3, [r7, #10]
 8003062:	460b      	mov	r3, r1
 8003064:	813b      	strh	r3, [r7, #8]
 8003066:	4613      	mov	r3, r2
 8003068:	80fb      	strh	r3, [r7, #6]
  __IO uint32_t count = 0U;
 800306a:	2300      	movs	r3, #0
 800306c:	623b      	str	r3, [r7, #32]

  /* Init tickstart for timeout management*/
  uint32_t tickstart = HAL_GetTick();
 800306e:	f7ff f801 	bl	8002074 <HAL_GetTick>
 8003072:	6278      	str	r0, [r7, #36]	@ 0x24

  /* Check the parameters */
  assert_param(IS_I2C_MEMADD_SIZE(MemAddSize));

  if (hi2c->State == HAL_I2C_STATE_READY)
 8003074:	68fb      	ldr	r3, [r7, #12]
 8003076:	f893 303d 	ldrb.w	r3, [r3, #61]	@ 0x3d
 800307a:	b2db      	uxtb	r3, r3
 800307c:	2b20      	cmp	r3, #32
 800307e:	f040 8250 	bne.w	8003522 <HAL_I2C_Mem_Read+0x4d2>
  {
    /* Wait until BUSY flag is reset */
    if (I2C_WaitOnFlagUntilTimeout(hi2c, I2C_FLAG_BUSY, SET, I2C_TIMEOUT_BUSY_FLAG, tickstart) != HAL_OK)
 8003082:	6a7b      	ldr	r3, [r7, #36]	@ 0x24
 8003084:	9300      	str	r3, [sp, #0]
 8003086:	2319      	movs	r3, #25
 8003088:	2201      	movs	r2, #1
 800308a:	4982      	ldr	r1, [pc, #520]	@ (8003294 <HAL_I2C_Mem_Read+0x244>)
 800308c:	68f8      	ldr	r0, [r7, #12]
 800308e:	f000 fc69 	bl	8003964 <I2C_WaitOnFlagUntilTimeout>
 8003092:	4603      	mov	r3, r0
 8003094:	2b00      	cmp	r3, #0
 8003096:	d001      	beq.n	800309c <HAL_I2C_Mem_Read+0x4c>
    {
      return HAL_BUSY;
 8003098:	2302      	movs	r3, #2
 800309a:	e243      	b.n	8003524 <HAL_I2C_Mem_Read+0x4d4>
    }

    /* Process Locked */
    __HAL_LOCK(hi2c);
 800309c:	68fb      	ldr	r3, [r7, #12]
 800309e:	f893 303c 	ldrb.w	r3, [r3, #60]	@ 0x3c
 80030a2:	2b01      	cmp	r3, #1
 80030a4:	d101      	bne.n	80030aa <HAL_I2C_Mem_Read+0x5a>
 80030a6:	2302      	movs	r3, #2
 80030a8:	e23c      	b.n	8003524 <HAL_I2C_Mem_Read+0x4d4>
 80030aa:	68fb      	ldr	r3, [r7, #12]
 80030ac:	2201      	movs	r2, #1
 80030ae:	f883 203c 	strb.w	r2, [r3, #60]	@ 0x3c

    /* Check if the I2C is already enabled */
    if ((hi2c->Instance->CR1 & I2C_CR1_PE) != I2C_CR1_PE)
 80030b2:	68fb      	ldr	r3, [r7, #12]
 80030b4:	681b      	ldr	r3, [r3, #0]
 80030b6:	681b      	ldr	r3, [r3, #0]
 80030b8:	f003 0301 	and.w	r3, r3, #1
 80030bc:	2b01      	cmp	r3, #1
 80030be:	d007      	beq.n	80030d0 <HAL_I2C_Mem_Read+0x80>
    {
      /* Enable I2C peripheral */
      __HAL_I2C_ENABLE(hi2c);
 80030c0:	68fb      	ldr	r3, [r7, #12]
 80030c2:	681b      	ldr	r3, [r3, #0]
 80030c4:	681a      	ldr	r2, [r3, #0]
 80030c6:	68fb      	ldr	r3, [r7, #12]
 80030c8:	681b      	ldr	r3, [r3, #0]
 80030ca:	f042 0201 	orr.w	r2, r2, #1
 80030ce:	601a      	str	r2, [r3, #0]
    }

    /* Disable Pos */
    CLEAR_BIT(hi2c->Instance->CR1, I2C_CR1_POS);
 80030d0:	68fb      	ldr	r3, [r7, #12]
 80030d2:	681b      	ldr	r3, [r3, #0]
 80030d4:	681a      	ldr	r2, [r3, #0]
 80030d6:	68fb      	ldr	r3, [r7, #12]
 80030d8:	681b      	ldr	r3, [r3, #0]
 80030da:	f422 6200 	bic.w	r2, r2, #2048	@ 0x800
 80030de:	601a      	str	r2, [r3, #0]

    hi2c->State     = HAL_I2C_STATE_BUSY_RX;
 80030e0:	68fb      	ldr	r3, [r7, #12]
 80030e2:	2222      	movs	r2, #34	@ 0x22
 80030e4:	f883 203d 	strb.w	r2, [r3, #61]	@ 0x3d
    hi2c->Mode      = HAL_I2C_MODE_MEM;
 80030e8:	68fb      	ldr	r3, [r7, #12]
 80030ea:	2240      	movs	r2, #64	@ 0x40
 80030ec:	f883 203e 	strb.w	r2, [r3, #62]	@ 0x3e
    hi2c->ErrorCode = HAL_I2C_ERROR_NONE;
 80030f0:	68fb      	ldr	r3, [r7, #12]
 80030f2:	2200      	movs	r2, #0
 80030f4:	641a      	str	r2, [r3, #64]	@ 0x40

    /* Prepare transfer parameters */
    hi2c->pBuffPtr    = pData;
 80030f6:	68fb      	ldr	r3, [r7, #12]
 80030f8:	6b3a      	ldr	r2, [r7, #48]	@ 0x30
 80030fa:	625a      	str	r2, [r3, #36]	@ 0x24
    hi2c->XferCount   = Size;
 80030fc:	68fb      	ldr	r3, [r7, #12]
 80030fe:	8eba      	ldrh	r2, [r7, #52]	@ 0x34
 8003100:	855a      	strh	r2, [r3, #42]	@ 0x2a
    hi2c->XferSize    = hi2c->XferCount;
 8003102:	68fb      	ldr	r3, [r7, #12]
 8003104:	8d5b      	ldrh	r3, [r3, #42]	@ 0x2a
 8003106:	b29a      	uxth	r2, r3
 8003108:	68fb      	ldr	r3, [r7, #12]
 800310a:	851a      	strh	r2, [r3, #40]	@ 0x28
    hi2c->XferOptions = I2C_NO_OPTION_FRAME;
 800310c:	68fb      	ldr	r3, [r7, #12]
 800310e:	4a62      	ldr	r2, [pc, #392]	@ (8003298 <HAL_I2C_Mem_Read+0x248>)
 8003110:	62da      	str	r2, [r3, #44]	@ 0x2c

    /* Send Slave Address and Memory Address */
    if (I2C_RequestMemoryRead(hi2c, DevAddress, MemAddress, MemAddSize, Timeout, tickstart) != HAL_OK)
 8003112:	88f8      	ldrh	r0, [r7, #6]
 8003114:	893a      	ldrh	r2, [r7, #8]
 8003116:	8979      	ldrh	r1, [r7, #10]
 8003118:	6a7b      	ldr	r3, [r7, #36]	@ 0x24
 800311a:	9301      	str	r3, [sp, #4]
 800311c:	6bbb      	ldr	r3, [r7, #56]	@ 0x38
 800311e:	9300      	str	r3, [sp, #0]
 8003120:	4603      	mov	r3, r0
 8003122:	68f8      	ldr	r0, [r7, #12]
 8003124:	f000 fb36 	bl	8003794 <I2C_RequestMemoryRead>
 8003128:	4603      	mov	r3, r0
 800312a:	2b00      	cmp	r3, #0
 800312c:	d001      	beq.n	8003132 <HAL_I2C_Mem_Read+0xe2>
    {
      return HAL_ERROR;
 800312e:	2301      	movs	r3, #1
 8003130:	e1f8      	b.n	8003524 <HAL_I2C_Mem_Read+0x4d4>
    }

    if (hi2c->XferSize == 0U)
 8003132:	68fb      	ldr	r3, [r7, #12]
 8003134:	8d1b      	ldrh	r3, [r3, #40]	@ 0x28
 8003136:	2b00      	cmp	r3, #0
 8003138:	d113      	bne.n	8003162 <HAL_I2C_Mem_Read+0x112>
    {
      /* Clear ADDR flag */
      __HAL_I2C_CLEAR_ADDRFLAG(hi2c);
 800313a:	2300      	movs	r3, #0
 800313c:	61fb      	str	r3, [r7, #28]
 800313e:	68fb      	ldr	r3, [r7, #12]
 8003140:	681b      	ldr	r3, [r3, #0]
 8003142:	695b      	ldr	r3, [r3, #20]
 8003144:	61fb      	str	r3, [r7, #28]
 8003146:	68fb      	ldr	r3, [r7, #12]
 8003148:	681b      	ldr	r3, [r3, #0]
 800314a:	699b      	ldr	r3, [r3, #24]
 800314c:	61fb      	str	r3, [r7, #28]
 800314e:	69fb      	ldr	r3, [r7, #28]

      /* Generate Stop */
      SET_BIT(hi2c->Instance->CR1, I2C_CR1_STOP);
 8003150:	68fb      	ldr	r3, [r7, #12]
 8003152:	681b      	ldr	r3, [r3, #0]
 8003154:	681a      	ldr	r2, [r3, #0]
 8003156:	68fb      	ldr	r3, [r7, #12]
 8003158:	681b      	ldr	r3, [r3, #0]
 800315a:	f442 7200 	orr.w	r2, r2, #512	@ 0x200
 800315e:	601a      	str	r2, [r3, #0]
 8003160:	e1cc      	b.n	80034fc <HAL_I2C_Mem_Read+0x4ac>
    }
    else if (hi2c->XferSize == 1U)
 8003162:	68fb      	ldr	r3, [r7, #12]
 8003164:	8d1b      	ldrh	r3, [r3, #40]	@ 0x28
 8003166:	2b01      	cmp	r3, #1
 8003168:	d11e      	bne.n	80031a8 <HAL_I2C_Mem_Read+0x158>
    {
      /* Disable Acknowledge */
      CLEAR_BIT(hi2c->Instance->CR1, I2C_CR1_ACK);
 800316a:	68fb      	ldr	r3, [r7, #12]
 800316c:	681b      	ldr	r3, [r3, #0]
 800316e:	681a      	ldr	r2, [r3, #0]
 8003170:	68fb      	ldr	r3, [r7, #12]
 8003172:	681b      	ldr	r3, [r3, #0]
 8003174:	f422 6280 	bic.w	r2, r2, #1024	@ 0x400
 8003178:	601a      	str	r2, [r3, #0]
  __ASM volatile ("cpsid i" : : : "memory");
 800317a:	b672      	cpsid	i
}
 800317c:	bf00      	nop
      /* Disable all active IRQs around ADDR clearing and STOP programming because the EV6_3
         software sequence must complete before the current byte end of transfer */
      __disable_irq();

      /* Clear ADDR flag */
      __HAL_I2C_CLEAR_ADDRFLAG(hi2c);
 800317e:	2300      	movs	r3, #0
 8003180:	61bb      	str	r3, [r7, #24]
 8003182:	68fb      	ldr	r3, [r7, #12]
 8003184:	681b      	ldr	r3, [r3, #0]
 8003186:	695b      	ldr	r3, [r3, #20]
 8003188:	61bb      	str	r3, [r7, #24]
 800318a:	68fb      	ldr	r3, [r7, #12]
 800318c:	681b      	ldr	r3, [r3, #0]
 800318e:	699b      	ldr	r3, [r3, #24]
 8003190:	61bb      	str	r3, [r7, #24]
 8003192:	69bb      	ldr	r3, [r7, #24]

      /* Generate Stop */
      SET_BIT(hi2c->Instance->CR1, I2C_CR1_STOP);
 8003194:	68fb      	ldr	r3, [r7, #12]
 8003196:	681b      	ldr	r3, [r3, #0]
 8003198:	681a      	ldr	r2, [r3, #0]
 800319a:	68fb      	ldr	r3, [r7, #12]
 800319c:	681b      	ldr	r3, [r3, #0]
 800319e:	f442 7200 	orr.w	r2, r2, #512	@ 0x200
 80031a2:	601a      	str	r2, [r3, #0]
  __ASM volatile ("cpsie i" : : : "memory");
 80031a4:	b662      	cpsie	i
}
 80031a6:	e035      	b.n	8003214 <HAL_I2C_Mem_Read+0x1c4>

      /* Re-enable IRQs */
      __enable_irq();
    }
    else if (hi2c->XferSize == 2U)
 80031a8:	68fb      	ldr	r3, [r7, #12]
 80031aa:	8d1b      	ldrh	r3, [r3, #40]	@ 0x28
 80031ac:	2b02      	cmp	r3, #2
 80031ae:	d11e      	bne.n	80031ee <HAL_I2C_Mem_Read+0x19e>
    {
      /* Enable Pos */
      SET_BIT(hi2c->Instance->CR1, I2C_CR1_POS);
 80031b0:	68fb      	ldr	r3, [r7, #12]
 80031b2:	681b      	ldr	r3, [r3, #0]
 80031b4:	681a      	ldr	r2, [r3, #0]
 80031b6:	68fb      	ldr	r3, [r7, #12]
 80031b8:	681b      	ldr	r3, [r3, #0]
 80031ba:	f442 6200 	orr.w	r2, r2, #2048	@ 0x800
 80031be:	601a      	str	r2, [r3, #0]
  __ASM volatile ("cpsid i" : : : "memory");
 80031c0:	b672      	cpsid	i
}
 80031c2:	bf00      	nop
      /* Disable all active IRQs around ADDR clearing and STOP programming because the EV6_3
         software sequence must complete before the current byte end of transfer */
      __disable_irq();

      /* Clear ADDR flag */
      __HAL_I2C_CLEAR_ADDRFLAG(hi2c);
 80031c4:	2300      	movs	r3, #0
 80031c6:	617b      	str	r3, [r7, #20]
 80031c8:	68fb      	ldr	r3, [r7, #12]
 80031ca:	681b      	ldr	r3, [r3, #0]
 80031cc:	695b      	ldr	r3, [r3, #20]
 80031ce:	617b      	str	r3, [r7, #20]
 80031d0:	68fb      	ldr	r3, [r7, #12]
 80031d2:	681b      	ldr	r3, [r3, #0]
 80031d4:	699b      	ldr	r3, [r3, #24]
 80031d6:	617b      	str	r3, [r7, #20]
 80031d8:	697b      	ldr	r3, [r7, #20]

      /* Disable Acknowledge */
      CLEAR_BIT(hi2c->Instance->CR1, I2C_CR1_ACK);
 80031da:	68fb      	ldr	r3, [r7, #12]
 80031dc:	681b      	ldr	r3, [r3, #0]
 80031de:	681a      	ldr	r2, [r3, #0]
 80031e0:	68fb      	ldr	r3, [r7, #12]
 80031e2:	681b      	ldr	r3, [r3, #0]
 80031e4:	f422 6280 	bic.w	r2, r2, #1024	@ 0x400
 80031e8:	601a      	str	r2, [r3, #0]
  __ASM volatile ("cpsie i" : : : "memory");
 80031ea:	b662      	cpsie	i
}
 80031ec:	e012      	b.n	8003214 <HAL_I2C_Mem_Read+0x1c4>
      __enable_irq();
    }
    else
    {
      /* Enable Acknowledge */
      SET_BIT(hi2c->Instance->CR1, I2C_CR1_ACK);
 80031ee:	68fb      	ldr	r3, [r7, #12]
 80031f0:	681b      	ldr	r3, [r3, #0]
 80031f2:	681a      	ldr	r2, [r3, #0]
 80031f4:	68fb      	ldr	r3, [r7, #12]
 80031f6:	681b      	ldr	r3, [r3, #0]
 80031f8:	f442 6280 	orr.w	r2, r2, #1024	@ 0x400
 80031fc:	601a      	str	r2, [r3, #0]
      /* Clear ADDR flag */
      __HAL_I2C_CLEAR_ADDRFLAG(hi2c);
 80031fe:	2300      	movs	r3, #0
 8003200:	613b      	str	r3, [r7, #16]
 8003202:	68fb      	ldr	r3, [r7, #12]
 8003204:	681b      	ldr	r3, [r3, #0]
 8003206:	695b      	ldr	r3, [r3, #20]
 8003208:	613b      	str	r3, [r7, #16]
 800320a:	68fb      	ldr	r3, [r7, #12]
 800320c:	681b      	ldr	r3, [r3, #0]
 800320e:	699b      	ldr	r3, [r3, #24]
 8003210:	613b      	str	r3, [r7, #16]
 8003212:	693b      	ldr	r3, [r7, #16]
    }

    while (hi2c->XferSize > 0U)
 8003214:	e172      	b.n	80034fc <HAL_I2C_Mem_Read+0x4ac>
    {
      if (hi2c->XferSize <= 3U)
 8003216:	68fb      	ldr	r3, [r7, #12]
 8003218:	8d1b      	ldrh	r3, [r3, #40]	@ 0x28
 800321a:	2b03      	cmp	r3, #3
 800321c:	f200 811f 	bhi.w	800345e <HAL_I2C_Mem_Read+0x40e>
      {
        /* One byte */
        if (hi2c->XferSize == 1U)
 8003220:	68fb      	ldr	r3, [r7, #12]
 8003222:	8d1b      	ldrh	r3, [r3, #40]	@ 0x28
 8003224:	2b01      	cmp	r3, #1
 8003226:	d123      	bne.n	8003270 <HAL_I2C_Mem_Read+0x220>
        {
          /* Wait until RXNE flag is set */
          if (I2C_WaitOnRXNEFlagUntilTimeout(hi2c, Timeout, tickstart) != HAL_OK)
 8003228:	6a7a      	ldr	r2, [r7, #36]	@ 0x24
 800322a:	6bb9      	ldr	r1, [r7, #56]	@ 0x38
 800322c:	68f8      	ldr	r0, [r7, #12]
 800322e:	f000 fcfb 	bl	8003c28 <I2C_WaitOnRXNEFlagUntilTimeout>
 8003232:	4603      	mov	r3, r0
 8003234:	2b00      	cmp	r3, #0
 8003236:	d001      	beq.n	800323c <HAL_I2C_Mem_Read+0x1ec>
          {
            return HAL_ERROR;
 8003238:	2301      	movs	r3, #1
 800323a:	e173      	b.n	8003524 <HAL_I2C_Mem_Read+0x4d4>
          }

          /* Read data from DR */
          *hi2c->pBuffPtr = (uint8_t)hi2c->Instance->DR;
 800323c:	68fb      	ldr	r3, [r7, #12]
 800323e:	681b      	ldr	r3, [r3, #0]
 8003240:	691a      	ldr	r2, [r3, #16]
 8003242:	68fb      	ldr	r3, [r7, #12]
 8003244:	6a5b      	ldr	r3, [r3, #36]	@ 0x24
 8003246:	b2d2      	uxtb	r2, r2
 8003248:	701a      	strb	r2, [r3, #0]

          /* Increment Buffer pointer */
          hi2c->pBuffPtr++;
 800324a:	68fb      	ldr	r3, [r7, #12]
 800324c:	6a5b      	ldr	r3, [r3, #36]	@ 0x24
 800324e:	1c5a      	adds	r2, r3, #1
 8003250:	68fb      	ldr	r3, [r7, #12]
 8003252:	625a      	str	r2, [r3, #36]	@ 0x24

          /* Update counter */
          hi2c->XferSize--;
 8003254:	68fb      	ldr	r3, [r7, #12]
 8003256:	8d1b      	ldrh	r3, [r3, #40]	@ 0x28
 8003258:	3b01      	subs	r3, #1
 800325a:	b29a      	uxth	r2, r3
 800325c:	68fb      	ldr	r3, [r7, #12]
 800325e:	851a      	strh	r2, [r3, #40]	@ 0x28
          hi2c->XferCount--;
 8003260:	68fb      	ldr	r3, [r7, #12]
 8003262:	8d5b      	ldrh	r3, [r3, #42]	@ 0x2a
 8003264:	b29b      	uxth	r3, r3
 8003266:	3b01      	subs	r3, #1
 8003268:	b29a      	uxth	r2, r3
 800326a:	68fb      	ldr	r3, [r7, #12]
 800326c:	855a      	strh	r2, [r3, #42]	@ 0x2a
 800326e:	e145      	b.n	80034fc <HAL_I2C_Mem_Read+0x4ac>
        }
        /* Two bytes */
        else if (hi2c->XferSize == 2U)
 8003270:	68fb      	ldr	r3, [r7, #12]
 8003272:	8d1b      	ldrh	r3, [r3, #40]	@ 0x28
 8003274:	2b02      	cmp	r3, #2
 8003276:	d152      	bne.n	800331e <HAL_I2C_Mem_Read+0x2ce>
        {
          /* Wait until BTF flag is set */
          if (I2C_WaitOnFlagUntilTimeout(hi2c, I2C_FLAG_BTF, RESET, Timeout, tickstart) != HAL_OK)
 8003278:	6a7b      	ldr	r3, [r7, #36]	@ 0x24
 800327a:	9300      	str	r3, [sp, #0]
 800327c:	6bbb      	ldr	r3, [r7, #56]	@ 0x38
 800327e:	2200      	movs	r2, #0
 8003280:	4906      	ldr	r1, [pc, #24]	@ (800329c <HAL_I2C_Mem_Read+0x24c>)
 8003282:	68f8      	ldr	r0, [r7, #12]
 8003284:	f000 fb6e 	bl	8003964 <I2C_WaitOnFlagUntilTimeout>
 8003288:	4603      	mov	r3, r0
 800328a:	2b00      	cmp	r3, #0
 800328c:	d008      	beq.n	80032a0 <HAL_I2C_Mem_Read+0x250>
          {
            return HAL_ERROR;
 800328e:	2301      	movs	r3, #1
 8003290:	e148      	b.n	8003524 <HAL_I2C_Mem_Read+0x4d4>
 8003292:	bf00      	nop
 8003294:	00100002 	.word	0x00100002
 8003298:	ffff0000 	.word	0xffff0000
 800329c:	00010004 	.word	0x00010004
  __ASM volatile ("cpsid i" : : : "memory");
 80032a0:	b672      	cpsid	i
}
 80032a2:	bf00      	nop
          /* Disable all active IRQs around ADDR clearing and STOP programming because the EV6_3
             software sequence must complete before the current byte end of transfer */
          __disable_irq();

          /* Generate Stop */
          SET_BIT(hi2c->Instance->CR1, I2C_CR1_STOP);
 80032a4:	68fb      	ldr	r3, [r7, #12]
 80032a6:	681b      	ldr	r3, [r3, #0]
 80032a8:	681a      	ldr	r2, [r3, #0]
 80032aa:	68fb      	ldr	r3, [r7, #12]
 80032ac:	681b      	ldr	r3, [r3, #0]
 80032ae:	f442 7200 	orr.w	r2, r2, #512	@ 0x200
 80032b2:	601a      	str	r2, [r3, #0]

          /* Read data from DR */
          *hi2c->pBuffPtr = (uint8_t)hi2c->Instance->DR;
 80032b4:	68fb      	ldr	r3, [r7, #12]
 80032b6:	681b      	ldr	r3, [r3, #0]
 80032b8:	691a      	ldr	r2, [r3, #16]
 80032ba:	68fb      	ldr	r3, [r7, #12]
 80032bc:	6a5b      	ldr	r3, [r3, #36]	@ 0x24
 80032be:	b2d2      	uxtb	r2, r2
 80032c0:	701a      	strb	r2, [r3, #0]

          /* Increment Buffer pointer */
          hi2c->pBuffPtr++;
 80032c2:	68fb      	ldr	r3, [r7, #12]
 80032c4:	6a5b      	ldr	r3, [r3, #36]	@ 0x24
 80032c6:	1c5a      	adds	r2, r3, #1
 80032c8:	68fb      	ldr	r3, [r7, #12]
 80032ca:	625a      	str	r2, [r3, #36]	@ 0x24

          /* Update counter */
          hi2c->XferSize--;
 80032cc:	68fb      	ldr	r3, [r7, #12]
 80032ce:	8d1b      	ldrh	r3, [r3, #40]	@ 0x28
 80032d0:	3b01      	subs	r3, #1
 80032d2:	b29a      	uxth	r2, r3
 80032d4:	68fb      	ldr	r3, [r7, #12]
 80032d6:	851a      	strh	r2, [r3, #40]	@ 0x28
          hi2c->XferCount--;
 80032d8:	68fb      	ldr	r3, [r7, #12]
 80032da:	8d5b      	ldrh	r3, [r3, #42]	@ 0x2a
 80032dc:	b29b      	uxth	r3, r3
 80032de:	3b01      	subs	r3, #1
 80032e0:	b29a      	uxth	r2, r3
 80032e2:	68fb      	ldr	r3, [r7, #12]
 80032e4:	855a      	strh	r2, [r3, #42]	@ 0x2a
  __ASM volatile ("cpsie i" : : : "memory");
 80032e6:	b662      	cpsie	i
}
 80032e8:	bf00      	nop

          /* Re-enable IRQs */
          __enable_irq();

          /* Read data from DR */
          *hi2c->pBuffPtr = (uint8_t)hi2c->Instance->DR;
 80032ea:	68fb      	ldr	r3, [r7, #12]
 80032ec:	681b      	ldr	r3, [r3, #0]
 80032ee:	691a      	ldr	r2, [r3, #16]
 80032f0:	68fb      	ldr	r3, [r7, #12]
 80032f2:	6a5b      	ldr	r3, [r3, #36]	@ 0x24
 80032f4:	b2d2      	uxtb	r2, r2
 80032f6:	701a      	strb	r2, [r3, #0]

          /* Increment Buffer pointer */
          hi2c->pBuffPtr++;
 80032f8:	68fb      	ldr	r3, [r7, #12]
 80032fa:	6a5b      	ldr	r3, [r3, #36]	@ 0x24
 80032fc:	1c5a      	adds	r2, r3, #1
 80032fe:	68fb      	ldr	r3, [r7, #12]
 8003300:	625a      	str	r2, [r3, #36]	@ 0x24

          /* Update counter */
          hi2c->XferSize--;
 8003302:	68fb      	ldr	r3, [r7, #12]
 8003304:	8d1b      	ldrh	r3, [r3, #40]	@ 0x28
 8003306:	3b01      	subs	r3, #1
 8003308:	b29a      	uxth	r2, r3
 800330a:	68fb      	ldr	r3, [r7, #12]
 800330c:	851a      	strh	r2, [r3, #40]	@ 0x28
          hi2c->XferCount--;
 800330e:	68fb      	ldr	r3, [r7, #12]
 8003310:	8d5b      	ldrh	r3, [r3, #42]	@ 0x2a
 8003312:	b29b      	uxth	r3, r3
 8003314:	3b01      	subs	r3, #1
 8003316:	b29a      	uxth	r2, r3
 8003318:	68fb      	ldr	r3, [r7, #12]
 800331a:	855a      	strh	r2, [r3, #42]	@ 0x2a
 800331c:	e0ee      	b.n	80034fc <HAL_I2C_Mem_Read+0x4ac>
        }
        /* 3 Last bytes */
        else
        {
          /* Wait until BTF flag is set */
          if (I2C_WaitOnFlagUntilTimeout(hi2c, I2C_FLAG_BTF, RESET, Timeout, tickstart) != HAL_OK)
 800331e:	6a7b      	ldr	r3, [r7, #36]	@ 0x24
 8003320:	9300      	str	r3, [sp, #0]
 8003322:	6bbb      	ldr	r3, [r7, #56]	@ 0x38
 8003324:	2200      	movs	r2, #0
 8003326:	4981      	ldr	r1, [pc, #516]	@ (800352c <HAL_I2C_Mem_Read+0x4dc>)
 8003328:	68f8      	ldr	r0, [r7, #12]
 800332a:	f000 fb1b 	bl	8003964 <I2C_WaitOnFlagUntilTimeout>
 800332e:	4603      	mov	r3, r0
 8003330:	2b00      	cmp	r3, #0
 8003332:	d001      	beq.n	8003338 <HAL_I2C_Mem_Read+0x2e8>
          {
            return HAL_ERROR;
 8003334:	2301      	movs	r3, #1
 8003336:	e0f5      	b.n	8003524 <HAL_I2C_Mem_Read+0x4d4>
          }

          /* Disable Acknowledge */
          CLEAR_BIT(hi2c->Instance->CR1, I2C_CR1_ACK);
 8003338:	68fb      	ldr	r3, [r7, #12]
 800333a:	681b      	ldr	r3, [r3, #0]
 800333c:	681a      	ldr	r2, [r3, #0]
 800333e:	68fb      	ldr	r3, [r7, #12]
 8003340:	681b      	ldr	r3, [r3, #0]
 8003342:	f422 6280 	bic.w	r2, r2, #1024	@ 0x400
 8003346:	601a      	str	r2, [r3, #0]
  __ASM volatile ("cpsid i" : : : "memory");
 8003348:	b672      	cpsid	i
}
 800334a:	bf00      	nop
          /* Disable all active IRQs around ADDR clearing and STOP programming because the EV6_3
             software sequence must complete before the current byte end of transfer */
          __disable_irq();

          /* Read data from DR */
          *hi2c->pBuffPtr = (uint8_t)hi2c->Instance->DR;
 800334c:	68fb      	ldr	r3, [r7, #12]
 800334e:	681b      	ldr	r3, [r3, #0]
 8003350:	691a      	ldr	r2, [r3, #16]
 8003352:	68fb      	ldr	r3, [r7, #12]
 8003354:	6a5b      	ldr	r3, [r3, #36]	@ 0x24
 8003356:	b2d2      	uxtb	r2, r2
 8003358:	701a      	strb	r2, [r3, #0]

          /* Increment Buffer pointer */
          hi2c->pBuffPtr++;
 800335a:	68fb      	ldr	r3, [r7, #12]
 800335c:	6a5b      	ldr	r3, [r3, #36]	@ 0x24
 800335e:	1c5a      	adds	r2, r3, #1
 8003360:	68fb      	ldr	r3, [r7, #12]
 8003362:	625a      	str	r2, [r3, #36]	@ 0x24

          /* Update counter */
          hi2c->XferSize--;
 8003364:	68fb      	ldr	r3, [r7, #12]
 8003366:	8d1b      	ldrh	r3, [r3, #40]	@ 0x28
 8003368:	3b01      	subs	r3, #1
 800336a:	b29a      	uxth	r2, r3
 800336c:	68fb      	ldr	r3, [r7, #12]
 800336e:	851a      	strh	r2, [r3, #40]	@ 0x28
          hi2c->XferCount--;
 8003370:	68fb      	ldr	r3, [r7, #12]
 8003372:	8d5b      	ldrh	r3, [r3, #42]	@ 0x2a
 8003374:	b29b      	uxth	r3, r3
 8003376:	3b01      	subs	r3, #1
 8003378:	b29a      	uxth	r2, r3
 800337a:	68fb      	ldr	r3, [r7, #12]
 800337c:	855a      	strh	r2, [r3, #42]	@ 0x2a

          /* Wait until BTF flag is set */
          count = I2C_TIMEOUT_FLAG * (SystemCoreClock / 25U / 1000U);
 800337e:	4b6c      	ldr	r3, [pc, #432]	@ (8003530 <HAL_I2C_Mem_Read+0x4e0>)
 8003380:	681b      	ldr	r3, [r3, #0]
 8003382:	08db      	lsrs	r3, r3, #3
 8003384:	4a6b      	ldr	r2, [pc, #428]	@ (8003534 <HAL_I2C_Mem_Read+0x4e4>)
 8003386:	fba2 2303 	umull	r2, r3, r2, r3
 800338a:	0a1a      	lsrs	r2, r3, #8
 800338c:	4613      	mov	r3, r2
 800338e:	009b      	lsls	r3, r3, #2
 8003390:	4413      	add	r3, r2
 8003392:	00da      	lsls	r2, r3, #3
 8003394:	1ad3      	subs	r3, r2, r3
 8003396:	623b      	str	r3, [r7, #32]
          do
          {
            count--;
 8003398:	6a3b      	ldr	r3, [r7, #32]
 800339a:	3b01      	subs	r3, #1
 800339c:	623b      	str	r3, [r7, #32]
            if (count == 0U)
 800339e:	6a3b      	ldr	r3, [r7, #32]
 80033a0:	2b00      	cmp	r3, #0
 80033a2:	d118      	bne.n	80033d6 <HAL_I2C_Mem_Read+0x386>
            {
              hi2c->PreviousState       = I2C_STATE_NONE;
 80033a4:	68fb      	ldr	r3, [r7, #12]
 80033a6:	2200      	movs	r2, #0
 80033a8:	631a      	str	r2, [r3, #48]	@ 0x30
              hi2c->State               = HAL_I2C_STATE_READY;
 80033aa:	68fb      	ldr	r3, [r7, #12]
 80033ac:	2220      	movs	r2, #32
 80033ae:	f883 203d 	strb.w	r2, [r3, #61]	@ 0x3d
              hi2c->Mode                = HAL_I2C_MODE_NONE;
 80033b2:	68fb      	ldr	r3, [r7, #12]
 80033b4:	2200      	movs	r2, #0
 80033b6:	f883 203e 	strb.w	r2, [r3, #62]	@ 0x3e
              hi2c->ErrorCode           |= HAL_I2C_ERROR_TIMEOUT;
 80033ba:	68fb      	ldr	r3, [r7, #12]
 80033bc:	6c1b      	ldr	r3, [r3, #64]	@ 0x40
 80033be:	f043 0220 	orr.w	r2, r3, #32
 80033c2:	68fb      	ldr	r3, [r7, #12]
 80033c4:	641a      	str	r2, [r3, #64]	@ 0x40
  __ASM volatile ("cpsie i" : : : "memory");
 80033c6:	b662      	cpsie	i
}
 80033c8:	bf00      	nop

              /* Re-enable IRQs */
              __enable_irq();

              /* Process Unlocked */
              __HAL_UNLOCK(hi2c);
 80033ca:	68fb      	ldr	r3, [r7, #12]
 80033cc:	2200      	movs	r2, #0
 80033ce:	f883 203c 	strb.w	r2, [r3, #60]	@ 0x3c

              return HAL_ERROR;
 80033d2:	2301      	movs	r3, #1
 80033d4:	e0a6      	b.n	8003524 <HAL_I2C_Mem_Read+0x4d4>
            }
          }
          while (__HAL_I2C_GET_FLAG(hi2c, I2C_FLAG_BTF) == RESET);
 80033d6:	68fb      	ldr	r3, [r7, #12]
 80033d8:	681b      	ldr	r3, [r3, #0]
 80033da:	695b      	ldr	r3, [r3, #20]
 80033dc:	f003 0304 	and.w	r3, r3, #4
 80033e0:	2b04      	cmp	r3, #4
 80033e2:	d1d9      	bne.n	8003398 <HAL_I2C_Mem_Read+0x348>

          /* Generate Stop */
          SET_BIT(hi2c->Instance->CR1, I2C_CR1_STOP);
 80033e4:	68fb      	ldr	r3, [r7, #12]
 80033e6:	681b      	ldr	r3, [r3, #0]
 80033e8:	681a      	ldr	r2, [r3, #0]
 80033ea:	68fb      	ldr	r3, [r7, #12]
 80033ec:	681b      	ldr	r3, [r3, #0]
 80033ee:	f442 7200 	orr.w	r2, r2, #512	@ 0x200
 80033f2:	601a      	str	r2, [r3, #0]

          /* Read data from DR */
          *hi2c->pBuffPtr = (uint8_t)hi2c->Instance->DR;
 80033f4:	68fb      	ldr	r3, [r7, #12]
 80033f6:	681b      	ldr	r3, [r3, #0]
 80033f8:	691a      	ldr	r2, [r3, #16]
 80033fa:	68fb      	ldr	r3, [r7, #12]
 80033fc:	6a5b      	ldr	r3, [r3, #36]	@ 0x24
 80033fe:	b2d2      	uxtb	r2, r2
 8003400:	701a      	strb	r2, [r3, #0]

          /* Increment Buffer pointer */
          hi2c->pBuffPtr++;
 8003402:	68fb      	ldr	r3, [r7, #12]
 8003404:	6a5b      	ldr	r3, [r3, #36]	@ 0x24
 8003406:	1c5a      	adds	r2, r3, #1
 8003408:	68fb      	ldr	r3, [r7, #12]
 800340a:	625a      	str	r2, [r3, #36]	@ 0x24

          /* Update counter */
          hi2c->XferSize--;
 800340c:	68fb      	ldr	r3, [r7, #12]
 800340e:	8d1b      	ldrh	r3, [r3, #40]	@ 0x28
 8003410:	3b01      	subs	r3, #1
 8003412:	b29a      	uxth	r2, r3
 8003414:	68fb      	ldr	r3, [r7, #12]
 8003416:	851a      	strh	r2, [r3, #40]	@ 0x28
          hi2c->XferCount--;
 8003418:	68fb      	ldr	r3, [r7, #12]
 800341a:	8d5b      	ldrh	r3, [r3, #42]	@ 0x2a
 800341c:	b29b      	uxth	r3, r3
 800341e:	3b01      	subs	r3, #1
 8003420:	b29a      	uxth	r2, r3
 8003422:	68fb      	ldr	r3, [r7, #12]
 8003424:	855a      	strh	r2, [r3, #42]	@ 0x2a
  __ASM volatile ("cpsie i" : : : "memory");
 8003426:	b662      	cpsie	i
}
 8003428:	bf00      	nop

          /* Re-enable IRQs */
          __enable_irq();

          /* Read data from DR */
          *hi2c->pBuffPtr = (uint8_t)hi2c->Instance->DR;
 800342a:	68fb      	ldr	r3, [r7, #12]
 800342c:	681b      	ldr	r3, [r3, #0]
 800342e:	691a      	ldr	r2, [r3, #16]
 8003430:	68fb      	ldr	r3, [r7, #12]
 8003432:	6a5b      	ldr	r3, [r3, #36]	@ 0x24
 8003434:	b2d2      	uxtb	r2, r2
 8003436:	701a      	strb	r2, [r3, #0]

          /* Increment Buffer pointer */
          hi2c->pBuffPtr++;
 8003438:	68fb      	ldr	r3, [r7, #12]
 800343a:	6a5b      	ldr	r3, [r3, #36]	@ 0x24
 800343c:	1c5a      	adds	r2, r3, #1
 800343e:	68fb      	ldr	r3, [r7, #12]
 8003440:	625a      	str	r2, [r3, #36]	@ 0x24

          /* Update counter */
          hi2c->XferSize--;
 8003442:	68fb      	ldr	r3, [r7, #12]
 8003444:	8d1b      	ldrh	r3, [r3, #40]	@ 0x28
 8003446:	3b01      	subs	r3, #1
 8003448:	b29a      	uxth	r2, r3
 800344a:	68fb      	ldr	r3, [r7, #12]
 800344c:	851a      	strh	r2, [r3, #40]	@ 0x28
          hi2c->XferCount--;
 800344e:	68fb      	ldr	r3, [r7, #12]
 8003450:	8d5b      	ldrh	r3, [r3, #42]	@ 0x2a
 8003452:	b29b      	uxth	r3, r3
 8003454:	3b01      	subs	r3, #1
 8003456:	b29a      	uxth	r2, r3
 8003458:	68fb      	ldr	r3, [r7, #12]
 800345a:	855a      	strh	r2, [r3, #42]	@ 0x2a
 800345c:	e04e      	b.n	80034fc <HAL_I2C_Mem_Read+0x4ac>
        }
      }
      else
      {
        /* Wait until RXNE flag is set */
        if (I2C_WaitOnRXNEFlagUntilTimeout(hi2c, Timeout, tickstart) != HAL_OK)
 800345e:	6a7a      	ldr	r2, [r7, #36]	@ 0x24
 8003460:	6bb9      	ldr	r1, [r7, #56]	@ 0x38
 8003462:	68f8      	ldr	r0, [r7, #12]
 8003464:	f000 fbe0 	bl	8003c28 <I2C_WaitOnRXNEFlagUntilTimeout>
 8003468:	4603      	mov	r3, r0
 800346a:	2b00      	cmp	r3, #0
 800346c:	d001      	beq.n	8003472 <HAL_I2C_Mem_Read+0x422>
        {
          return HAL_ERROR;
 800346e:	2301      	movs	r3, #1
 8003470:	e058      	b.n	8003524 <HAL_I2C_Mem_Read+0x4d4>
        }

        /* Read data from DR */
        *hi2c->pBuffPtr = (uint8_t)hi2c->Instance->DR;
 8003472:	68fb      	ldr	r3, [r7, #12]
 8003474:	681b      	ldr	r3, [r3, #0]
 8003476:	691a      	ldr	r2, [r3, #16]
 8003478:	68fb      	ldr	r3, [r7, #12]
 800347a:	6a5b      	ldr	r3, [r3, #36]	@ 0x24
 800347c:	b2d2      	uxtb	r2, r2
 800347e:	701a      	strb	r2, [r3, #0]

        /* Increment Buffer pointer */
        hi2c->pBuffPtr++;
 8003480:	68fb      	ldr	r3, [r7, #12]
 8003482:	6a5b      	ldr	r3, [r3, #36]	@ 0x24
 8003484:	1c5a      	adds	r2, r3, #1
 8003486:	68fb      	ldr	r3, [r7, #12]
 8003488:	625a      	str	r2, [r3, #36]	@ 0x24

        /* Update counter */
        hi2c->XferSize--;
 800348a:	68fb      	ldr	r3, [r7, #12]
 800348c:	8d1b      	ldrh	r3, [r3, #40]	@ 0x28
 800348e:	3b01      	subs	r3, #1
 8003490:	b29a      	uxth	r2, r3
 8003492:	68fb      	ldr	r3, [r7, #12]
 8003494:	851a      	strh	r2, [r3, #40]	@ 0x28
        hi2c->XferCount--;
 8003496:	68fb      	ldr	r3, [r7, #12]
 8003498:	8d5b      	ldrh	r3, [r3, #42]	@ 0x2a
 800349a:	b29b      	uxth	r3, r3
 800349c:	3b01      	subs	r3, #1
 800349e:	b29a      	uxth	r2, r3
 80034a0:	68fb      	ldr	r3, [r7, #12]
 80034a2:	855a      	strh	r2, [r3, #42]	@ 0x2a

        if (__HAL_I2C_GET_FLAG(hi2c, I2C_FLAG_BTF) == SET)
 80034a4:	68fb      	ldr	r3, [r7, #12]
 80034a6:	681b      	ldr	r3, [r3, #0]
 80034a8:	695b      	ldr	r3, [r3, #20]
 80034aa:	f003 0304 	and.w	r3, r3, #4
 80034ae:	2b04      	cmp	r3, #4
 80034b0:	d124      	bne.n	80034fc <HAL_I2C_Mem_Read+0x4ac>
        {
          if (hi2c->XferSize == 3U)
 80034b2:	68fb      	ldr	r3, [r7, #12]
 80034b4:	8d1b      	ldrh	r3, [r3, #40]	@ 0x28
 80034b6:	2b03      	cmp	r3, #3
 80034b8:	d107      	bne.n	80034ca <HAL_I2C_Mem_Read+0x47a>
          {
            /* Disable Acknowledge */
            CLEAR_BIT(hi2c->Instance->CR1, I2C_CR1_ACK);
 80034ba:	68fb      	ldr	r3, [r7, #12]
 80034bc:	681b      	ldr	r3, [r3, #0]
 80034be:	681a      	ldr	r2, [r3, #0]
 80034c0:	68fb      	ldr	r3, [r7, #12]
 80034c2:	681b      	ldr	r3, [r3, #0]
 80034c4:	f422 6280 	bic.w	r2, r2, #1024	@ 0x400
 80034c8:	601a      	str	r2, [r3, #0]
          }
          /* Read data from DR */
          *hi2c->pBuffPtr = (uint8_t)hi2c->Instance->DR;
 80034ca:	68fb      	ldr	r3, [r7, #12]
 80034cc:	681b      	ldr	r3, [r3, #0]
 80034ce:	691a      	ldr	r2, [r3, #16]
 80034d0:	68fb      	ldr	r3, [r7, #12]
 80034d2:	6a5b      	ldr	r3, [r3, #36]	@ 0x24
 80034d4:	b2d2      	uxtb	r2, r2
 80034d6:	701a      	strb	r2, [r3, #0]

          /* Increment Buffer pointer */
          hi2c->pBuffPtr++;
 80034d8:	68fb      	ldr	r3, [r7, #12]
 80034da:	6a5b      	ldr	r3, [r3, #36]	@ 0x24
 80034dc:	1c5a      	adds	r2, r3, #1
 80034de:	68fb      	ldr	r3, [r7, #12]
 80034e0:	625a      	str	r2, [r3, #36]	@ 0x24

          /* Update counter */
          hi2c->XferSize--;
 80034e2:	68fb      	ldr	r3, [r7, #12]
 80034e4:	8d1b      	ldrh	r3, [r3, #40]	@ 0x28
 80034e6:	3b01      	subs	r3, #1
 80034e8:	b29a      	uxth	r2, r3
 80034ea:	68fb      	ldr	r3, [r7, #12]
 80034ec:	851a      	strh	r2, [r3, #40]	@ 0x28
          hi2c->XferCount--;
 80034ee:	68fb      	ldr	r3, [r7, #12]
 80034f0:	8d5b      	ldrh	r3, [r3, #42]	@ 0x2a
 80034f2:	b29b      	uxth	r3, r3
 80034f4:	3b01      	subs	r3, #1
 80034f6:	b29a      	uxth	r2, r3
 80034f8:	68fb      	ldr	r3, [r7, #12]
 80034fa:	855a      	strh	r2, [r3, #42]	@ 0x2a
    while (hi2c->XferSize > 0U)
 80034fc:	68fb      	ldr	r3, [r7, #12]
 80034fe:	8d1b      	ldrh	r3, [r3, #40]	@ 0x28
 8003500:	2b00      	cmp	r3, #0
 8003502:	f47f ae88 	bne.w	8003216 <HAL_I2C_Mem_Read+0x1c6>
        }
      }
    }

    hi2c->State = HAL_I2C_STATE_READY;
 8003506:	68fb      	ldr	r3, [r7, #12]
 8003508:	2220      	movs	r2, #32
 800350a:	f883 203d 	strb.w	r2, [r3, #61]	@ 0x3d
    hi2c->Mode = HAL_I2C_MODE_NONE;
 800350e:	68fb      	ldr	r3, [r7, #12]
 8003510:	2200      	movs	r2, #0
 8003512:	f883 203e 	strb.w	r2, [r3, #62]	@ 0x3e

    /* Process Unlocked */
    __HAL_UNLOCK(hi2c);
 8003516:	68fb      	ldr	r3, [r7, #12]
 8003518:	2200      	movs	r2, #0
 800351a:	f883 203c 	strb.w	r2, [r3, #60]	@ 0x3c

    return HAL_OK;
 800351e:	2300      	movs	r3, #0
 8003520:	e000      	b.n	8003524 <HAL_I2C_Mem_Read+0x4d4>
  }
  else
  {
    return HAL_BUSY;
 8003522:	2302      	movs	r3, #2
  }
}
 8003524:	4618      	mov	r0, r3
 8003526:	3728      	adds	r7, #40	@ 0x28
 8003528:	46bd      	mov	sp, r7
 800352a:	bd80      	pop	{r7, pc}
 800352c:	00010004 	.word	0x00010004
 8003530:	20000008 	.word	0x20000008
 8003534:	14f8b589 	.word	0x14f8b589

08003538 <HAL_I2C_IsDeviceReady>:
  * @param  Trials Number of trials
  * @param  Timeout Timeout duration
  * @retval HAL status
  */
HAL_StatusTypeDef HAL_I2C_IsDeviceReady(I2C_HandleTypeDef *hi2c, uint16_t DevAddress, uint32_t Trials, uint32_t Timeout)
{
 8003538:	b580      	push	{r7, lr}
 800353a:	b08a      	sub	sp, #40	@ 0x28
 800353c:	af02      	add	r7, sp, #8
 800353e:	60f8      	str	r0, [r7, #12]
 8003540:	607a      	str	r2, [r7, #4]
 8003542:	603b      	str	r3, [r7, #0]
 8003544:	460b      	mov	r3, r1
 8003546:	817b      	strh	r3, [r7, #10]
  /* Get tick */
  uint32_t tickstart = HAL_GetTick();
 8003548:	f7fe fd94 	bl	8002074 <HAL_GetTick>
 800354c:	61f8      	str	r0, [r7, #28]
  uint32_t I2C_Trials = 0U;
 800354e:	2300      	movs	r3, #0
 8003550:	61bb      	str	r3, [r7, #24]
  FlagStatus tmp1;
  FlagStatus tmp2;

  if (hi2c->State == HAL_I2C_STATE_READY)
 8003552:	68fb      	ldr	r3, [r7, #12]
 8003554:	f893 303d 	ldrb.w	r3, [r3, #61]	@ 0x3d
 8003558:	b2db      	uxtb	r3, r3
 800355a:	2b20      	cmp	r3, #32
 800355c:	f040 8111 	bne.w	8003782 <HAL_I2C_IsDeviceReady+0x24a>
  {
    /* Wait until BUSY flag is reset */
    if (I2C_WaitOnFlagUntilTimeout(hi2c, I2C_FLAG_BUSY, SET, I2C_TIMEOUT_BUSY_FLAG, tickstart) != HAL_OK)
 8003560:	69fb      	ldr	r3, [r7, #28]
 8003562:	9300      	str	r3, [sp, #0]
 8003564:	2319      	movs	r3, #25
 8003566:	2201      	movs	r2, #1
 8003568:	4988      	ldr	r1, [pc, #544]	@ (800378c <HAL_I2C_IsDeviceReady+0x254>)
 800356a:	68f8      	ldr	r0, [r7, #12]
 800356c:	f000 f9fa 	bl	8003964 <I2C_WaitOnFlagUntilTimeout>
 8003570:	4603      	mov	r3, r0
 8003572:	2b00      	cmp	r3, #0
 8003574:	d001      	beq.n	800357a <HAL_I2C_IsDeviceReady+0x42>
    {
      return HAL_BUSY;
 8003576:	2302      	movs	r3, #2
 8003578:	e104      	b.n	8003784 <HAL_I2C_IsDeviceReady+0x24c>
    }

    /* Process Locked */
    __HAL_LOCK(hi2c);
 800357a:	68fb      	ldr	r3, [r7, #12]
 800357c:	f893 303c 	ldrb.w	r3, [r3, #60]	@ 0x3c
 8003580:	2b01      	cmp	r3, #1
 8003582:	d101      	bne.n	8003588 <HAL_I2C_IsDeviceReady+0x50>
 8003584:	2302      	movs	r3, #2
 8003586:	e0fd      	b.n	8003784 <HAL_I2C_IsDeviceReady+0x24c>
 8003588:	68fb      	ldr	r3, [r7, #12]
 800358a:	2201      	movs	r2, #1
 800358c:	f883 203c 	strb.w	r2, [r3, #60]	@ 0x3c

    /* Check if the I2C is already enabled */
    if ((hi2c->Instance->CR1 & I2C_CR1_PE) != I2C_CR1_PE)
 8003590:	68fb      	ldr	r3, [r7, #12]
 8003592:	681b      	ldr	r3, [r3, #0]
 8003594:	681b      	ldr	r3, [r3, #0]
 8003596:	f003 0301 	and.w	r3, r3, #1
 800359a:	2b01      	cmp	r3, #1
 800359c:	d007      	beq.n	80035ae <HAL_I2C_IsDeviceReady+0x76>
    {
      /* Enable I2C peripheral */
      __HAL_I2C_ENABLE(hi2c);
 800359e:	68fb      	ldr	r3, [r7, #12]
 80035a0:	681b      	ldr	r3, [r3, #0]
 80035a2:	681a      	ldr	r2, [r3, #0]
 80035a4:	68fb      	ldr	r3, [r7, #12]
 80035a6:	681b      	ldr	r3, [r3, #0]
 80035a8:	f042 0201 	orr.w	r2, r2, #1
 80035ac:	601a      	str	r2, [r3, #0]
    }

    /* Disable Pos */
    CLEAR_BIT(hi2c->Instance->CR1, I2C_CR1_POS);
 80035ae:	68fb      	ldr	r3, [r7, #12]
 80035b0:	681b      	ldr	r3, [r3, #0]
 80035b2:	681a      	ldr	r2, [r3, #0]
 80035b4:	68fb      	ldr	r3, [r7, #12]
 80035b6:	681b      	ldr	r3, [r3, #0]
 80035b8:	f422 6200 	bic.w	r2, r2, #2048	@ 0x800
 80035bc:	601a      	str	r2, [r3, #0]

    hi2c->State = HAL_I2C_STATE_BUSY;
 80035be:	68fb      	ldr	r3, [r7, #12]
 80035c0:	2224      	movs	r2, #36	@ 0x24
 80035c2:	f883 203d 	strb.w	r2, [r3, #61]	@ 0x3d
    hi2c->ErrorCode = HAL_I2C_ERROR_NONE;
 80035c6:	68fb      	ldr	r3, [r7, #12]
 80035c8:	2200      	movs	r2, #0
 80035ca:	641a      	str	r2, [r3, #64]	@ 0x40
    hi2c->XferOptions = I2C_NO_OPTION_FRAME;
 80035cc:	68fb      	ldr	r3, [r7, #12]
 80035ce:	4a70      	ldr	r2, [pc, #448]	@ (8003790 <HAL_I2C_IsDeviceReady+0x258>)
 80035d0:	62da      	str	r2, [r3, #44]	@ 0x2c

    do
    {
      /* Generate Start */
      SET_BIT(hi2c->Instance->CR1, I2C_CR1_START);
 80035d2:	68fb      	ldr	r3, [r7, #12]
 80035d4:	681b      	ldr	r3, [r3, #0]
 80035d6:	681a      	ldr	r2, [r3, #0]
 80035d8:	68fb      	ldr	r3, [r7, #12]
 80035da:	681b      	ldr	r3, [r3, #0]
 80035dc:	f442 7280 	orr.w	r2, r2, #256	@ 0x100
 80035e0:	601a      	str	r2, [r3, #0]

      /* Wait until SB flag is set */
      if (I2C_WaitOnFlagUntilTimeout(hi2c, I2C_FLAG_SB, RESET, Timeout, tickstart) != HAL_OK)
 80035e2:	69fb      	ldr	r3, [r7, #28]
 80035e4:	9300      	str	r3, [sp, #0]
 80035e6:	683b      	ldr	r3, [r7, #0]
 80035e8:	2200      	movs	r2, #0
 80035ea:	f04f 1101 	mov.w	r1, #65537	@ 0x10001
 80035ee:	68f8      	ldr	r0, [r7, #12]
 80035f0:	f000 f9b8 	bl	8003964 <I2C_WaitOnFlagUntilTimeout>
 80035f4:	4603      	mov	r3, r0
 80035f6:	2b00      	cmp	r3, #0
 80035f8:	d00d      	beq.n	8003616 <HAL_I2C_IsDeviceReady+0xde>
      {
        if (READ_BIT(hi2c->Instance->CR1, I2C_CR1_START) == I2C_CR1_START)
 80035fa:	68fb      	ldr	r3, [r7, #12]
 80035fc:	681b      	ldr	r3, [r3, #0]
 80035fe:	681b      	ldr	r3, [r3, #0]
 8003600:	f403 7380 	and.w	r3, r3, #256	@ 0x100
 8003604:	f5b3 7f80 	cmp.w	r3, #256	@ 0x100
 8003608:	d103      	bne.n	8003612 <HAL_I2C_IsDeviceReady+0xda>
        {
          hi2c->ErrorCode = HAL_I2C_WRONG_START;
 800360a:	68fb      	ldr	r3, [r7, #12]
 800360c:	f44f 7200 	mov.w	r2, #512	@ 0x200
 8003610:	641a      	str	r2, [r3, #64]	@ 0x40
        }
        return HAL_TIMEOUT;
 8003612:	2303      	movs	r3, #3
 8003614:	e0b6      	b.n	8003784 <HAL_I2C_IsDeviceReady+0x24c>
      }

      /* Send slave address */
      hi2c->Instance->DR = I2C_7BIT_ADD_WRITE(DevAddress);
 8003616:	897b      	ldrh	r3, [r7, #10]
 8003618:	b2db      	uxtb	r3, r3
 800361a:	461a      	mov	r2, r3
 800361c:	68fb      	ldr	r3, [r7, #12]
 800361e:	681b      	ldr	r3, [r3, #0]
 8003620:	f002 02fe 	and.w	r2, r2, #254	@ 0xfe
 8003624:	611a      	str	r2, [r3, #16]

      /* Wait until ADDR or AF flag are set */
      /* Get tick */
      tickstart = HAL_GetTick();
 8003626:	f7fe fd25 	bl	8002074 <HAL_GetTick>
 800362a:	61f8      	str	r0, [r7, #28]

      tmp1 = __HAL_I2C_GET_FLAG(hi2c, I2C_FLAG_ADDR);
 800362c:	68fb      	ldr	r3, [r7, #12]
 800362e:	681b      	ldr	r3, [r3, #0]
 8003630:	695b      	ldr	r3, [r3, #20]
 8003632:	f003 0302 	and.w	r3, r3, #2
 8003636:	2b02      	cmp	r3, #2
 8003638:	bf0c      	ite	eq
 800363a:	2301      	moveq	r3, #1
 800363c:	2300      	movne	r3, #0
 800363e:	b2db      	uxtb	r3, r3
 8003640:	75fb      	strb	r3, [r7, #23]
      tmp2 = __HAL_I2C_GET_FLAG(hi2c, I2C_FLAG_AF);
 8003642:	68fb      	ldr	r3, [r7, #12]
 8003644:	681b      	ldr	r3, [r3, #0]
 8003646:	695b      	ldr	r3, [r3, #20]
 8003648:	f403 6380 	and.w	r3, r3, #1024	@ 0x400
 800364c:	f5b3 6f80 	cmp.w	r3, #1024	@ 0x400
 8003650:	bf0c      	ite	eq
 8003652:	2301      	moveq	r3, #1
 8003654:	2300      	movne	r3, #0
 8003656:	b2db      	uxtb	r3, r3
 8003658:	75bb      	strb	r3, [r7, #22]
      while ((hi2c->State != HAL_I2C_STATE_TIMEOUT) && (tmp1 == RESET) && (tmp2 == RESET))
 800365a:	e025      	b.n	80036a8 <HAL_I2C_IsDeviceReady+0x170>
      {
        if (((HAL_GetTick() - tickstart) > Timeout) || (Timeout == 0U))
 800365c:	f7fe fd0a 	bl	8002074 <HAL_GetTick>
 8003660:	4602      	mov	r2, r0
 8003662:	69fb      	ldr	r3, [r7, #28]
 8003664:	1ad3      	subs	r3, r2, r3
 8003666:	683a      	ldr	r2, [r7, #0]
 8003668:	429a      	cmp	r2, r3
 800366a:	d302      	bcc.n	8003672 <HAL_I2C_IsDeviceReady+0x13a>
 800366c:	683b      	ldr	r3, [r7, #0]
 800366e:	2b00      	cmp	r3, #0
 8003670:	d103      	bne.n	800367a <HAL_I2C_IsDeviceReady+0x142>
        {
          hi2c->State = HAL_I2C_STATE_TIMEOUT;
 8003672:	68fb      	ldr	r3, [r7, #12]
 8003674:	22a0      	movs	r2, #160	@ 0xa0
 8003676:	f883 203d 	strb.w	r2, [r3, #61]	@ 0x3d
        }
        tmp1 = __HAL_I2C_GET_FLAG(hi2c, I2C_FLAG_ADDR);
 800367a:	68fb      	ldr	r3, [r7, #12]
 800367c:	681b      	ldr	r3, [r3, #0]
 800367e:	695b      	ldr	r3, [r3, #20]
 8003680:	f003 0302 	and.w	r3, r3, #2
 8003684:	2b02      	cmp	r3, #2
 8003686:	bf0c      	ite	eq
 8003688:	2301      	moveq	r3, #1
 800368a:	2300      	movne	r3, #0
 800368c:	b2db      	uxtb	r3, r3
 800368e:	75fb      	strb	r3, [r7, #23]
        tmp2 = __HAL_I2C_GET_FLAG(hi2c, I2C_FLAG_AF);
 8003690:	68fb      	ldr	r3, [r7, #12]
 8003692:	681b      	ldr	r3, [r3, #0]
 8003694:	695b      	ldr	r3, [r3, #20]
 8003696:	f403 6380 	and.w	r3, r3, #1024	@ 0x400
 800369a:	f5b3 6f80 	cmp.w	r3, #1024	@ 0x400
 800369e:	bf0c      	ite	eq
 80036a0:	2301      	moveq	r3, #1
 80036a2:	2300      	movne	r3, #0
 80036a4:	b2db      	uxtb	r3, r3
 80036a6:	75bb      	strb	r3, [r7, #22]
      while ((hi2c->State != HAL_I2C_STATE_TIMEOUT) && (tmp1 == RESET) && (tmp2 == RESET))
 80036a8:	68fb      	ldr	r3, [r7, #12]
 80036aa:	f893 303d 	ldrb.w	r3, [r3, #61]	@ 0x3d
 80036ae:	b2db      	uxtb	r3, r3
 80036b0:	2ba0      	cmp	r3, #160	@ 0xa0
 80036b2:	d005      	beq.n	80036c0 <HAL_I2C_IsDeviceReady+0x188>
 80036b4:	7dfb      	ldrb	r3, [r7, #23]
 80036b6:	2b00      	cmp	r3, #0
 80036b8:	d102      	bne.n	80036c0 <HAL_I2C_IsDeviceReady+0x188>
 80036ba:	7dbb      	ldrb	r3, [r7, #22]
 80036bc:	2b00      	cmp	r3, #0
 80036be:	d0cd      	beq.n	800365c <HAL_I2C_IsDeviceReady+0x124>
      }

      hi2c->State = HAL_I2C_STATE_READY;
 80036c0:	68fb      	ldr	r3, [r7, #12]
 80036c2:	2220      	movs	r2, #32
 80036c4:	f883 203d 	strb.w	r2, [r3, #61]	@ 0x3d

      /* Check if the ADDR flag has been set */
      if (__HAL_I2C_GET_FLAG(hi2c, I2C_FLAG_ADDR) == SET)
 80036c8:	68fb      	ldr	r3, [r7, #12]
 80036ca:	681b      	ldr	r3, [r3, #0]
 80036cc:	695b      	ldr	r3, [r3, #20]
 80036ce:	f003 0302 	and.w	r3, r3, #2
 80036d2:	2b02      	cmp	r3, #2
 80036d4:	d129      	bne.n	800372a <HAL_I2C_IsDeviceReady+0x1f2>
      {
        /* Generate Stop */
        SET_BIT(hi2c->Instance->CR1, I2C_CR1_STOP);
 80036d6:	68fb      	ldr	r3, [r7, #12]
 80036d8:	681b      	ldr	r3, [r3, #0]
 80036da:	681a      	ldr	r2, [r3, #0]
 80036dc:	68fb      	ldr	r3, [r7, #12]
 80036de:	681b      	ldr	r3, [r3, #0]
 80036e0:	f442 7200 	orr.w	r2, r2, #512	@ 0x200
 80036e4:	601a      	str	r2, [r3, #0]

        /* Clear ADDR Flag */
        __HAL_I2C_CLEAR_ADDRFLAG(hi2c);
 80036e6:	2300      	movs	r3, #0
 80036e8:	613b      	str	r3, [r7, #16]
 80036ea:	68fb      	ldr	r3, [r7, #12]
 80036ec:	681b      	ldr	r3, [r3, #0]
 80036ee:	695b      	ldr	r3, [r3, #20]
 80036f0:	613b      	str	r3, [r7, #16]
 80036f2:	68fb      	ldr	r3, [r7, #12]
 80036f4:	681b      	ldr	r3, [r3, #0]
 80036f6:	699b      	ldr	r3, [r3, #24]
 80036f8:	613b      	str	r3, [r7, #16]
 80036fa:	693b      	ldr	r3, [r7, #16]

        /* Wait until BUSY flag is reset */
        if (I2C_WaitOnFlagUntilTimeout(hi2c, I2C_FLAG_BUSY, SET, I2C_TIMEOUT_BUSY_FLAG, tickstart) != HAL_OK)
 80036fc:	69fb      	ldr	r3, [r7, #28]
 80036fe:	9300      	str	r3, [sp, #0]
 8003700:	2319      	movs	r3, #25
 8003702:	2201      	movs	r2, #1
 8003704:	4921      	ldr	r1, [pc, #132]	@ (800378c <HAL_I2C_IsDeviceReady+0x254>)
 8003706:	68f8      	ldr	r0, [r7, #12]
 8003708:	f000 f92c 	bl	8003964 <I2C_WaitOnFlagUntilTimeout>
 800370c:	4603      	mov	r3, r0
 800370e:	2b00      	cmp	r3, #0
 8003710:	d001      	beq.n	8003716 <HAL_I2C_IsDeviceReady+0x1de>
        {
          return HAL_ERROR;
 8003712:	2301      	movs	r3, #1
 8003714:	e036      	b.n	8003784 <HAL_I2C_IsDeviceReady+0x24c>
        }

        hi2c->State = HAL_I2C_STATE_READY;
 8003716:	68fb      	ldr	r3, [r7, #12]
 8003718:	2220      	movs	r2, #32
 800371a:	f883 203d 	strb.w	r2, [r3, #61]	@ 0x3d

        /* Process Unlocked */
        __HAL_UNLOCK(hi2c);
 800371e:	68fb      	ldr	r3, [r7, #12]
 8003720:	2200      	movs	r2, #0
 8003722:	f883 203c 	strb.w	r2, [r3, #60]	@ 0x3c

        return HAL_OK;
 8003726:	2300      	movs	r3, #0
 8003728:	e02c      	b.n	8003784 <HAL_I2C_IsDeviceReady+0x24c>
      }
      else
      {
        /* Generate Stop */
        SET_BIT(hi2c->Instance->CR1, I2C_CR1_STOP);
 800372a:	68fb      	ldr	r3, [r7, #12]
 800372c:	681b      	ldr	r3, [r3, #0]
 800372e:	681a      	ldr	r2, [r3, #0]
 8003730:	68fb      	ldr	r3, [r7, #12]
 8003732:	681b      	ldr	r3, [r3, #0]
 8003734:	f442 7200 	orr.w	r2, r2, #512	@ 0x200
 8003738:	601a      	str	r2, [r3, #0]

        /* Clear AF Flag */
        __HAL_I2C_CLEAR_FLAG(hi2c, I2C_FLAG_AF);
 800373a:	68fb      	ldr	r3, [r7, #12]
 800373c:	681b      	ldr	r3, [r3, #0]
 800373e:	f46f 6280 	mvn.w	r2, #1024	@ 0x400
 8003742:	615a      	str	r2, [r3, #20]

        /* Wait until BUSY flag is reset */
        if (I2C_WaitOnFlagUntilTimeout(hi2c, I2C_FLAG_BUSY, SET, I2C_TIMEOUT_BUSY_FLAG, tickstart) != HAL_OK)
 8003744:	69fb      	ldr	r3, [r7, #28]
 8003746:	9300      	str	r3, [sp, #0]
 8003748:	2319      	movs	r3, #25
 800374a:	2201      	movs	r2, #1
 800374c:	490f      	ldr	r1, [pc, #60]	@ (800378c <HAL_I2C_IsDeviceReady+0x254>)
 800374e:	68f8      	ldr	r0, [r7, #12]
 8003750:	f000 f908 	bl	8003964 <I2C_WaitOnFlagUntilTimeout>
 8003754:	4603      	mov	r3, r0
 8003756:	2b00      	cmp	r3, #0
 8003758:	d001      	beq.n	800375e <HAL_I2C_IsDeviceReady+0x226>
        {
          return HAL_ERROR;
 800375a:	2301      	movs	r3, #1
 800375c:	e012      	b.n	8003784 <HAL_I2C_IsDeviceReady+0x24c>
        }
      }

      /* Increment Trials */
      I2C_Trials++;
 800375e:	69bb      	ldr	r3, [r7, #24]
 8003760:	3301      	adds	r3, #1
 8003762:	61bb      	str	r3, [r7, #24]
    }
    while (I2C_Trials < Trials);
 8003764:	69ba      	ldr	r2, [r7, #24]
 8003766:	687b      	ldr	r3, [r7, #4]
 8003768:	429a      	cmp	r2, r3
 800376a:	f4ff af32 	bcc.w	80035d2 <HAL_I2C_IsDeviceReady+0x9a>

    hi2c->State = HAL_I2C_STATE_READY;
 800376e:	68fb      	ldr	r3, [r7, #12]
 8003770:	2220      	movs	r2, #32
 8003772:	f883 203d 	strb.w	r2, [r3, #61]	@ 0x3d

    /* Process Unlocked */
    __HAL_UNLOCK(hi2c);
 8003776:	68fb      	ldr	r3, [r7, #12]
 8003778:	2200      	movs	r2, #0
 800377a:	f883 203c 	strb.w	r2, [r3, #60]	@ 0x3c

    return HAL_ERROR;
 800377e:	2301      	movs	r3, #1
 8003780:	e000      	b.n	8003784 <HAL_I2C_IsDeviceReady+0x24c>
  }
  else
  {
    return HAL_BUSY;
 8003782:	2302      	movs	r3, #2
  }
}
 8003784:	4618      	mov	r0, r3
 8003786:	3720      	adds	r7, #32
 8003788:	46bd      	mov	sp, r7
 800378a:	bd80      	pop	{r7, pc}
 800378c:	00100002 	.word	0x00100002
 8003790:	ffff0000 	.word	0xffff0000

08003794 <I2C_RequestMemoryRead>:
  * @param  Timeout Timeout duration
  * @param  Tickstart Tick start value
  * @retval HAL status
  */
static HAL_StatusTypeDef I2C_RequestMemoryRead(I2C_HandleTypeDef *hi2c, uint16_t DevAddress, uint16_t MemAddress, uint16_t MemAddSize, uint32_t Timeout, uint32_t Tickstart)
{
 8003794:	b580      	push	{r7, lr}
 8003796:	b088      	sub	sp, #32
 8003798:	af02      	add	r7, sp, #8
 800379a:	60f8      	str	r0, [r7, #12]
 800379c:	4608      	mov	r0, r1
 800379e:	4611      	mov	r1, r2
 80037a0:	461a      	mov	r2, r3
 80037a2:	4603      	mov	r3, r0
 80037a4:	817b      	strh	r3, [r7, #10]
 80037a6:	460b      	mov	r3, r1
 80037a8:	813b      	strh	r3, [r7, #8]
 80037aa:	4613      	mov	r3, r2
 80037ac:	80fb      	strh	r3, [r7, #6]
  /* Enable Acknowledge */
  SET_BIT(hi2c->Instance->CR1, I2C_CR1_ACK);
 80037ae:	68fb      	ldr	r3, [r7, #12]
 80037b0:	681b      	ldr	r3, [r3, #0]
 80037b2:	681a      	ldr	r2, [r3, #0]
 80037b4:	68fb      	ldr	r3, [r7, #12]
 80037b6:	681b      	ldr	r3, [r3, #0]
 80037b8:	f442 6280 	orr.w	r2, r2, #1024	@ 0x400
 80037bc:	601a      	str	r2, [r3, #0]

  /* Generate Start */
  SET_BIT(hi2c->Instance->CR1, I2C_CR1_START);
 80037be:	68fb      	ldr	r3, [r7, #12]
 80037c0:	681b      	ldr	r3, [r3, #0]
 80037c2:	681a      	ldr	r2, [r3, #0]
 80037c4:	68fb      	ldr	r3, [r7, #12]
 80037c6:	681b      	ldr	r3, [r3, #0]
 80037c8:	f442 7280 	orr.w	r2, r2, #256	@ 0x100
 80037cc:	601a      	str	r2, [r3, #0]

  /* Wait until SB flag is set */
  if (I2C_WaitOnFlagUntilTimeout(hi2c, I2C_FLAG_SB, RESET, Timeout, Tickstart) != HAL_OK)
 80037ce:	6a7b      	ldr	r3, [r7, #36]	@ 0x24
 80037d0:	9300      	str	r3, [sp, #0]
 80037d2:	6a3b      	ldr	r3, [r7, #32]
 80037d4:	2200      	movs	r2, #0
 80037d6:	f04f 1101 	mov.w	r1, #65537	@ 0x10001
 80037da:	68f8      	ldr	r0, [r7, #12]
 80037dc:	f000 f8c2 	bl	8003964 <I2C_WaitOnFlagUntilTimeout>
 80037e0:	4603      	mov	r3, r0
 80037e2:	2b00      	cmp	r3, #0
 80037e4:	d00d      	beq.n	8003802 <I2C_RequestMemoryRead+0x6e>
  {
    if (READ_BIT(hi2c->Instance->CR1, I2C_CR1_START) == I2C_CR1_START)
 80037e6:	68fb      	ldr	r3, [r7, #12]
 80037e8:	681b      	ldr	r3, [r3, #0]
 80037ea:	681b      	ldr	r3, [r3, #0]
 80037ec:	f403 7380 	and.w	r3, r3, #256	@ 0x100
 80037f0:	f5b3 7f80 	cmp.w	r3, #256	@ 0x100
 80037f4:	d103      	bne.n	80037fe <I2C_RequestMemoryRead+0x6a>
    {
      hi2c->ErrorCode = HAL_I2C_WRONG_START;
 80037f6:	68fb      	ldr	r3, [r7, #12]
 80037f8:	f44f 7200 	mov.w	r2, #512	@ 0x200
 80037fc:	641a      	str	r2, [r3, #64]	@ 0x40
    }
    return HAL_TIMEOUT;
 80037fe:	2303      	movs	r3, #3
 8003800:	e0aa      	b.n	8003958 <I2C_RequestMemoryRead+0x1c4>
  }

  /* Send slave address */
  hi2c->Instance->DR = I2C_7BIT_ADD_WRITE(DevAddress);
 8003802:	897b      	ldrh	r3, [r7, #10]
 8003804:	b2db      	uxtb	r3, r3
 8003806:	461a      	mov	r2, r3
 8003808:	68fb      	ldr	r3, [r7, #12]
 800380a:	681b      	ldr	r3, [r3, #0]
 800380c:	f002 02fe 	and.w	r2, r2, #254	@ 0xfe
 8003810:	611a      	str	r2, [r3, #16]

  /* Wait until ADDR flag is set */
  if (I2C_WaitOnMasterAddressFlagUntilTimeout(hi2c, I2C_FLAG_ADDR, Timeout, Tickstart) != HAL_OK)
 8003812:	6a7b      	ldr	r3, [r7, #36]	@ 0x24
 8003814:	6a3a      	ldr	r2, [r7, #32]
 8003816:	4952      	ldr	r1, [pc, #328]	@ (8003960 <I2C_RequestMemoryRead+0x1cc>)
 8003818:	68f8      	ldr	r0, [r7, #12]
 800381a:	f000 f91d 	bl	8003a58 <I2C_WaitOnMasterAddressFlagUntilTimeout>
 800381e:	4603      	mov	r3, r0
 8003820:	2b00      	cmp	r3, #0
 8003822:	d001      	beq.n	8003828 <I2C_RequestMemoryRead+0x94>
  {
    return HAL_ERROR;
 8003824:	2301      	movs	r3, #1
 8003826:	e097      	b.n	8003958 <I2C_RequestMemoryRead+0x1c4>
  }

  /* Clear ADDR flag */
  __HAL_I2C_CLEAR_ADDRFLAG(hi2c);
 8003828:	2300      	movs	r3, #0
 800382a:	617b      	str	r3, [r7, #20]
 800382c:	68fb      	ldr	r3, [r7, #12]
 800382e:	681b      	ldr	r3, [r3, #0]
 8003830:	695b      	ldr	r3, [r3, #20]
 8003832:	617b      	str	r3, [r7, #20]
 8003834:	68fb      	ldr	r3, [r7, #12]
 8003836:	681b      	ldr	r3, [r3, #0]
 8003838:	699b      	ldr	r3, [r3, #24]
 800383a:	617b      	str	r3, [r7, #20]
 800383c:	697b      	ldr	r3, [r7, #20]

  /* Wait until TXE flag is set */
  if (I2C_WaitOnTXEFlagUntilTimeout(hi2c, Timeout, Tickstart) != HAL_OK)
 800383e:	6a7a      	ldr	r2, [r7, #36]	@ 0x24
 8003840:	6a39      	ldr	r1, [r7, #32]
 8003842:	68f8      	ldr	r0, [r7, #12]
 8003844:	f000 f9a8 	bl	8003b98 <I2C_WaitOnTXEFlagUntilTimeout>
 8003848:	4603      	mov	r3, r0
 800384a:	2b00      	cmp	r3, #0
 800384c:	d00d      	beq.n	800386a <I2C_RequestMemoryRead+0xd6>
  {
    if (hi2c->ErrorCode == HAL_I2C_ERROR_AF)
 800384e:	68fb      	ldr	r3, [r7, #12]
 8003850:	6c1b      	ldr	r3, [r3, #64]	@ 0x40
 8003852:	2b04      	cmp	r3, #4
 8003854:	d107      	bne.n	8003866 <I2C_RequestMemoryRead+0xd2>
    {
      /* Generate Stop */
      SET_BIT(hi2c->Instance->CR1, I2C_CR1_STOP);
 8003856:	68fb      	ldr	r3, [r7, #12]
 8003858:	681b      	ldr	r3, [r3, #0]
 800385a:	681a      	ldr	r2, [r3, #0]
 800385c:	68fb      	ldr	r3, [r7, #12]
 800385e:	681b      	ldr	r3, [r3, #0]
 8003860:	f442 7200 	orr.w	r2, r2, #512	@ 0x200
 8003864:	601a      	str	r2, [r3, #0]
    }
    return HAL_ERROR;
 8003866:	2301      	movs	r3, #1
 8003868:	e076      	b.n	8003958 <I2C_RequestMemoryRead+0x1c4>
  }

  /* If Memory address size is 8Bit */
  if (MemAddSize == I2C_MEMADD_SIZE_8BIT)
 800386a:	88fb      	ldrh	r3, [r7, #6]
 800386c:	2b01      	cmp	r3, #1
 800386e:	d105      	bne.n	800387c <I2C_RequestMemoryRead+0xe8>
  {
    /* Send Memory Address */
    hi2c->Instance->DR = I2C_MEM_ADD_LSB(MemAddress);
 8003870:	893b      	ldrh	r3, [r7, #8]
 8003872:	b2da      	uxtb	r2, r3
 8003874:	68fb      	ldr	r3, [r7, #12]
 8003876:	681b      	ldr	r3, [r3, #0]
 8003878:	611a      	str	r2, [r3, #16]
 800387a:	e021      	b.n	80038c0 <I2C_RequestMemoryRead+0x12c>
  }
  /* If Memory address size is 16Bit */
  else
  {
    /* Send MSB of Memory Address */
    hi2c->Instance->DR = I2C_MEM_ADD_MSB(MemAddress);
 800387c:	893b      	ldrh	r3, [r7, #8]
 800387e:	0a1b      	lsrs	r3, r3, #8
 8003880:	b29b      	uxth	r3, r3
 8003882:	b2da      	uxtb	r2, r3
 8003884:	68fb      	ldr	r3, [r7, #12]
 8003886:	681b      	ldr	r3, [r3, #0]
 8003888:	611a      	str	r2, [r3, #16]

    /* Wait until TXE flag is set */
    if (I2C_WaitOnTXEFlagUntilTimeout(hi2c, Timeout, Tickstart) != HAL_OK)
 800388a:	6a7a      	ldr	r2, [r7, #36]	@ 0x24
 800388c:	6a39      	ldr	r1, [r7, #32]
 800388e:	68f8      	ldr	r0, [r7, #12]
 8003890:	f000 f982 	bl	8003b98 <I2C_WaitOnTXEFlagUntilTimeout>
 8003894:	4603      	mov	r3, r0
 8003896:	2b00      	cmp	r3, #0
 8003898:	d00d      	beq.n	80038b6 <I2C_RequestMemoryRead+0x122>
    {
      if (hi2c->ErrorCode == HAL_I2C_ERROR_AF)
 800389a:	68fb      	ldr	r3, [r7, #12]
 800389c:	6c1b      	ldr	r3, [r3, #64]	@ 0x40
 800389e:	2b04      	cmp	r3, #4
 80038a0:	d107      	bne.n	80038b2 <I2C_RequestMemoryRead+0x11e>
      {
        /* Generate Stop */
        SET_BIT(hi2c->Instance->CR1, I2C_CR1_STOP);
 80038a2:	68fb      	ldr	r3, [r7, #12]
 80038a4:	681b      	ldr	r3, [r3, #0]
 80038a6:	681a      	ldr	r2, [r3, #0]
 80038a8:	68fb      	ldr	r3, [r7, #12]
 80038aa:	681b      	ldr	r3, [r3, #0]
 80038ac:	f442 7200 	orr.w	r2, r2, #512	@ 0x200
 80038b0:	601a      	str	r2, [r3, #0]
      }
      return HAL_ERROR;
 80038b2:	2301      	movs	r3, #1
 80038b4:	e050      	b.n	8003958 <I2C_RequestMemoryRead+0x1c4>
    }

    /* Send LSB of Memory Address */
    hi2c->Instance->DR = I2C_MEM_ADD_LSB(MemAddress);
 80038b6:	893b      	ldrh	r3, [r7, #8]
 80038b8:	b2da      	uxtb	r2, r3
 80038ba:	68fb      	ldr	r3, [r7, #12]
 80038bc:	681b      	ldr	r3, [r3, #0]
 80038be:	611a      	str	r2, [r3, #16]
  }

  /* Wait until TXE flag is set */
  if (I2C_WaitOnTXEFlagUntilTimeout(hi2c, Timeout, Tickstart) != HAL_OK)
 80038c0:	6a7a      	ldr	r2, [r7, #36]	@ 0x24
 80038c2:	6a39      	ldr	r1, [r7, #32]
 80038c4:	68f8      	ldr	r0, [r7, #12]
 80038c6:	f000 f967 	bl	8003b98 <I2C_WaitOnTXEFlagUntilTimeout>
 80038ca:	4603      	mov	r3, r0
 80038cc:	2b00      	cmp	r3, #0
 80038ce:	d00d      	beq.n	80038ec <I2C_RequestMemoryRead+0x158>
  {
    if (hi2c->ErrorCode == HAL_I2C_ERROR_AF)
 80038d0:	68fb      	ldr	r3, [r7, #12]
 80038d2:	6c1b      	ldr	r3, [r3, #64]	@ 0x40
 80038d4:	2b04      	cmp	r3, #4
 80038d6:	d107      	bne.n	80038e8 <I2C_RequestMemoryRead+0x154>
    {
      /* Generate Stop */
      SET_BIT(hi2c->Instance->CR1, I2C_CR1_STOP);
 80038d8:	68fb      	ldr	r3, [r7, #12]
 80038da:	681b      	ldr	r3, [r3, #0]
 80038dc:	681a      	ldr	r2, [r3, #0]
 80038de:	68fb      	ldr	r3, [r7, #12]
 80038e0:	681b      	ldr	r3, [r3, #0]
 80038e2:	f442 7200 	orr.w	r2, r2, #512	@ 0x200
 80038e6:	601a      	str	r2, [r3, #0]
    }
    return HAL_ERROR;
 80038e8:	2301      	movs	r3, #1
 80038ea:	e035      	b.n	8003958 <I2C_RequestMemoryRead+0x1c4>
  }

  /* Generate Restart */
  SET_BIT(hi2c->Instance->CR1, I2C_CR1_START);
 80038ec:	68fb      	ldr	r3, [r7, #12]
 80038ee:	681b      	ldr	r3, [r3, #0]
 80038f0:	681a      	ldr	r2, [r3, #0]
 80038f2:	68fb      	ldr	r3, [r7, #12]
 80038f4:	681b      	ldr	r3, [r3, #0]
 80038f6:	f442 7280 	orr.w	r2, r2, #256	@ 0x100
 80038fa:	601a      	str	r2, [r3, #0]

  /* Wait until SB flag is set */
  if (I2C_WaitOnFlagUntilTimeout(hi2c, I2C_FLAG_SB, RESET, Timeout, Tickstart) != HAL_OK)
 80038fc:	6a7b      	ldr	r3, [r7, #36]	@ 0x24
 80038fe:	9300      	str	r3, [sp, #0]
 8003900:	6a3b      	ldr	r3, [r7, #32]
 8003902:	2200      	movs	r2, #0
 8003904:	f04f 1101 	mov.w	r1, #65537	@ 0x10001
 8003908:	68f8      	ldr	r0, [r7, #12]
 800390a:	f000 f82b 	bl	8003964 <I2C_WaitOnFlagUntilTimeout>
 800390e:	4603      	mov	r3, r0
 8003910:	2b00      	cmp	r3, #0
 8003912:	d00d      	beq.n	8003930 <I2C_RequestMemoryRead+0x19c>
  {
    if (READ_BIT(hi2c->Instance->CR1, I2C_CR1_START) == I2C_CR1_START)
 8003914:	68fb      	ldr	r3, [r7, #12]
 8003916:	681b      	ldr	r3, [r3, #0]
 8003918:	681b      	ldr	r3, [r3, #0]
 800391a:	f403 7380 	and.w	r3, r3, #256	@ 0x100
 800391e:	f5b3 7f80 	cmp.w	r3, #256	@ 0x100
 8003922:	d103      	bne.n	800392c <I2C_RequestMemoryRead+0x198>
    {
      hi2c->ErrorCode = HAL_I2C_WRONG_START;
 8003924:	68fb      	ldr	r3, [r7, #12]
 8003926:	f44f 7200 	mov.w	r2, #512	@ 0x200
 800392a:	641a      	str	r2, [r3, #64]	@ 0x40
    }
    return HAL_TIMEOUT;
 800392c:	2303      	movs	r3, #3
 800392e:	e013      	b.n	8003958 <I2C_RequestMemoryRead+0x1c4>
  }

  /* Send slave address */
  hi2c->Instance->DR = I2C_7BIT_ADD_READ(DevAddress);
 8003930:	897b      	ldrh	r3, [r7, #10]
 8003932:	b2db      	uxtb	r3, r3
 8003934:	f043 0301 	orr.w	r3, r3, #1
 8003938:	b2da      	uxtb	r2, r3
 800393a:	68fb      	ldr	r3, [r7, #12]
 800393c:	681b      	ldr	r3, [r3, #0]
 800393e:	611a      	str	r2, [r3, #16]

  /* Wait until ADDR flag is set */
  if (I2C_WaitOnMasterAddressFlagUntilTimeout(hi2c, I2C_FLAG_ADDR, Timeout, Tickstart) != HAL_OK)
 8003940:	6a7b      	ldr	r3, [r7, #36]	@ 0x24
 8003942:	6a3a      	ldr	r2, [r7, #32]
 8003944:	4906      	ldr	r1, [pc, #24]	@ (8003960 <I2C_RequestMemoryRead+0x1cc>)
 8003946:	68f8      	ldr	r0, [r7, #12]
 8003948:	f000 f886 	bl	8003a58 <I2C_WaitOnMasterAddressFlagUntilTimeout>
 800394c:	4603      	mov	r3, r0
 800394e:	2b00      	cmp	r3, #0
 8003950:	d001      	beq.n	8003956 <I2C_RequestMemoryRead+0x1c2>
  {
    return HAL_ERROR;
 8003952:	2301      	movs	r3, #1
 8003954:	e000      	b.n	8003958 <I2C_RequestMemoryRead+0x1c4>
  }

  return HAL_OK;
 8003956:	2300      	movs	r3, #0
}
 8003958:	4618      	mov	r0, r3
 800395a:	3718      	adds	r7, #24
 800395c:	46bd      	mov	sp, r7
 800395e:	bd80      	pop	{r7, pc}
 8003960:	00010002 	.word	0x00010002

08003964 <I2C_WaitOnFlagUntilTimeout>:
  * @param  Timeout Timeout duration
  * @param  Tickstart Tick start value
  * @retval HAL status
  */
static HAL_StatusTypeDef I2C_WaitOnFlagUntilTimeout(I2C_HandleTypeDef *hi2c, uint32_t Flag, FlagStatus Status, uint32_t Timeout, uint32_t Tickstart)
{
 8003964:	b580      	push	{r7, lr}
 8003966:	b084      	sub	sp, #16
 8003968:	af00      	add	r7, sp, #0
 800396a:	60f8      	str	r0, [r7, #12]
 800396c:	60b9      	str	r1, [r7, #8]
 800396e:	603b      	str	r3, [r7, #0]
 8003970:	4613      	mov	r3, r2
 8003972:	71fb      	strb	r3, [r7, #7]
  /* Wait until flag is set */
  while (__HAL_I2C_GET_FLAG(hi2c, Flag) == Status)
 8003974:	e048      	b.n	8003a08 <I2C_WaitOnFlagUntilTimeout+0xa4>
  {
    /* Check for the Timeout */
    if (Timeout != HAL_MAX_DELAY)
 8003976:	683b      	ldr	r3, [r7, #0]
 8003978:	f1b3 3fff 	cmp.w	r3, #4294967295	@ 0xffffffff
 800397c:	d044      	beq.n	8003a08 <I2C_WaitOnFlagUntilTimeout+0xa4>
    {
      if (((HAL_GetTick() - Tickstart) > Timeout) || (Timeout == 0U))
 800397e:	f7fe fb79 	bl	8002074 <HAL_GetTick>
 8003982:	4602      	mov	r2, r0
 8003984:	69bb      	ldr	r3, [r7, #24]
 8003986:	1ad3      	subs	r3, r2, r3
 8003988:	683a      	ldr	r2, [r7, #0]
 800398a:	429a      	cmp	r2, r3
 800398c:	d302      	bcc.n	8003994 <I2C_WaitOnFlagUntilTimeout+0x30>
 800398e:	683b      	ldr	r3, [r7, #0]
 8003990:	2b00      	cmp	r3, #0
 8003992:	d139      	bne.n	8003a08 <I2C_WaitOnFlagUntilTimeout+0xa4>
      {
        if ((__HAL_I2C_GET_FLAG(hi2c, Flag) == Status))
 8003994:	68bb      	ldr	r3, [r7, #8]
 8003996:	0c1b      	lsrs	r3, r3, #16
 8003998:	b2db      	uxtb	r3, r3
 800399a:	2b01      	cmp	r3, #1
 800399c:	d10d      	bne.n	80039ba <I2C_WaitOnFlagUntilTimeout+0x56>
 800399e:	68fb      	ldr	r3, [r7, #12]
 80039a0:	681b      	ldr	r3, [r3, #0]
 80039a2:	695b      	ldr	r3, [r3, #20]
 80039a4:	43da      	mvns	r2, r3
 80039a6:	68bb      	ldr	r3, [r7, #8]
 80039a8:	4013      	ands	r3, r2
 80039aa:	b29b      	uxth	r3, r3
 80039ac:	2b00      	cmp	r3, #0
 80039ae:	bf0c      	ite	eq
 80039b0:	2301      	moveq	r3, #1
 80039b2:	2300      	movne	r3, #0
 80039b4:	b2db      	uxtb	r3, r3
 80039b6:	461a      	mov	r2, r3
 80039b8:	e00c      	b.n	80039d4 <I2C_WaitOnFlagUntilTimeout+0x70>
 80039ba:	68fb      	ldr	r3, [r7, #12]
 80039bc:	681b      	ldr	r3, [r3, #0]
 80039be:	699b      	ldr	r3, [r3, #24]
 80039c0:	43da      	mvns	r2, r3
 80039c2:	68bb      	ldr	r3, [r7, #8]
 80039c4:	4013      	ands	r3, r2
 80039c6:	b29b      	uxth	r3, r3
 80039c8:	2b00      	cmp	r3, #0
 80039ca:	bf0c      	ite	eq
 80039cc:	2301      	moveq	r3, #1
 80039ce:	2300      	movne	r3, #0
 80039d0:	b2db      	uxtb	r3, r3
 80039d2:	461a      	mov	r2, r3
 80039d4:	79fb      	ldrb	r3, [r7, #7]
 80039d6:	429a      	cmp	r2, r3
 80039d8:	d116      	bne.n	8003a08 <I2C_WaitOnFlagUntilTimeout+0xa4>
        {
          hi2c->PreviousState     = I2C_STATE_NONE;
 80039da:	68fb      	ldr	r3, [r7, #12]
 80039dc:	2200      	movs	r2, #0
 80039de:	631a      	str	r2, [r3, #48]	@ 0x30
          hi2c->State             = HAL_I2C_STATE_READY;
 80039e0:	68fb      	ldr	r3, [r7, #12]
 80039e2:	2220      	movs	r2, #32
 80039e4:	f883 203d 	strb.w	r2, [r3, #61]	@ 0x3d
          hi2c->Mode              = HAL_I2C_MODE_NONE;
 80039e8:	68fb      	ldr	r3, [r7, #12]
 80039ea:	2200      	movs	r2, #0
 80039ec:	f883 203e 	strb.w	r2, [r3, #62]	@ 0x3e
          hi2c->ErrorCode         |= HAL_I2C_ERROR_TIMEOUT;
 80039f0:	68fb      	ldr	r3, [r7, #12]
 80039f2:	6c1b      	ldr	r3, [r3, #64]	@ 0x40
 80039f4:	f043 0220 	orr.w	r2, r3, #32
 80039f8:	68fb      	ldr	r3, [r7, #12]
 80039fa:	641a      	str	r2, [r3, #64]	@ 0x40

          /* Process Unlocked */
          __HAL_UNLOCK(hi2c);
 80039fc:	68fb      	ldr	r3, [r7, #12]
 80039fe:	2200      	movs	r2, #0
 8003a00:	f883 203c 	strb.w	r2, [r3, #60]	@ 0x3c

          return HAL_ERROR;
 8003a04:	2301      	movs	r3, #1
 8003a06:	e023      	b.n	8003a50 <I2C_WaitOnFlagUntilTimeout+0xec>
  while (__HAL_I2C_GET_FLAG(hi2c, Flag) == Status)
 8003a08:	68bb      	ldr	r3, [r7, #8]
 8003a0a:	0c1b      	lsrs	r3, r3, #16
 8003a0c:	b2db      	uxtb	r3, r3
 8003a0e:	2b01      	cmp	r3, #1
 8003a10:	d10d      	bne.n	8003a2e <I2C_WaitOnFlagUntilTimeout+0xca>
 8003a12:	68fb      	ldr	r3, [r7, #12]
 8003a14:	681b      	ldr	r3, [r3, #0]
 8003a16:	695b      	ldr	r3, [r3, #20]
 8003a18:	43da      	mvns	r2, r3
 8003a1a:	68bb      	ldr	r3, [r7, #8]
 8003a1c:	4013      	ands	r3, r2
 8003a1e:	b29b      	uxth	r3, r3
 8003a20:	2b00      	cmp	r3, #0
 8003a22:	bf0c      	ite	eq
 8003a24:	2301      	moveq	r3, #1
 8003a26:	2300      	movne	r3, #0
 8003a28:	b2db      	uxtb	r3, r3
 8003a2a:	461a      	mov	r2, r3
 8003a2c:	e00c      	b.n	8003a48 <I2C_WaitOnFlagUntilTimeout+0xe4>
 8003a2e:	68fb      	ldr	r3, [r7, #12]
 8003a30:	681b      	ldr	r3, [r3, #0]
 8003a32:	699b      	ldr	r3, [r3, #24]
 8003a34:	43da      	mvns	r2, r3
 8003a36:	68bb      	ldr	r3, [r7, #8]
 8003a38:	4013      	ands	r3, r2
 8003a3a:	b29b      	uxth	r3, r3
 8003a3c:	2b00      	cmp	r3, #0
 8003a3e:	bf0c      	ite	eq
 8003a40:	2301      	moveq	r3, #1
 8003a42:	2300      	movne	r3, #0
 8003a44:	b2db      	uxtb	r3, r3
 8003a46:	461a      	mov	r2, r3
 8003a48:	79fb      	ldrb	r3, [r7, #7]
 8003a4a:	429a      	cmp	r2, r3
 8003a4c:	d093      	beq.n	8003976 <I2C_WaitOnFlagUntilTimeout+0x12>
        }
      }
    }
  }
  return HAL_OK;
 8003a4e:	2300      	movs	r3, #0
}
 8003a50:	4618      	mov	r0, r3
 8003a52:	3710      	adds	r7, #16
 8003a54:	46bd      	mov	sp, r7
 8003a56:	bd80      	pop	{r7, pc}

08003a58 <I2C_WaitOnMasterAddressFlagUntilTimeout>:
  * @param  Timeout Timeout duration
  * @param  Tickstart Tick start value
  * @retval HAL status
  */
static HAL_StatusTypeDef I2C_WaitOnMasterAddressFlagUntilTimeout(I2C_HandleTypeDef *hi2c, uint32_t Flag, uint32_t Timeout, uint32_t Tickstart)
{
 8003a58:	b580      	push	{r7, lr}
 8003a5a:	b084      	sub	sp, #16
 8003a5c:	af00      	add	r7, sp, #0
 8003a5e:	60f8      	str	r0, [r7, #12]
 8003a60:	60b9      	str	r1, [r7, #8]
 8003a62:	607a      	str	r2, [r7, #4]
 8003a64:	603b      	str	r3, [r7, #0]
  while (__HAL_I2C_GET_FLAG(hi2c, Flag) == RESET)
 8003a66:	e071      	b.n	8003b4c <I2C_WaitOnMasterAddressFlagUntilTimeout+0xf4>
  {
    if (__HAL_I2C_GET_FLAG(hi2c, I2C_FLAG_AF) == SET)
 8003a68:	68fb      	ldr	r3, [r7, #12]
 8003a6a:	681b      	ldr	r3, [r3, #0]
 8003a6c:	695b      	ldr	r3, [r3, #20]
 8003a6e:	f403 6380 	and.w	r3, r3, #1024	@ 0x400
 8003a72:	f5b3 6f80 	cmp.w	r3, #1024	@ 0x400
 8003a76:	d123      	bne.n	8003ac0 <I2C_WaitOnMasterAddressFlagUntilTimeout+0x68>
    {
      /* Generate Stop */
      SET_BIT(hi2c->Instance->CR1, I2C_CR1_STOP);
 8003a78:	68fb      	ldr	r3, [r7, #12]
 8003a7a:	681b      	ldr	r3, [r3, #0]
 8003a7c:	681a      	ldr	r2, [r3, #0]
 8003a7e:	68fb      	ldr	r3, [r7, #12]
 8003a80:	681b      	ldr	r3, [r3, #0]
 8003a82:	f442 7200 	orr.w	r2, r2, #512	@ 0x200
 8003a86:	601a      	str	r2, [r3, #0]

      /* Clear AF Flag */
      __HAL_I2C_CLEAR_FLAG(hi2c, I2C_FLAG_AF);
 8003a88:	68fb      	ldr	r3, [r7, #12]
 8003a8a:	681b      	ldr	r3, [r3, #0]
 8003a8c:	f46f 6280 	mvn.w	r2, #1024	@ 0x400
 8003a90:	615a      	str	r2, [r3, #20]

      hi2c->PreviousState       = I2C_STATE_NONE;
 8003a92:	68fb      	ldr	r3, [r7, #12]
 8003a94:	2200      	movs	r2, #0
 8003a96:	631a      	str	r2, [r3, #48]	@ 0x30
      hi2c->State               = HAL_I2C_STATE_READY;
 8003a98:	68fb      	ldr	r3, [r7, #12]
 8003a9a:	2220      	movs	r2, #32
 8003a9c:	f883 203d 	strb.w	r2, [r3, #61]	@ 0x3d
      hi2c->Mode                = HAL_I2C_MODE_NONE;
 8003aa0:	68fb      	ldr	r3, [r7, #12]
 8003aa2:	2200      	movs	r2, #0
 8003aa4:	f883 203e 	strb.w	r2, [r3, #62]	@ 0x3e
      hi2c->ErrorCode           |= HAL_I2C_ERROR_AF;
 8003aa8:	68fb      	ldr	r3, [r7, #12]
 8003aaa:	6c1b      	ldr	r3, [r3, #64]	@ 0x40
 8003aac:	f043 0204 	orr.w	r2, r3, #4
 8003ab0:	68fb      	ldr	r3, [r7, #12]
 8003ab2:	641a      	str	r2, [r3, #64]	@ 0x40

      /* Process Unlocked */
      __HAL_UNLOCK(hi2c);
 8003ab4:	68fb      	ldr	r3, [r7, #12]
 8003ab6:	2200      	movs	r2, #0
 8003ab8:	f883 203c 	strb.w	r2, [r3, #60]	@ 0x3c

      return HAL_ERROR;
 8003abc:	2301      	movs	r3, #1
 8003abe:	e067      	b.n	8003b90 <I2C_WaitOnMasterAddressFlagUntilTimeout+0x138>
    }

    /* Check for the Timeout */
    if (Timeout != HAL_MAX_DELAY)
 8003ac0:	687b      	ldr	r3, [r7, #4]
 8003ac2:	f1b3 3fff 	cmp.w	r3, #4294967295	@ 0xffffffff
 8003ac6:	d041      	beq.n	8003b4c <I2C_WaitOnMasterAddressFlagUntilTimeout+0xf4>
    {
      if (((HAL_GetTick() - Tickstart) > Timeout) || (Timeout == 0U))
 8003ac8:	f7fe fad4 	bl	8002074 <HAL_GetTick>
 8003acc:	4602      	mov	r2, r0
 8003ace:	683b      	ldr	r3, [r7, #0]
 8003ad0:	1ad3      	subs	r3, r2, r3
 8003ad2:	687a      	ldr	r2, [r7, #4]
 8003ad4:	429a      	cmp	r2, r3
 8003ad6:	d302      	bcc.n	8003ade <I2C_WaitOnMasterAddressFlagUntilTimeout+0x86>
 8003ad8:	687b      	ldr	r3, [r7, #4]
 8003ada:	2b00      	cmp	r3, #0
 8003adc:	d136      	bne.n	8003b4c <I2C_WaitOnMasterAddressFlagUntilTimeout+0xf4>
      {
        if ((__HAL_I2C_GET_FLAG(hi2c, Flag) == RESET))
 8003ade:	68bb      	ldr	r3, [r7, #8]
 8003ae0:	0c1b      	lsrs	r3, r3, #16
 8003ae2:	b2db      	uxtb	r3, r3
 8003ae4:	2b01      	cmp	r3, #1
 8003ae6:	d10c      	bne.n	8003b02 <I2C_WaitOnMasterAddressFlagUntilTimeout+0xaa>
 8003ae8:	68fb      	ldr	r3, [r7, #12]
 8003aea:	681b      	ldr	r3, [r3, #0]
 8003aec:	695b      	ldr	r3, [r3, #20]
 8003aee:	43da      	mvns	r2, r3
 8003af0:	68bb      	ldr	r3, [r7, #8]
 8003af2:	4013      	ands	r3, r2
 8003af4:	b29b      	uxth	r3, r3
 8003af6:	2b00      	cmp	r3, #0
 8003af8:	bf14      	ite	ne
 8003afa:	2301      	movne	r3, #1
 8003afc:	2300      	moveq	r3, #0
 8003afe:	b2db      	uxtb	r3, r3
 8003b00:	e00b      	b.n	8003b1a <I2C_WaitOnMasterAddressFlagUntilTimeout+0xc2>
 8003b02:	68fb      	ldr	r3, [r7, #12]
 8003b04:	681b      	ldr	r3, [r3, #0]
 8003b06:	699b      	ldr	r3, [r3, #24]
 8003b08:	43da      	mvns	r2, r3
 8003b0a:	68bb      	ldr	r3, [r7, #8]
 8003b0c:	4013      	ands	r3, r2
 8003b0e:	b29b      	uxth	r3, r3
 8003b10:	2b00      	cmp	r3, #0
 8003b12:	bf14      	ite	ne
 8003b14:	2301      	movne	r3, #1
 8003b16:	2300      	moveq	r3, #0
 8003b18:	b2db      	uxtb	r3, r3
 8003b1a:	2b00      	cmp	r3, #0
 8003b1c:	d016      	beq.n	8003b4c <I2C_WaitOnMasterAddressFlagUntilTimeout+0xf4>
        {
          hi2c->PreviousState       = I2C_STATE_NONE;
 8003b1e:	68fb      	ldr	r3, [r7, #12]
 8003b20:	2200      	movs	r2, #0
 8003b22:	631a      	str	r2, [r3, #48]	@ 0x30
          hi2c->State               = HAL_I2C_STATE_READY;
 8003b24:	68fb      	ldr	r3, [r7, #12]
 8003b26:	2220      	movs	r2, #32
 8003b28:	f883 203d 	strb.w	r2, [r3, #61]	@ 0x3d
          hi2c->Mode                = HAL_I2C_MODE_NONE;
 8003b2c:	68fb      	ldr	r3, [r7, #12]
 8003b2e:	2200      	movs	r2, #0
 8003b30:	f883 203e 	strb.w	r2, [r3, #62]	@ 0x3e
          hi2c->ErrorCode           |= HAL_I2C_ERROR_TIMEOUT;
 8003b34:	68fb      	ldr	r3, [r7, #12]
 8003b36:	6c1b      	ldr	r3, [r3, #64]	@ 0x40
 8003b38:	f043 0220 	orr.w	r2, r3, #32
 8003b3c:	68fb      	ldr	r3, [r7, #12]
 8003b3e:	641a      	str	r2, [r3, #64]	@ 0x40

          /* Process Unlocked */
          __HAL_UNLOCK(hi2c);
 8003b40:	68fb      	ldr	r3, [r7, #12]
 8003b42:	2200      	movs	r2, #0
 8003b44:	f883 203c 	strb.w	r2, [r3, #60]	@ 0x3c

          return HAL_ERROR;
 8003b48:	2301      	movs	r3, #1
 8003b4a:	e021      	b.n	8003b90 <I2C_WaitOnMasterAddressFlagUntilTimeout+0x138>
  while (__HAL_I2C_GET_FLAG(hi2c, Flag) == RESET)
 8003b4c:	68bb      	ldr	r3, [r7, #8]
 8003b4e:	0c1b      	lsrs	r3, r3, #16
 8003b50:	b2db      	uxtb	r3, r3
 8003b52:	2b01      	cmp	r3, #1
 8003b54:	d10c      	bne.n	8003b70 <I2C_WaitOnMasterAddressFlagUntilTimeout+0x118>
 8003b56:	68fb      	ldr	r3, [r7, #12]
 8003b58:	681b      	ldr	r3, [r3, #0]
 8003b5a:	695b      	ldr	r3, [r3, #20]
 8003b5c:	43da      	mvns	r2, r3
 8003b5e:	68bb      	ldr	r3, [r7, #8]
 8003b60:	4013      	ands	r3, r2
 8003b62:	b29b      	uxth	r3, r3
 8003b64:	2b00      	cmp	r3, #0
 8003b66:	bf14      	ite	ne
 8003b68:	2301      	movne	r3, #1
 8003b6a:	2300      	moveq	r3, #0
 8003b6c:	b2db      	uxtb	r3, r3
 8003b6e:	e00b      	b.n	8003b88 <I2C_WaitOnMasterAddressFlagUntilTimeout+0x130>
 8003b70:	68fb      	ldr	r3, [r7, #12]
 8003b72:	681b      	ldr	r3, [r3, #0]
 8003b74:	699b      	ldr	r3, [r3, #24]
 8003b76:	43da      	mvns	r2, r3
 8003b78:	68bb      	ldr	r3, [r7, #8]
 8003b7a:	4013      	ands	r3, r2
 8003b7c:	b29b      	uxth	r3, r3
 8003b7e:	2b00      	cmp	r3, #0
 8003b80:	bf14      	ite	ne
 8003b82:	2301      	movne	r3, #1
 8003b84:	2300      	moveq	r3, #0
 8003b86:	b2db      	uxtb	r3, r3
 8003b88:	2b00      	cmp	r3, #0
 8003b8a:	f47f af6d 	bne.w	8003a68 <I2C_WaitOnMasterAddressFlagUntilTimeout+0x10>
        }
      }
    }
  }
  return HAL_OK;
 8003b8e:	2300      	movs	r3, #0
}
 8003b90:	4618      	mov	r0, r3
 8003b92:	3710      	adds	r7, #16
 8003b94:	46bd      	mov	sp, r7
 8003b96:	bd80      	pop	{r7, pc}

08003b98 <I2C_WaitOnTXEFlagUntilTimeout>:
  * @param  Timeout Timeout duration
  * @param  Tickstart Tick start value
  * @retval HAL status
  */
static HAL_StatusTypeDef I2C_WaitOnTXEFlagUntilTimeout(I2C_HandleTypeDef *hi2c, uint32_t Timeout, uint32_t Tickstart)
{
 8003b98:	b580      	push	{r7, lr}
 8003b9a:	b084      	sub	sp, #16
 8003b9c:	af00      	add	r7, sp, #0
 8003b9e:	60f8      	str	r0, [r7, #12]
 8003ba0:	60b9      	str	r1, [r7, #8]
 8003ba2:	607a      	str	r2, [r7, #4]
  while (__HAL_I2C_GET_FLAG(hi2c, I2C_FLAG_TXE) == RESET)
 8003ba4:	e034      	b.n	8003c10 <I2C_WaitOnTXEFlagUntilTimeout+0x78>
  {
    /* Check if a NACK is detected */
    if (I2C_IsAcknowledgeFailed(hi2c) != HAL_OK)
 8003ba6:	68f8      	ldr	r0, [r7, #12]
 8003ba8:	f000 f89b 	bl	8003ce2 <I2C_IsAcknowledgeFailed>
 8003bac:	4603      	mov	r3, r0
 8003bae:	2b00      	cmp	r3, #0
 8003bb0:	d001      	beq.n	8003bb6 <I2C_WaitOnTXEFlagUntilTimeout+0x1e>
    {
      return HAL_ERROR;
 8003bb2:	2301      	movs	r3, #1
 8003bb4:	e034      	b.n	8003c20 <I2C_WaitOnTXEFlagUntilTimeout+0x88>
    }

    /* Check for the Timeout */
    if (Timeout != HAL_MAX_DELAY)
 8003bb6:	68bb      	ldr	r3, [r7, #8]
 8003bb8:	f1b3 3fff 	cmp.w	r3, #4294967295	@ 0xffffffff
 8003bbc:	d028      	beq.n	8003c10 <I2C_WaitOnTXEFlagUntilTimeout+0x78>
    {
      if (((HAL_GetTick() - Tickstart) > Timeout) || (Timeout == 0U))
 8003bbe:	f7fe fa59 	bl	8002074 <HAL_GetTick>
 8003bc2:	4602      	mov	r2, r0
 8003bc4:	687b      	ldr	r3, [r7, #4]
 8003bc6:	1ad3      	subs	r3, r2, r3
 8003bc8:	68ba      	ldr	r2, [r7, #8]
 8003bca:	429a      	cmp	r2, r3
 8003bcc:	d302      	bcc.n	8003bd4 <I2C_WaitOnTXEFlagUntilTimeout+0x3c>
 8003bce:	68bb      	ldr	r3, [r7, #8]
 8003bd0:	2b00      	cmp	r3, #0
 8003bd2:	d11d      	bne.n	8003c10 <I2C_WaitOnTXEFlagUntilTimeout+0x78>
      {
        if ((__HAL_I2C_GET_FLAG(hi2c, I2C_FLAG_TXE) == RESET))
 8003bd4:	68fb      	ldr	r3, [r7, #12]
 8003bd6:	681b      	ldr	r3, [r3, #0]
 8003bd8:	695b      	ldr	r3, [r3, #20]
 8003bda:	f003 0380 	and.w	r3, r3, #128	@ 0x80
 8003bde:	2b80      	cmp	r3, #128	@ 0x80
 8003be0:	d016      	beq.n	8003c10 <I2C_WaitOnTXEFlagUntilTimeout+0x78>
        {
          hi2c->PreviousState       = I2C_STATE_NONE;
 8003be2:	68fb      	ldr	r3, [r7, #12]
 8003be4:	2200      	movs	r2, #0
 8003be6:	631a      	str	r2, [r3, #48]	@ 0x30
          hi2c->State               = HAL_I2C_STATE_READY;
 8003be8:	68fb      	ldr	r3, [r7, #12]
 8003bea:	2220      	movs	r2, #32
 8003bec:	f883 203d 	strb.w	r2, [r3, #61]	@ 0x3d
          hi2c->Mode                = HAL_I2C_MODE_NONE;
 8003bf0:	68fb      	ldr	r3, [r7, #12]
 8003bf2:	2200      	movs	r2, #0
 8003bf4:	f883 203e 	strb.w	r2, [r3, #62]	@ 0x3e
          hi2c->ErrorCode           |= HAL_I2C_ERROR_TIMEOUT;
 8003bf8:	68fb      	ldr	r3, [r7, #12]
 8003bfa:	6c1b      	ldr	r3, [r3, #64]	@ 0x40
 8003bfc:	f043 0220 	orr.w	r2, r3, #32
 8003c00:	68fb      	ldr	r3, [r7, #12]
 8003c02:	641a      	str	r2, [r3, #64]	@ 0x40

          /* Process Unlocked */
          __HAL_UNLOCK(hi2c);
 8003c04:	68fb      	ldr	r3, [r7, #12]
 8003c06:	2200      	movs	r2, #0
 8003c08:	f883 203c 	strb.w	r2, [r3, #60]	@ 0x3c

          return HAL_ERROR;
 8003c0c:	2301      	movs	r3, #1
 8003c0e:	e007      	b.n	8003c20 <I2C_WaitOnTXEFlagUntilTimeout+0x88>
  while (__HAL_I2C_GET_FLAG(hi2c, I2C_FLAG_TXE) == RESET)
 8003c10:	68fb      	ldr	r3, [r7, #12]
 8003c12:	681b      	ldr	r3, [r3, #0]
 8003c14:	695b      	ldr	r3, [r3, #20]
 8003c16:	f003 0380 	and.w	r3, r3, #128	@ 0x80
 8003c1a:	2b80      	cmp	r3, #128	@ 0x80
 8003c1c:	d1c3      	bne.n	8003ba6 <I2C_WaitOnTXEFlagUntilTimeout+0xe>
        }
      }
    }
  }
  return HAL_OK;
 8003c1e:	2300      	movs	r3, #0
}
 8003c20:	4618      	mov	r0, r3
 8003c22:	3710      	adds	r7, #16
 8003c24:	46bd      	mov	sp, r7
 8003c26:	bd80      	pop	{r7, pc}

08003c28 <I2C_WaitOnRXNEFlagUntilTimeout>:
  * @param  Timeout Timeout duration
  * @param  Tickstart Tick start value
  * @retval HAL status
  */
static HAL_StatusTypeDef I2C_WaitOnRXNEFlagUntilTimeout(I2C_HandleTypeDef *hi2c, uint32_t Timeout, uint32_t Tickstart)
{
 8003c28:	b580      	push	{r7, lr}
 8003c2a:	b084      	sub	sp, #16
 8003c2c:	af00      	add	r7, sp, #0
 8003c2e:	60f8      	str	r0, [r7, #12]
 8003c30:	60b9      	str	r1, [r7, #8]
 8003c32:	607a      	str	r2, [r7, #4]

  while (__HAL_I2C_GET_FLAG(hi2c, I2C_FLAG_RXNE) == RESET)
 8003c34:	e049      	b.n	8003cca <I2C_WaitOnRXNEFlagUntilTimeout+0xa2>
  {
    /* Check if a STOPF is detected */
    if (__HAL_I2C_GET_FLAG(hi2c, I2C_FLAG_STOPF) == SET)
 8003c36:	68fb      	ldr	r3, [r7, #12]
 8003c38:	681b      	ldr	r3, [r3, #0]
 8003c3a:	695b      	ldr	r3, [r3, #20]
 8003c3c:	f003 0310 	and.w	r3, r3, #16
 8003c40:	2b10      	cmp	r3, #16
 8003c42:	d119      	bne.n	8003c78 <I2C_WaitOnRXNEFlagUntilTimeout+0x50>
    {
      /* Clear STOP Flag */
      __HAL_I2C_CLEAR_FLAG(hi2c, I2C_FLAG_STOPF);
 8003c44:	68fb      	ldr	r3, [r7, #12]
 8003c46:	681b      	ldr	r3, [r3, #0]
 8003c48:	f06f 0210 	mvn.w	r2, #16
 8003c4c:	615a      	str	r2, [r3, #20]

      hi2c->PreviousState       = I2C_STATE_NONE;
 8003c4e:	68fb      	ldr	r3, [r7, #12]
 8003c50:	2200      	movs	r2, #0
 8003c52:	631a      	str	r2, [r3, #48]	@ 0x30
      hi2c->State               = HAL_I2C_STATE_READY;
 8003c54:	68fb      	ldr	r3, [r7, #12]
 8003c56:	2220      	movs	r2, #32
 8003c58:	f883 203d 	strb.w	r2, [r3, #61]	@ 0x3d
      hi2c->Mode                = HAL_I2C_MODE_NONE;
 8003c5c:	68fb      	ldr	r3, [r7, #12]
 8003c5e:	2200      	movs	r2, #0
 8003c60:	f883 203e 	strb.w	r2, [r3, #62]	@ 0x3e
      hi2c->ErrorCode           |= HAL_I2C_ERROR_NONE;
 8003c64:	68fb      	ldr	r3, [r7, #12]
 8003c66:	6c1a      	ldr	r2, [r3, #64]	@ 0x40
 8003c68:	68fb      	ldr	r3, [r7, #12]
 8003c6a:	641a      	str	r2, [r3, #64]	@ 0x40

      /* Process Unlocked */
      __HAL_UNLOCK(hi2c);
 8003c6c:	68fb      	ldr	r3, [r7, #12]
 8003c6e:	2200      	movs	r2, #0
 8003c70:	f883 203c 	strb.w	r2, [r3, #60]	@ 0x3c

      return HAL_ERROR;
 8003c74:	2301      	movs	r3, #1
 8003c76:	e030      	b.n	8003cda <I2C_WaitOnRXNEFlagUntilTimeout+0xb2>
    }

    /* Check for the Timeout */
    if (((HAL_GetTick() - Tickstart) > Timeout) || (Timeout == 0U))
 8003c78:	f7fe f9fc 	bl	8002074 <HAL_GetTick>
 8003c7c:	4602      	mov	r2, r0
 8003c7e:	687b      	ldr	r3, [r7, #4]
 8003c80:	1ad3      	subs	r3, r2, r3
 8003c82:	68ba      	ldr	r2, [r7, #8]
 8003c84:	429a      	cmp	r2, r3
 8003c86:	d302      	bcc.n	8003c8e <I2C_WaitOnRXNEFlagUntilTimeout+0x66>
 8003c88:	68bb      	ldr	r3, [r7, #8]
 8003c8a:	2b00      	cmp	r3, #0
 8003c8c:	d11d      	bne.n	8003cca <I2C_WaitOnRXNEFlagUntilTimeout+0xa2>
    {
      if ((__HAL_I2C_GET_FLAG(hi2c, I2C_FLAG_RXNE) == RESET))
 8003c8e:	68fb      	ldr	r3, [r7, #12]
 8003c90:	681b      	ldr	r3, [r3, #0]
 8003c92:	695b      	ldr	r3, [r3, #20]
 8003c94:	f003 0340 	and.w	r3, r3, #64	@ 0x40
 8003c98:	2b40      	cmp	r3, #64	@ 0x40
 8003c9a:	d016      	beq.n	8003cca <I2C_WaitOnRXNEFlagUntilTimeout+0xa2>
      {
        hi2c->PreviousState       = I2C_STATE_NONE;
 8003c9c:	68fb      	ldr	r3, [r7, #12]
 8003c9e:	2200      	movs	r2, #0
 8003ca0:	631a      	str	r2, [r3, #48]	@ 0x30
        hi2c->State               = HAL_I2C_STATE_READY;
 8003ca2:	68fb      	ldr	r3, [r7, #12]
 8003ca4:	2220      	movs	r2, #32
 8003ca6:	f883 203d 	strb.w	r2, [r3, #61]	@ 0x3d
        hi2c->Mode                = HAL_I2C_MODE_NONE;
 8003caa:	68fb      	ldr	r3, [r7, #12]
 8003cac:	2200      	movs	r2, #0
 8003cae:	f883 203e 	strb.w	r2, [r3, #62]	@ 0x3e
        hi2c->ErrorCode           |= HAL_I2C_ERROR_TIMEOUT;
 8003cb2:	68fb      	ldr	r3, [r7, #12]
 8003cb4:	6c1b      	ldr	r3, [r3, #64]	@ 0x40
 8003cb6:	f043 0220 	orr.w	r2, r3, #32
 8003cba:	68fb      	ldr	r3, [r7, #12]
 8003cbc:	641a      	str	r2, [r3, #64]	@ 0x40

        /* Process Unlocked */
        __HAL_UNLOCK(hi2c);
 8003cbe:	68fb      	ldr	r3, [r7, #12]
 8003cc0:	2200      	movs	r2, #0
 8003cc2:	f883 203c 	strb.w	r2, [r3, #60]	@ 0x3c

        return HAL_ERROR;
 8003cc6:	2301      	movs	r3, #1
 8003cc8:	e007      	b.n	8003cda <I2C_WaitOnRXNEFlagUntilTimeout+0xb2>
  while (__HAL_I2C_GET_FLAG(hi2c, I2C_FLAG_RXNE) == RESET)
 8003cca:	68fb      	ldr	r3, [r7, #12]
 8003ccc:	681b      	ldr	r3, [r3, #0]
 8003cce:	695b      	ldr	r3, [r3, #20]
 8003cd0:	f003 0340 	and.w	r3, r3, #64	@ 0x40
 8003cd4:	2b40      	cmp	r3, #64	@ 0x40
 8003cd6:	d1ae      	bne.n	8003c36 <I2C_WaitOnRXNEFlagUntilTimeout+0xe>
      }
    }
  }
  return HAL_OK;
 8003cd8:	2300      	movs	r3, #0
}
 8003cda:	4618      	mov	r0, r3
 8003cdc:	3710      	adds	r7, #16
 8003cde:	46bd      	mov	sp, r7
 8003ce0:	bd80      	pop	{r7, pc}

08003ce2 <I2C_IsAcknowledgeFailed>:
  * @param  hi2c Pointer to a I2C_HandleTypeDef structure that contains
  *                the configuration information for the specified I2C.
  * @retval HAL status
  */
static HAL_StatusTypeDef I2C_IsAcknowledgeFailed(I2C_HandleTypeDef *hi2c)
{
 8003ce2:	b480      	push	{r7}
 8003ce4:	b083      	sub	sp, #12
 8003ce6:	af00      	add	r7, sp, #0
 8003ce8:	6078      	str	r0, [r7, #4]
  if (__HAL_I2C_GET_FLAG(hi2c, I2C_FLAG_AF) == SET)
 8003cea:	687b      	ldr	r3, [r7, #4]
 8003cec:	681b      	ldr	r3, [r3, #0]
 8003cee:	695b      	ldr	r3, [r3, #20]
 8003cf0:	f403 6380 	and.w	r3, r3, #1024	@ 0x400
 8003cf4:	f5b3 6f80 	cmp.w	r3, #1024	@ 0x400
 8003cf8:	d11b      	bne.n	8003d32 <I2C_IsAcknowledgeFailed+0x50>
  {
    /* Clear NACKF Flag */
    __HAL_I2C_CLEAR_FLAG(hi2c, I2C_FLAG_AF);
 8003cfa:	687b      	ldr	r3, [r7, #4]
 8003cfc:	681b      	ldr	r3, [r3, #0]
 8003cfe:	f46f 6280 	mvn.w	r2, #1024	@ 0x400
 8003d02:	615a      	str	r2, [r3, #20]

    hi2c->PreviousState       = I2C_STATE_NONE;
 8003d04:	687b      	ldr	r3, [r7, #4]
 8003d06:	2200      	movs	r2, #0
 8003d08:	631a      	str	r2, [r3, #48]	@ 0x30
    hi2c->State               = HAL_I2C_STATE_READY;
 8003d0a:	687b      	ldr	r3, [r7, #4]
 8003d0c:	2220      	movs	r2, #32
 8003d0e:	f883 203d 	strb.w	r2, [r3, #61]	@ 0x3d
    hi2c->Mode                = HAL_I2C_MODE_NONE;
 8003d12:	687b      	ldr	r3, [r7, #4]
 8003d14:	2200      	movs	r2, #0
 8003d16:	f883 203e 	strb.w	r2, [r3, #62]	@ 0x3e
    hi2c->ErrorCode           |= HAL_I2C_ERROR_AF;
 8003d1a:	687b      	ldr	r3, [r7, #4]
 8003d1c:	6c1b      	ldr	r3, [r3, #64]	@ 0x40
 8003d1e:	f043 0204 	orr.w	r2, r3, #4
 8003d22:	687b      	ldr	r3, [r7, #4]
 8003d24:	641a      	str	r2, [r3, #64]	@ 0x40

    /* Process Unlocked */
    __HAL_UNLOCK(hi2c);
 8003d26:	687b      	ldr	r3, [r7, #4]
 8003d28:	2200      	movs	r2, #0
 8003d2a:	f883 203c 	strb.w	r2, [r3, #60]	@ 0x3c

    return HAL_ERROR;
 8003d2e:	2301      	movs	r3, #1
 8003d30:	e000      	b.n	8003d34 <I2C_IsAcknowledgeFailed+0x52>
  }
  return HAL_OK;
 8003d32:	2300      	movs	r3, #0
}
 8003d34:	4618      	mov	r0, r3
 8003d36:	370c      	adds	r7, #12
 8003d38:	46bd      	mov	sp, r7
 8003d3a:	bc80      	pop	{r7}
 8003d3c:	4770      	bx	lr
	...

08003d40 <HAL_RCC_OscConfig>:
  *         supported by this macro. User should request a transition to HSE Off
  *         first and then HSE On or HSE Bypass.
  * @retval HAL status
  */
HAL_StatusTypeDef HAL_RCC_OscConfig(RCC_OscInitTypeDef  *RCC_OscInitStruct)
{
 8003d40:	b580      	push	{r7, lr}
 8003d42:	b086      	sub	sp, #24
 8003d44:	af00      	add	r7, sp, #0
 8003d46:	6078      	str	r0, [r7, #4]
  uint32_t tickstart;
  uint32_t pll_config;

  /* Check Null pointer */
  if (RCC_OscInitStruct == NULL)
 8003d48:	687b      	ldr	r3, [r7, #4]
 8003d4a:	2b00      	cmp	r3, #0
 8003d4c:	d101      	bne.n	8003d52 <HAL_RCC_OscConfig+0x12>
  {
    return HAL_ERROR;
 8003d4e:	2301      	movs	r3, #1
 8003d50:	e272      	b.n	8004238 <HAL_RCC_OscConfig+0x4f8>

  /* Check the parameters */
  assert_param(IS_RCC_OSCILLATORTYPE(RCC_OscInitStruct->OscillatorType));

  /*------------------------------- HSE Configuration ------------------------*/
  if (((RCC_OscInitStruct->OscillatorType) & RCC_OSCILLATORTYPE_HSE) == RCC_OSCILLATORTYPE_HSE)
 8003d52:	687b      	ldr	r3, [r7, #4]
 8003d54:	681b      	ldr	r3, [r3, #0]
 8003d56:	f003 0301 	and.w	r3, r3, #1
 8003d5a:	2b00      	cmp	r3, #0
 8003d5c:	f000 8087 	beq.w	8003e6e <HAL_RCC_OscConfig+0x12e>
  {
    /* Check the parameters */
    assert_param(IS_RCC_HSE(RCC_OscInitStruct->HSEState));

    /* When the HSE is used as system clock or clock source for PLL in these cases it is not allowed to be disabled */
    if ((__HAL_RCC_GET_SYSCLK_SOURCE() == RCC_SYSCLKSOURCE_STATUS_HSE)
 8003d60:	4b92      	ldr	r3, [pc, #584]	@ (8003fac <HAL_RCC_OscConfig+0x26c>)
 8003d62:	685b      	ldr	r3, [r3, #4]
 8003d64:	f003 030c 	and.w	r3, r3, #12
 8003d68:	2b04      	cmp	r3, #4
 8003d6a:	d00c      	beq.n	8003d86 <HAL_RCC_OscConfig+0x46>
        || ((__HAL_RCC_GET_SYSCLK_SOURCE() == RCC_SYSCLKSOURCE_STATUS_PLLCLK) && (__HAL_RCC_GET_PLL_OSCSOURCE() == RCC_PLLSOURCE_HSE)))
 8003d6c:	4b8f      	ldr	r3, [pc, #572]	@ (8003fac <HAL_RCC_OscConfig+0x26c>)
 8003d6e:	685b      	ldr	r3, [r3, #4]
 8003d70:	f003 030c 	and.w	r3, r3, #12
 8003d74:	2b08      	cmp	r3, #8
 8003d76:	d112      	bne.n	8003d9e <HAL_RCC_OscConfig+0x5e>
 8003d78:	4b8c      	ldr	r3, [pc, #560]	@ (8003fac <HAL_RCC_OscConfig+0x26c>)
 8003d7a:	685b      	ldr	r3, [r3, #4]
 8003d7c:	f403 3380 	and.w	r3, r3, #65536	@ 0x10000
 8003d80:	f5b3 3f80 	cmp.w	r3, #65536	@ 0x10000
 8003d84:	d10b      	bne.n	8003d9e <HAL_RCC_OscConfig+0x5e>
    {
      if ((__HAL_RCC_GET_FLAG(RCC_FLAG_HSERDY) != RESET) && (RCC_OscInitStruct->HSEState == RCC_HSE_OFF))
 8003d86:	4b89      	ldr	r3, [pc, #548]	@ (8003fac <HAL_RCC_OscConfig+0x26c>)
 8003d88:	681b      	ldr	r3, [r3, #0]
 8003d8a:	f403 3300 	and.w	r3, r3, #131072	@ 0x20000
 8003d8e:	2b00      	cmp	r3, #0
 8003d90:	d06c      	beq.n	8003e6c <HAL_RCC_OscConfig+0x12c>
 8003d92:	687b      	ldr	r3, [r7, #4]
 8003d94:	685b      	ldr	r3, [r3, #4]
 8003d96:	2b00      	cmp	r3, #0
 8003d98:	d168      	bne.n	8003e6c <HAL_RCC_OscConfig+0x12c>
      {
        return HAL_ERROR;
 8003d9a:	2301      	movs	r3, #1
 8003d9c:	e24c      	b.n	8004238 <HAL_RCC_OscConfig+0x4f8>
      }
    }
    else
    {
      /* Set the new HSE configuration ---------------------------------------*/
      __HAL_RCC_HSE_CONFIG(RCC_OscInitStruct->HSEState);
 8003d9e:	687b      	ldr	r3, [r7, #4]
 8003da0:	685b      	ldr	r3, [r3, #4]
 8003da2:	f5b3 3f80 	cmp.w	r3, #65536	@ 0x10000
 8003da6:	d106      	bne.n	8003db6 <HAL_RCC_OscConfig+0x76>
 8003da8:	4b80      	ldr	r3, [pc, #512]	@ (8003fac <HAL_RCC_OscConfig+0x26c>)
 8003daa:	681b      	ldr	r3, [r3, #0]
 8003dac:	4a7f      	ldr	r2, [pc, #508]	@ (8003fac <HAL_RCC_OscConfig+0x26c>)
 8003dae:	f443 3380 	orr.w	r3, r3, #65536	@ 0x10000
 8003db2:	6013      	str	r3, [r2, #0]
 8003db4:	e02e      	b.n	8003e14 <HAL_RCC_OscConfig+0xd4>
 8003db6:	687b      	ldr	r3, [r7, #4]
 8003db8:	685b      	ldr	r3, [r3, #4]
 8003dba:	2b00      	cmp	r3, #0
 8003dbc:	d10c      	bne.n	8003dd8 <HAL_RCC_OscConfig+0x98>
 8003dbe:	4b7b      	ldr	r3, [pc, #492]	@ (8003fac <HAL_RCC_OscConfig+0x26c>)
 8003dc0:	681b      	ldr	r3, [r3, #0]
 8003dc2:	4a7a      	ldr	r2, [pc, #488]	@ (8003fac <HAL_RCC_OscConfig+0x26c>)
 8003dc4:	f423 3380 	bic.w	r3, r3, #65536	@ 0x10000
 8003dc8:	6013      	str	r3, [r2, #0]
 8003dca:	4b78      	ldr	r3, [pc, #480]	@ (8003fac <HAL_RCC_OscConfig+0x26c>)
 8003dcc:	681b      	ldr	r3, [r3, #0]
 8003dce:	4a77      	ldr	r2, [pc, #476]	@ (8003fac <HAL_RCC_OscConfig+0x26c>)
 8003dd0:	f423 2380 	bic.w	r3, r3, #262144	@ 0x40000
 8003dd4:	6013      	str	r3, [r2, #0]
 8003dd6:	e01d      	b.n	8003e14 <HAL_RCC_OscConfig+0xd4>
 8003dd8:	687b      	ldr	r3, [r7, #4]
 8003dda:	685b      	ldr	r3, [r3, #4]
 8003ddc:	f5b3 2fa0 	cmp.w	r3, #327680	@ 0x50000
 8003de0:	d10c      	bne.n	8003dfc <HAL_RCC_OscConfig+0xbc>
 8003de2:	4b72      	ldr	r3, [pc, #456]	@ (8003fac <HAL_RCC_OscConfig+0x26c>)
 8003de4:	681b      	ldr	r3, [r3, #0]
 8003de6:	4a71      	ldr	r2, [pc, #452]	@ (8003fac <HAL_RCC_OscConfig+0x26c>)
 8003de8:	f443 2380 	orr.w	r3, r3, #262144	@ 0x40000
 8003dec:	6013      	str	r3, [r2, #0]
 8003dee:	4b6f      	ldr	r3, [pc, #444]	@ (8003fac <HAL_RCC_OscConfig+0x26c>)
 8003df0:	681b      	ldr	r3, [r3, #0]
 8003df2:	4a6e      	ldr	r2, [pc, #440]	@ (8003fac <HAL_RCC_OscConfig+0x26c>)
 8003df4:	f443 3380 	orr.w	r3, r3, #65536	@ 0x10000
 8003df8:	6013      	str	r3, [r2, #0]
 8003dfa:	e00b      	b.n	8003e14 <HAL_RCC_OscConfig+0xd4>
 8003dfc:	4b6b      	ldr	r3, [pc, #428]	@ (8003fac <HAL_RCC_OscConfig+0x26c>)
 8003dfe:	681b      	ldr	r3, [r3, #0]
 8003e00:	4a6a      	ldr	r2, [pc, #424]	@ (8003fac <HAL_RCC_OscConfig+0x26c>)
 8003e02:	f423 3380 	bic.w	r3, r3, #65536	@ 0x10000
 8003e06:	6013      	str	r3, [r2, #0]
 8003e08:	4b68      	ldr	r3, [pc, #416]	@ (8003fac <HAL_RCC_OscConfig+0x26c>)
 8003e0a:	681b      	ldr	r3, [r3, #0]
 8003e0c:	4a67      	ldr	r2, [pc, #412]	@ (8003fac <HAL_RCC_OscConfig+0x26c>)
 8003e0e:	f423 2380 	bic.w	r3, r3, #262144	@ 0x40000
 8003e12:	6013      	str	r3, [r2, #0]


      /* Check the HSE State */
      if (RCC_OscInitStruct->HSEState != RCC_HSE_OFF)
 8003e14:	687b      	ldr	r3, [r7, #4]
 8003e16:	685b      	ldr	r3, [r3, #4]
 8003e18:	2b00      	cmp	r3, #0
 8003e1a:	d013      	beq.n	8003e44 <HAL_RCC_OscConfig+0x104>
      {
        /* Get Start Tick */
        tickstart = HAL_GetTick();
 8003e1c:	f7fe f92a 	bl	8002074 <HAL_GetTick>
 8003e20:	6138      	str	r0, [r7, #16]

        /* Wait till HSE is ready */
        while (__HAL_RCC_GET_FLAG(RCC_FLAG_HSERDY) == RESET)
 8003e22:	e008      	b.n	8003e36 <HAL_RCC_OscConfig+0xf6>
        {
          if ((HAL_GetTick() - tickstart) > HSE_TIMEOUT_VALUE)
 8003e24:	f7fe f926 	bl	8002074 <HAL_GetTick>
 8003e28:	4602      	mov	r2, r0
 8003e2a:	693b      	ldr	r3, [r7, #16]
 8003e2c:	1ad3      	subs	r3, r2, r3
 8003e2e:	2b64      	cmp	r3, #100	@ 0x64
 8003e30:	d901      	bls.n	8003e36 <HAL_RCC_OscConfig+0xf6>
          {
            return HAL_TIMEOUT;
 8003e32:	2303      	movs	r3, #3
 8003e34:	e200      	b.n	8004238 <HAL_RCC_OscConfig+0x4f8>
        while (__HAL_RCC_GET_FLAG(RCC_FLAG_HSERDY) == RESET)
 8003e36:	4b5d      	ldr	r3, [pc, #372]	@ (8003fac <HAL_RCC_OscConfig+0x26c>)
 8003e38:	681b      	ldr	r3, [r3, #0]
 8003e3a:	f403 3300 	and.w	r3, r3, #131072	@ 0x20000
 8003e3e:	2b00      	cmp	r3, #0
 8003e40:	d0f0      	beq.n	8003e24 <HAL_RCC_OscConfig+0xe4>
 8003e42:	e014      	b.n	8003e6e <HAL_RCC_OscConfig+0x12e>
        }
      }
      else
      {
        /* Get Start Tick */
        tickstart = HAL_GetTick();
 8003e44:	f7fe f916 	bl	8002074 <HAL_GetTick>
 8003e48:	6138      	str	r0, [r7, #16]

        /* Wait till HSE is disabled */
        while (__HAL_RCC_GET_FLAG(RCC_FLAG_HSERDY) != RESET)
 8003e4a:	e008      	b.n	8003e5e <HAL_RCC_OscConfig+0x11e>
        {
          if ((HAL_GetTick() - tickstart) > HSE_TIMEOUT_VALUE)
 8003e4c:	f7fe f912 	bl	8002074 <HAL_GetTick>
 8003e50:	4602      	mov	r2, r0
 8003e52:	693b      	ldr	r3, [r7, #16]
 8003e54:	1ad3      	subs	r3, r2, r3
 8003e56:	2b64      	cmp	r3, #100	@ 0x64
 8003e58:	d901      	bls.n	8003e5e <HAL_RCC_OscConfig+0x11e>
          {
            return HAL_TIMEOUT;
 8003e5a:	2303      	movs	r3, #3
 8003e5c:	e1ec      	b.n	8004238 <HAL_RCC_OscConfig+0x4f8>
        while (__HAL_RCC_GET_FLAG(RCC_FLAG_HSERDY) != RESET)
 8003e5e:	4b53      	ldr	r3, [pc, #332]	@ (8003fac <HAL_RCC_OscConfig+0x26c>)
 8003e60:	681b      	ldr	r3, [r3, #0]
 8003e62:	f403 3300 	and.w	r3, r3, #131072	@ 0x20000
 8003e66:	2b00      	cmp	r3, #0
 8003e68:	d1f0      	bne.n	8003e4c <HAL_RCC_OscConfig+0x10c>
 8003e6a:	e000      	b.n	8003e6e <HAL_RCC_OscConfig+0x12e>
      if ((__HAL_RCC_GET_FLAG(RCC_FLAG_HSERDY) != RESET) && (RCC_OscInitStruct->HSEState == RCC_HSE_OFF))
 8003e6c:	bf00      	nop
        }
      }
    }
  }
  /*----------------------------- HSI Configuration --------------------------*/
  if (((RCC_OscInitStruct->OscillatorType) & RCC_OSCILLATORTYPE_HSI) == RCC_OSCILLATORTYPE_HSI)
 8003e6e:	687b      	ldr	r3, [r7, #4]
 8003e70:	681b      	ldr	r3, [r3, #0]
 8003e72:	f003 0302 	and.w	r3, r3, #2
 8003e76:	2b00      	cmp	r3, #0
 8003e78:	d063      	beq.n	8003f42 <HAL_RCC_OscConfig+0x202>
    /* Check the parameters */
    assert_param(IS_RCC_HSI(RCC_OscInitStruct->HSIState));
    assert_param(IS_RCC_CALIBRATION_VALUE(RCC_OscInitStruct->HSICalibrationValue));

    /* Check if HSI is used as system clock or as PLL source when PLL is selected as system clock */
    if ((__HAL_RCC_GET_SYSCLK_SOURCE() == RCC_SYSCLKSOURCE_STATUS_HSI)
 8003e7a:	4b4c      	ldr	r3, [pc, #304]	@ (8003fac <HAL_RCC_OscConfig+0x26c>)
 8003e7c:	685b      	ldr	r3, [r3, #4]
 8003e7e:	f003 030c 	and.w	r3, r3, #12
 8003e82:	2b00      	cmp	r3, #0
 8003e84:	d00b      	beq.n	8003e9e <HAL_RCC_OscConfig+0x15e>
        || ((__HAL_RCC_GET_SYSCLK_SOURCE() == RCC_SYSCLKSOURCE_STATUS_PLLCLK) && (__HAL_RCC_GET_PLL_OSCSOURCE() == RCC_PLLSOURCE_HSI_DIV2)))
 8003e86:	4b49      	ldr	r3, [pc, #292]	@ (8003fac <HAL_RCC_OscConfig+0x26c>)
 8003e88:	685b      	ldr	r3, [r3, #4]
 8003e8a:	f003 030c 	and.w	r3, r3, #12
 8003e8e:	2b08      	cmp	r3, #8
 8003e90:	d11c      	bne.n	8003ecc <HAL_RCC_OscConfig+0x18c>
 8003e92:	4b46      	ldr	r3, [pc, #280]	@ (8003fac <HAL_RCC_OscConfig+0x26c>)
 8003e94:	685b      	ldr	r3, [r3, #4]
 8003e96:	f403 3380 	and.w	r3, r3, #65536	@ 0x10000
 8003e9a:	2b00      	cmp	r3, #0
 8003e9c:	d116      	bne.n	8003ecc <HAL_RCC_OscConfig+0x18c>
    {
      /* When HSI is used as system clock it will not disabled */
      if ((__HAL_RCC_GET_FLAG(RCC_FLAG_HSIRDY) != RESET) && (RCC_OscInitStruct->HSIState != RCC_HSI_ON))
 8003e9e:	4b43      	ldr	r3, [pc, #268]	@ (8003fac <HAL_RCC_OscConfig+0x26c>)
 8003ea0:	681b      	ldr	r3, [r3, #0]
 8003ea2:	f003 0302 	and.w	r3, r3, #2
 8003ea6:	2b00      	cmp	r3, #0
 8003ea8:	d005      	beq.n	8003eb6 <HAL_RCC_OscConfig+0x176>
 8003eaa:	687b      	ldr	r3, [r7, #4]
 8003eac:	691b      	ldr	r3, [r3, #16]
 8003eae:	2b01      	cmp	r3, #1
 8003eb0:	d001      	beq.n	8003eb6 <HAL_RCC_OscConfig+0x176>
      {
        return HAL_ERROR;
 8003eb2:	2301      	movs	r3, #1
 8003eb4:	e1c0      	b.n	8004238 <HAL_RCC_OscConfig+0x4f8>
      }
      /* Otherwise, just the calibration is allowed */
      else
      {
        /* Adjusts the Internal High Speed oscillator (HSI) calibration value.*/
        __HAL_RCC_HSI_CALIBRATIONVALUE_ADJUST(RCC_OscInitStruct->HSICalibrationValue);
 8003eb6:	4b3d      	ldr	r3, [pc, #244]	@ (8003fac <HAL_RCC_OscConfig+0x26c>)
 8003eb8:	681b      	ldr	r3, [r3, #0]
 8003eba:	f023 02f8 	bic.w	r2, r3, #248	@ 0xf8
 8003ebe:	687b      	ldr	r3, [r7, #4]
 8003ec0:	695b      	ldr	r3, [r3, #20]
 8003ec2:	00db      	lsls	r3, r3, #3
 8003ec4:	4939      	ldr	r1, [pc, #228]	@ (8003fac <HAL_RCC_OscConfig+0x26c>)
 8003ec6:	4313      	orrs	r3, r2
 8003ec8:	600b      	str	r3, [r1, #0]
      if ((__HAL_RCC_GET_FLAG(RCC_FLAG_HSIRDY) != RESET) && (RCC_OscInitStruct->HSIState != RCC_HSI_ON))
 8003eca:	e03a      	b.n	8003f42 <HAL_RCC_OscConfig+0x202>
      }
    }
    else
    {
      /* Check the HSI State */
      if (RCC_OscInitStruct->HSIState != RCC_HSI_OFF)
 8003ecc:	687b      	ldr	r3, [r7, #4]
 8003ece:	691b      	ldr	r3, [r3, #16]
 8003ed0:	2b00      	cmp	r3, #0
 8003ed2:	d020      	beq.n	8003f16 <HAL_RCC_OscConfig+0x1d6>
      {
        /* Enable the Internal High Speed oscillator (HSI). */
        __HAL_RCC_HSI_ENABLE();
 8003ed4:	4b36      	ldr	r3, [pc, #216]	@ (8003fb0 <HAL_RCC_OscConfig+0x270>)
 8003ed6:	2201      	movs	r2, #1
 8003ed8:	601a      	str	r2, [r3, #0]

        /* Get Start Tick */
        tickstart = HAL_GetTick();
 8003eda:	f7fe f8cb 	bl	8002074 <HAL_GetTick>
 8003ede:	6138      	str	r0, [r7, #16]

        /* Wait till HSI is ready */
        while (__HAL_RCC_GET_FLAG(RCC_FLAG_HSIRDY) == RESET)
 8003ee0:	e008      	b.n	8003ef4 <HAL_RCC_OscConfig+0x1b4>
        {
          if ((HAL_GetTick() - tickstart) > HSI_TIMEOUT_VALUE)
 8003ee2:	f7fe f8c7 	bl	8002074 <HAL_GetTick>
 8003ee6:	4602      	mov	r2, r0
 8003ee8:	693b      	ldr	r3, [r7, #16]
 8003eea:	1ad3      	subs	r3, r2, r3
 8003eec:	2b02      	cmp	r3, #2
 8003eee:	d901      	bls.n	8003ef4 <HAL_RCC_OscConfig+0x1b4>
          {
            return HAL_TIMEOUT;
 8003ef0:	2303      	movs	r3, #3
 8003ef2:	e1a1      	b.n	8004238 <HAL_RCC_OscConfig+0x4f8>
        while (__HAL_RCC_GET_FLAG(RCC_FLAG_HSIRDY) == RESET)
 8003ef4:	4b2d      	ldr	r3, [pc, #180]	@ (8003fac <HAL_RCC_OscConfig+0x26c>)
 8003ef6:	681b      	ldr	r3, [r3, #0]
 8003ef8:	f003 0302 	and.w	r3, r3, #2
 8003efc:	2b00      	cmp	r3, #0
 8003efe:	d0f0      	beq.n	8003ee2 <HAL_RCC_OscConfig+0x1a2>
          }
        }

        /* Adjusts the Internal High Speed oscillator (HSI) calibration value.*/
        __HAL_RCC_HSI_CALIBRATIONVALUE_ADJUST(RCC_OscInitStruct->HSICalibrationValue);
 8003f00:	4b2a      	ldr	r3, [pc, #168]	@ (8003fac <HAL_RCC_OscConfig+0x26c>)
 8003f02:	681b      	ldr	r3, [r3, #0]
 8003f04:	f023 02f8 	bic.w	r2, r3, #248	@ 0xf8
 8003f08:	687b      	ldr	r3, [r7, #4]
 8003f0a:	695b      	ldr	r3, [r3, #20]
 8003f0c:	00db      	lsls	r3, r3, #3
 8003f0e:	4927      	ldr	r1, [pc, #156]	@ (8003fac <HAL_RCC_OscConfig+0x26c>)
 8003f10:	4313      	orrs	r3, r2
 8003f12:	600b      	str	r3, [r1, #0]
 8003f14:	e015      	b.n	8003f42 <HAL_RCC_OscConfig+0x202>
      }
      else
      {
        /* Disable the Internal High Speed oscillator (HSI). */
        __HAL_RCC_HSI_DISABLE();
 8003f16:	4b26      	ldr	r3, [pc, #152]	@ (8003fb0 <HAL_RCC_OscConfig+0x270>)
 8003f18:	2200      	movs	r2, #0
 8003f1a:	601a      	str	r2, [r3, #0]

        /* Get Start Tick */
        tickstart = HAL_GetTick();
 8003f1c:	f7fe f8aa 	bl	8002074 <HAL_GetTick>
 8003f20:	6138      	str	r0, [r7, #16]

        /* Wait till HSI is disabled */
        while (__HAL_RCC_GET_FLAG(RCC_FLAG_HSIRDY) != RESET)
 8003f22:	e008      	b.n	8003f36 <HAL_RCC_OscConfig+0x1f6>
        {
          if ((HAL_GetTick() - tickstart) > HSI_TIMEOUT_VALUE)
 8003f24:	f7fe f8a6 	bl	8002074 <HAL_GetTick>
 8003f28:	4602      	mov	r2, r0
 8003f2a:	693b      	ldr	r3, [r7, #16]
 8003f2c:	1ad3      	subs	r3, r2, r3
 8003f2e:	2b02      	cmp	r3, #2
 8003f30:	d901      	bls.n	8003f36 <HAL_RCC_OscConfig+0x1f6>
          {
            return HAL_TIMEOUT;
 8003f32:	2303      	movs	r3, #3
 8003f34:	e180      	b.n	8004238 <HAL_RCC_OscConfig+0x4f8>
        while (__HAL_RCC_GET_FLAG(RCC_FLAG_HSIRDY) != RESET)
 8003f36:	4b1d      	ldr	r3, [pc, #116]	@ (8003fac <HAL_RCC_OscConfig+0x26c>)
 8003f38:	681b      	ldr	r3, [r3, #0]
 8003f3a:	f003 0302 	and.w	r3, r3, #2
 8003f3e:	2b00      	cmp	r3, #0
 8003f40:	d1f0      	bne.n	8003f24 <HAL_RCC_OscConfig+0x1e4>
        }
      }
    }
  }
  /*------------------------------ LSI Configuration -------------------------*/
  if (((RCC_OscInitStruct->OscillatorType) & RCC_OSCILLATORTYPE_LSI) == RCC_OSCILLATORTYPE_LSI)
 8003f42:	687b      	ldr	r3, [r7, #4]
 8003f44:	681b      	ldr	r3, [r3, #0]
 8003f46:	f003 0308 	and.w	r3, r3, #8
 8003f4a:	2b00      	cmp	r3, #0
 8003f4c:	d03a      	beq.n	8003fc4 <HAL_RCC_OscConfig+0x284>
  {
    /* Check the parameters */
    assert_param(IS_RCC_LSI(RCC_OscInitStruct->LSIState));

    /* Check the LSI State */
    if (RCC_OscInitStruct->LSIState != RCC_LSI_OFF)
 8003f4e:	687b      	ldr	r3, [r7, #4]
 8003f50:	699b      	ldr	r3, [r3, #24]
 8003f52:	2b00      	cmp	r3, #0
 8003f54:	d019      	beq.n	8003f8a <HAL_RCC_OscConfig+0x24a>
    {
      /* Enable the Internal Low Speed oscillator (LSI). */
      __HAL_RCC_LSI_ENABLE();
 8003f56:	4b17      	ldr	r3, [pc, #92]	@ (8003fb4 <HAL_RCC_OscConfig+0x274>)
 8003f58:	2201      	movs	r2, #1
 8003f5a:	601a      	str	r2, [r3, #0]

      /* Get Start Tick */
      tickstart = HAL_GetTick();
 8003f5c:	f7fe f88a 	bl	8002074 <HAL_GetTick>
 8003f60:	6138      	str	r0, [r7, #16]

      /* Wait till LSI is ready */
      while (__HAL_RCC_GET_FLAG(RCC_FLAG_LSIRDY) == RESET)
 8003f62:	e008      	b.n	8003f76 <HAL_RCC_OscConfig+0x236>
      {
        if ((HAL_GetTick() - tickstart) > LSI_TIMEOUT_VALUE)
 8003f64:	f7fe f886 	bl	8002074 <HAL_GetTick>
 8003f68:	4602      	mov	r2, r0
 8003f6a:	693b      	ldr	r3, [r7, #16]
 8003f6c:	1ad3      	subs	r3, r2, r3
 8003f6e:	2b02      	cmp	r3, #2
 8003f70:	d901      	bls.n	8003f76 <HAL_RCC_OscConfig+0x236>
        {
          return HAL_TIMEOUT;
 8003f72:	2303      	movs	r3, #3
 8003f74:	e160      	b.n	8004238 <HAL_RCC_OscConfig+0x4f8>
      while (__HAL_RCC_GET_FLAG(RCC_FLAG_LSIRDY) == RESET)
 8003f76:	4b0d      	ldr	r3, [pc, #52]	@ (8003fac <HAL_RCC_OscConfig+0x26c>)
 8003f78:	6a5b      	ldr	r3, [r3, #36]	@ 0x24
 8003f7a:	f003 0302 	and.w	r3, r3, #2
 8003f7e:	2b00      	cmp	r3, #0
 8003f80:	d0f0      	beq.n	8003f64 <HAL_RCC_OscConfig+0x224>
        }
      }
      /*  To have a fully stabilized clock in the specified range, a software delay of 1ms
          should be added.*/
      RCC_Delay(1);
 8003f82:	2001      	movs	r0, #1
 8003f84:	f000 fafe 	bl	8004584 <RCC_Delay>
 8003f88:	e01c      	b.n	8003fc4 <HAL_RCC_OscConfig+0x284>
    }
    else
    {
      /* Disable the Internal Low Speed oscillator (LSI). */
      __HAL_RCC_LSI_DISABLE();
 8003f8a:	4b0a      	ldr	r3, [pc, #40]	@ (8003fb4 <HAL_RCC_OscConfig+0x274>)
 8003f8c:	2200      	movs	r2, #0
 8003f8e:	601a      	str	r2, [r3, #0]

      /* Get Start Tick */
      tickstart = HAL_GetTick();
 8003f90:	f7fe f870 	bl	8002074 <HAL_GetTick>
 8003f94:	6138      	str	r0, [r7, #16]

      /* Wait till LSI is disabled */
      while (__HAL_RCC_GET_FLAG(RCC_FLAG_LSIRDY) != RESET)
 8003f96:	e00f      	b.n	8003fb8 <HAL_RCC_OscConfig+0x278>
      {
        if ((HAL_GetTick() - tickstart) > LSI_TIMEOUT_VALUE)
 8003f98:	f7fe f86c 	bl	8002074 <HAL_GetTick>
 8003f9c:	4602      	mov	r2, r0
 8003f9e:	693b      	ldr	r3, [r7, #16]
 8003fa0:	1ad3      	subs	r3, r2, r3
 8003fa2:	2b02      	cmp	r3, #2
 8003fa4:	d908      	bls.n	8003fb8 <HAL_RCC_OscConfig+0x278>
        {
          return HAL_TIMEOUT;
 8003fa6:	2303      	movs	r3, #3
 8003fa8:	e146      	b.n	8004238 <HAL_RCC_OscConfig+0x4f8>
 8003faa:	bf00      	nop
 8003fac:	40021000 	.word	0x40021000
 8003fb0:	42420000 	.word	0x42420000
 8003fb4:	42420480 	.word	0x42420480
      while (__HAL_RCC_GET_FLAG(RCC_FLAG_LSIRDY) != RESET)
 8003fb8:	4b92      	ldr	r3, [pc, #584]	@ (8004204 <HAL_RCC_OscConfig+0x4c4>)
 8003fba:	6a5b      	ldr	r3, [r3, #36]	@ 0x24
 8003fbc:	f003 0302 	and.w	r3, r3, #2
 8003fc0:	2b00      	cmp	r3, #0
 8003fc2:	d1e9      	bne.n	8003f98 <HAL_RCC_OscConfig+0x258>
        }
      }
    }
  }
  /*------------------------------ LSE Configuration -------------------------*/
  if (((RCC_OscInitStruct->OscillatorType) & RCC_OSCILLATORTYPE_LSE) == RCC_OSCILLATORTYPE_LSE)
 8003fc4:	687b      	ldr	r3, [r7, #4]
 8003fc6:	681b      	ldr	r3, [r3, #0]
 8003fc8:	f003 0304 	and.w	r3, r3, #4
 8003fcc:	2b00      	cmp	r3, #0
 8003fce:	f000 80a6 	beq.w	800411e <HAL_RCC_OscConfig+0x3de>
  {
    FlagStatus       pwrclkchanged = RESET;
 8003fd2:	2300      	movs	r3, #0
 8003fd4:	75fb      	strb	r3, [r7, #23]
    /* Check the parameters */
    assert_param(IS_RCC_LSE(RCC_OscInitStruct->LSEState));

    /* Update LSE configuration in Backup Domain control register    */
    /* Requires to enable write access to Backup Domain of necessary */
    if (__HAL_RCC_PWR_IS_CLK_DISABLED())
 8003fd6:	4b8b      	ldr	r3, [pc, #556]	@ (8004204 <HAL_RCC_OscConfig+0x4c4>)
 8003fd8:	69db      	ldr	r3, [r3, #28]
 8003fda:	f003 5380 	and.w	r3, r3, #268435456	@ 0x10000000
 8003fde:	2b00      	cmp	r3, #0
 8003fe0:	d10d      	bne.n	8003ffe <HAL_RCC_OscConfig+0x2be>
    {
      __HAL_RCC_PWR_CLK_ENABLE();
 8003fe2:	4b88      	ldr	r3, [pc, #544]	@ (8004204 <HAL_RCC_OscConfig+0x4c4>)
 8003fe4:	69db      	ldr	r3, [r3, #28]
 8003fe6:	4a87      	ldr	r2, [pc, #540]	@ (8004204 <HAL_RCC_OscConfig+0x4c4>)
 8003fe8:	f043 5380 	orr.w	r3, r3, #268435456	@ 0x10000000
 8003fec:	61d3      	str	r3, [r2, #28]
 8003fee:	4b85      	ldr	r3, [pc, #532]	@ (8004204 <HAL_RCC_OscConfig+0x4c4>)
 8003ff0:	69db      	ldr	r3, [r3, #28]
 8003ff2:	f003 5380 	and.w	r3, r3, #268435456	@ 0x10000000
 8003ff6:	60bb      	str	r3, [r7, #8]
 8003ff8:	68bb      	ldr	r3, [r7, #8]
      pwrclkchanged = SET;
 8003ffa:	2301      	movs	r3, #1
 8003ffc:	75fb      	strb	r3, [r7, #23]
    }

    if (HAL_IS_BIT_CLR(PWR->CR, PWR_CR_DBP))
 8003ffe:	4b82      	ldr	r3, [pc, #520]	@ (8004208 <HAL_RCC_OscConfig+0x4c8>)
 8004000:	681b      	ldr	r3, [r3, #0]
 8004002:	f403 7380 	and.w	r3, r3, #256	@ 0x100
 8004006:	2b00      	cmp	r3, #0
 8004008:	d118      	bne.n	800403c <HAL_RCC_OscConfig+0x2fc>
    {
      /* Enable write access to Backup domain */
      SET_BIT(PWR->CR, PWR_CR_DBP);
 800400a:	4b7f      	ldr	r3, [pc, #508]	@ (8004208 <HAL_RCC_OscConfig+0x4c8>)
 800400c:	681b      	ldr	r3, [r3, #0]
 800400e:	4a7e      	ldr	r2, [pc, #504]	@ (8004208 <HAL_RCC_OscConfig+0x4c8>)
 8004010:	f443 7380 	orr.w	r3, r3, #256	@ 0x100
 8004014:	6013      	str	r3, [r2, #0]

      /* Wait for Backup domain Write protection disable */
      tickstart = HAL_GetTick();
 8004016:	f7fe f82d 	bl	8002074 <HAL_GetTick>
 800401a:	6138      	str	r0, [r7, #16]

      while (HAL_IS_BIT_CLR(PWR->CR, PWR_CR_DBP))
 800401c:	e008      	b.n	8004030 <HAL_RCC_OscConfig+0x2f0>
      {
        if ((HAL_GetTick() - tickstart) > RCC_DBP_TIMEOUT_VALUE)
 800401e:	f7fe f829 	bl	8002074 <HAL_GetTick>
 8004022:	4602      	mov	r2, r0
 8004024:	693b      	ldr	r3, [r7, #16]
 8004026:	1ad3      	subs	r3, r2, r3
 8004028:	2b64      	cmp	r3, #100	@ 0x64
 800402a:	d901      	bls.n	8004030 <HAL_RCC_OscConfig+0x2f0>
        {
          return HAL_TIMEOUT;
 800402c:	2303      	movs	r3, #3
 800402e:	e103      	b.n	8004238 <HAL_RCC_OscConfig+0x4f8>
      while (HAL_IS_BIT_CLR(PWR->CR, PWR_CR_DBP))
 8004030:	4b75      	ldr	r3, [pc, #468]	@ (8004208 <HAL_RCC_OscConfig+0x4c8>)
 8004032:	681b      	ldr	r3, [r3, #0]
 8004034:	f403 7380 	and.w	r3, r3, #256	@ 0x100
 8004038:	2b00      	cmp	r3, #0
 800403a:	d0f0      	beq.n	800401e <HAL_RCC_OscConfig+0x2de>
        }
      }
    }

    /* Set the new LSE configuration -----------------------------------------*/
    __HAL_RCC_LSE_CONFIG(RCC_OscInitStruct->LSEState);
 800403c:	687b      	ldr	r3, [r7, #4]
 800403e:	68db      	ldr	r3, [r3, #12]
 8004040:	2b01      	cmp	r3, #1
 8004042:	d106      	bne.n	8004052 <HAL_RCC_OscConfig+0x312>
 8004044:	4b6f      	ldr	r3, [pc, #444]	@ (8004204 <HAL_RCC_OscConfig+0x4c4>)
 8004046:	6a1b      	ldr	r3, [r3, #32]
 8004048:	4a6e      	ldr	r2, [pc, #440]	@ (8004204 <HAL_RCC_OscConfig+0x4c4>)
 800404a:	f043 0301 	orr.w	r3, r3, #1
 800404e:	6213      	str	r3, [r2, #32]
 8004050:	e02d      	b.n	80040ae <HAL_RCC_OscConfig+0x36e>
 8004052:	687b      	ldr	r3, [r7, #4]
 8004054:	68db      	ldr	r3, [r3, #12]
 8004056:	2b00      	cmp	r3, #0
 8004058:	d10c      	bne.n	8004074 <HAL_RCC_OscConfig+0x334>
 800405a:	4b6a      	ldr	r3, [pc, #424]	@ (8004204 <HAL_RCC_OscConfig+0x4c4>)
 800405c:	6a1b      	ldr	r3, [r3, #32]
 800405e:	4a69      	ldr	r2, [pc, #420]	@ (8004204 <HAL_RCC_OscConfig+0x4c4>)
 8004060:	f023 0301 	bic.w	r3, r3, #1
 8004064:	6213      	str	r3, [r2, #32]
 8004066:	4b67      	ldr	r3, [pc, #412]	@ (8004204 <HAL_RCC_OscConfig+0x4c4>)
 8004068:	6a1b      	ldr	r3, [r3, #32]
 800406a:	4a66      	ldr	r2, [pc, #408]	@ (8004204 <HAL_RCC_OscConfig+0x4c4>)
 800406c:	f023 0304 	bic.w	r3, r3, #4
 8004070:	6213      	str	r3, [r2, #32]
 8004072:	e01c      	b.n	80040ae <HAL_RCC_OscConfig+0x36e>
 8004074:	687b      	ldr	r3, [r7, #4]
 8004076:	68db      	ldr	r3, [r3, #12]
 8004078:	2b05      	cmp	r3, #5
 800407a:	d10c      	bne.n	8004096 <HAL_RCC_OscConfig+0x356>
 800407c:	4b61      	ldr	r3, [pc, #388]	@ (8004204 <HAL_RCC_OscConfig+0x4c4>)
 800407e:	6a1b      	ldr	r3, [r3, #32]
 8004080:	4a60      	ldr	r2, [pc, #384]	@ (8004204 <HAL_RCC_OscConfig+0x4c4>)
 8004082:	f043 0304 	orr.w	r3, r3, #4
 8004086:	6213      	str	r3, [r2, #32]
 8004088:	4b5e      	ldr	r3, [pc, #376]	@ (8004204 <HAL_RCC_OscConfig+0x4c4>)
 800408a:	6a1b      	ldr	r3, [r3, #32]
 800408c:	4a5d      	ldr	r2, [pc, #372]	@ (8004204 <HAL_RCC_OscConfig+0x4c4>)
 800408e:	f043 0301 	orr.w	r3, r3, #1
 8004092:	6213      	str	r3, [r2, #32]
 8004094:	e00b      	b.n	80040ae <HAL_RCC_OscConfig+0x36e>
 8004096:	4b5b      	ldr	r3, [pc, #364]	@ (8004204 <HAL_RCC_OscConfig+0x4c4>)
 8004098:	6a1b      	ldr	r3, [r3, #32]
 800409a:	4a5a      	ldr	r2, [pc, #360]	@ (8004204 <HAL_RCC_OscConfig+0x4c4>)
 800409c:	f023 0301 	bic.w	r3, r3, #1
 80040a0:	6213      	str	r3, [r2, #32]
 80040a2:	4b58      	ldr	r3, [pc, #352]	@ (8004204 <HAL_RCC_OscConfig+0x4c4>)
 80040a4:	6a1b      	ldr	r3, [r3, #32]
 80040a6:	4a57      	ldr	r2, [pc, #348]	@ (8004204 <HAL_RCC_OscConfig+0x4c4>)
 80040a8:	f023 0304 	bic.w	r3, r3, #4
 80040ac:	6213      	str	r3, [r2, #32]
    /* Check the LSE State */
    if (RCC_OscInitStruct->LSEState != RCC_LSE_OFF)
 80040ae:	687b      	ldr	r3, [r7, #4]
 80040b0:	68db      	ldr	r3, [r3, #12]
 80040b2:	2b00      	cmp	r3, #0
 80040b4:	d015      	beq.n	80040e2 <HAL_RCC_OscConfig+0x3a2>
    {
      /* Get Start Tick */
      tickstart = HAL_GetTick();
 80040b6:	f7fd ffdd 	bl	8002074 <HAL_GetTick>
 80040ba:	6138      	str	r0, [r7, #16]

      /* Wait till LSE is ready */
      while (__HAL_RCC_GET_FLAG(RCC_FLAG_LSERDY) == RESET)
 80040bc:	e00a      	b.n	80040d4 <HAL_RCC_OscConfig+0x394>
      {
        if ((HAL_GetTick() - tickstart) > RCC_LSE_TIMEOUT_VALUE)
 80040be:	f7fd ffd9 	bl	8002074 <HAL_GetTick>
 80040c2:	4602      	mov	r2, r0
 80040c4:	693b      	ldr	r3, [r7, #16]
 80040c6:	1ad3      	subs	r3, r2, r3
 80040c8:	f241 3288 	movw	r2, #5000	@ 0x1388
 80040cc:	4293      	cmp	r3, r2
 80040ce:	d901      	bls.n	80040d4 <HAL_RCC_OscConfig+0x394>
        {
          return HAL_TIMEOUT;
 80040d0:	2303      	movs	r3, #3
 80040d2:	e0b1      	b.n	8004238 <HAL_RCC_OscConfig+0x4f8>
      while (__HAL_RCC_GET_FLAG(RCC_FLAG_LSERDY) == RESET)
 80040d4:	4b4b      	ldr	r3, [pc, #300]	@ (8004204 <HAL_RCC_OscConfig+0x4c4>)
 80040d6:	6a1b      	ldr	r3, [r3, #32]
 80040d8:	f003 0302 	and.w	r3, r3, #2
 80040dc:	2b00      	cmp	r3, #0
 80040de:	d0ee      	beq.n	80040be <HAL_RCC_OscConfig+0x37e>
 80040e0:	e014      	b.n	800410c <HAL_RCC_OscConfig+0x3cc>
      }
    }
    else
    {
      /* Get Start Tick */
      tickstart = HAL_GetTick();
 80040e2:	f7fd ffc7 	bl	8002074 <HAL_GetTick>
 80040e6:	6138      	str	r0, [r7, #16]

      /* Wait till LSE is disabled */
      while (__HAL_RCC_GET_FLAG(RCC_FLAG_LSERDY) != RESET)
 80040e8:	e00a      	b.n	8004100 <HAL_RCC_OscConfig+0x3c0>
      {
        if ((HAL_GetTick() - tickstart) > RCC_LSE_TIMEOUT_VALUE)
 80040ea:	f7fd ffc3 	bl	8002074 <HAL_GetTick>
 80040ee:	4602      	mov	r2, r0
 80040f0:	693b      	ldr	r3, [r7, #16]
 80040f2:	1ad3      	subs	r3, r2, r3
 80040f4:	f241 3288 	movw	r2, #5000	@ 0x1388
 80040f8:	4293      	cmp	r3, r2
 80040fa:	d901      	bls.n	8004100 <HAL_RCC_OscConfig+0x3c0>
        {
          return HAL_TIMEOUT;
 80040fc:	2303      	movs	r3, #3
 80040fe:	e09b      	b.n	8004238 <HAL_RCC_OscConfig+0x4f8>
      while (__HAL_RCC_GET_FLAG(RCC_FLAG_LSERDY) != RESET)
 8004100:	4b40      	ldr	r3, [pc, #256]	@ (8004204 <HAL_RCC_OscConfig+0x4c4>)
 8004102:	6a1b      	ldr	r3, [r3, #32]
 8004104:	f003 0302 	and.w	r3, r3, #2
 8004108:	2b00      	cmp	r3, #0
 800410a:	d1ee      	bne.n	80040ea <HAL_RCC_OscConfig+0x3aa>
        }
      }
    }

    /* Require to disable power clock if necessary */
    if (pwrclkchanged == SET)
 800410c:	7dfb      	ldrb	r3, [r7, #23]
 800410e:	2b01      	cmp	r3, #1
 8004110:	d105      	bne.n	800411e <HAL_RCC_OscConfig+0x3de>
    {
      __HAL_RCC_PWR_CLK_DISABLE();
 8004112:	4b3c      	ldr	r3, [pc, #240]	@ (8004204 <HAL_RCC_OscConfig+0x4c4>)
 8004114:	69db      	ldr	r3, [r3, #28]
 8004116:	4a3b      	ldr	r2, [pc, #236]	@ (8004204 <HAL_RCC_OscConfig+0x4c4>)
 8004118:	f023 5380 	bic.w	r3, r3, #268435456	@ 0x10000000
 800411c:	61d3      	str	r3, [r2, #28]

#endif /* RCC_CR_PLL2ON */
  /*-------------------------------- PLL Configuration -----------------------*/
  /* Check the parameters */
  assert_param(IS_RCC_PLL(RCC_OscInitStruct->PLL.PLLState));
  if ((RCC_OscInitStruct->PLL.PLLState) != RCC_PLL_NONE)
 800411e:	687b      	ldr	r3, [r7, #4]
 8004120:	69db      	ldr	r3, [r3, #28]
 8004122:	2b00      	cmp	r3, #0
 8004124:	f000 8087 	beq.w	8004236 <HAL_RCC_OscConfig+0x4f6>
  {
    /* Check if the PLL is used as system clock or not */
    if (__HAL_RCC_GET_SYSCLK_SOURCE() != RCC_SYSCLKSOURCE_STATUS_PLLCLK)
 8004128:	4b36      	ldr	r3, [pc, #216]	@ (8004204 <HAL_RCC_OscConfig+0x4c4>)
 800412a:	685b      	ldr	r3, [r3, #4]
 800412c:	f003 030c 	and.w	r3, r3, #12
 8004130:	2b08      	cmp	r3, #8
 8004132:	d061      	beq.n	80041f8 <HAL_RCC_OscConfig+0x4b8>
    {
      if ((RCC_OscInitStruct->PLL.PLLState) == RCC_PLL_ON)
 8004134:	687b      	ldr	r3, [r7, #4]
 8004136:	69db      	ldr	r3, [r3, #28]
 8004138:	2b02      	cmp	r3, #2
 800413a:	d146      	bne.n	80041ca <HAL_RCC_OscConfig+0x48a>
        /* Check the parameters */
        assert_param(IS_RCC_PLLSOURCE(RCC_OscInitStruct->PLL.PLLSource));
        assert_param(IS_RCC_PLL_MUL(RCC_OscInitStruct->PLL.PLLMUL));

        /* Disable the main PLL. */
        __HAL_RCC_PLL_DISABLE();
 800413c:	4b33      	ldr	r3, [pc, #204]	@ (800420c <HAL_RCC_OscConfig+0x4cc>)
 800413e:	2200      	movs	r2, #0
 8004140:	601a      	str	r2, [r3, #0]

        /* Get Start Tick */
        tickstart = HAL_GetTick();
 8004142:	f7fd ff97 	bl	8002074 <HAL_GetTick>
 8004146:	6138      	str	r0, [r7, #16]

        /* Wait till PLL is disabled */
        while (__HAL_RCC_GET_FLAG(RCC_FLAG_PLLRDY)  != RESET)
 8004148:	e008      	b.n	800415c <HAL_RCC_OscConfig+0x41c>
        {
          if ((HAL_GetTick() - tickstart) > PLL_TIMEOUT_VALUE)
 800414a:	f7fd ff93 	bl	8002074 <HAL_GetTick>
 800414e:	4602      	mov	r2, r0
 8004150:	693b      	ldr	r3, [r7, #16]
 8004152:	1ad3      	subs	r3, r2, r3
 8004154:	2b02      	cmp	r3, #2
 8004156:	d901      	bls.n	800415c <HAL_RCC_OscConfig+0x41c>
          {
            return HAL_TIMEOUT;
 8004158:	2303      	movs	r3, #3
 800415a:	e06d      	b.n	8004238 <HAL_RCC_OscConfig+0x4f8>
        while (__HAL_RCC_GET_FLAG(RCC_FLAG_PLLRDY)  != RESET)
 800415c:	4b29      	ldr	r3, [pc, #164]	@ (8004204 <HAL_RCC_OscConfig+0x4c4>)
 800415e:	681b      	ldr	r3, [r3, #0]
 8004160:	f003 7300 	and.w	r3, r3, #33554432	@ 0x2000000
 8004164:	2b00      	cmp	r3, #0
 8004166:	d1f0      	bne.n	800414a <HAL_RCC_OscConfig+0x40a>
          }
        }

        /* Configure the HSE prediv factor --------------------------------*/
        /* It can be written only when the PLL is disabled. Not used in PLL source is different than HSE */
        if (RCC_OscInitStruct->PLL.PLLSource == RCC_PLLSOURCE_HSE)
 8004168:	687b      	ldr	r3, [r7, #4]
 800416a:	6a1b      	ldr	r3, [r3, #32]
 800416c:	f5b3 3f80 	cmp.w	r3, #65536	@ 0x10000
 8004170:	d108      	bne.n	8004184 <HAL_RCC_OscConfig+0x444>
          /* Set PREDIV1 source */
          SET_BIT(RCC->CFGR2, RCC_OscInitStruct->Prediv1Source);
#endif /* RCC_CFGR2_PREDIV1SRC */

          /* Set PREDIV1 Value */
          __HAL_RCC_HSE_PREDIV_CONFIG(RCC_OscInitStruct->HSEPredivValue);
 8004172:	4b24      	ldr	r3, [pc, #144]	@ (8004204 <HAL_RCC_OscConfig+0x4c4>)
 8004174:	685b      	ldr	r3, [r3, #4]
 8004176:	f423 3200 	bic.w	r2, r3, #131072	@ 0x20000
 800417a:	687b      	ldr	r3, [r7, #4]
 800417c:	689b      	ldr	r3, [r3, #8]
 800417e:	4921      	ldr	r1, [pc, #132]	@ (8004204 <HAL_RCC_OscConfig+0x4c4>)
 8004180:	4313      	orrs	r3, r2
 8004182:	604b      	str	r3, [r1, #4]
        }

        /* Configure the main PLL clock source and multiplication factors. */
        __HAL_RCC_PLL_CONFIG(RCC_OscInitStruct->PLL.PLLSource,
 8004184:	4b1f      	ldr	r3, [pc, #124]	@ (8004204 <HAL_RCC_OscConfig+0x4c4>)
 8004186:	685b      	ldr	r3, [r3, #4]
 8004188:	f423 1274 	bic.w	r2, r3, #3997696	@ 0x3d0000
 800418c:	687b      	ldr	r3, [r7, #4]
 800418e:	6a19      	ldr	r1, [r3, #32]
 8004190:	687b      	ldr	r3, [r7, #4]
 8004192:	6a5b      	ldr	r3, [r3, #36]	@ 0x24
 8004194:	430b      	orrs	r3, r1
 8004196:	491b      	ldr	r1, [pc, #108]	@ (8004204 <HAL_RCC_OscConfig+0x4c4>)
 8004198:	4313      	orrs	r3, r2
 800419a:	604b      	str	r3, [r1, #4]
                             RCC_OscInitStruct->PLL.PLLMUL);
        /* Enable the main PLL. */
        __HAL_RCC_PLL_ENABLE();
 800419c:	4b1b      	ldr	r3, [pc, #108]	@ (800420c <HAL_RCC_OscConfig+0x4cc>)
 800419e:	2201      	movs	r2, #1
 80041a0:	601a      	str	r2, [r3, #0]

        /* Get Start Tick */
        tickstart = HAL_GetTick();
 80041a2:	f7fd ff67 	bl	8002074 <HAL_GetTick>
 80041a6:	6138      	str	r0, [r7, #16]

        /* Wait till PLL is ready */
        while (__HAL_RCC_GET_FLAG(RCC_FLAG_PLLRDY)  == RESET)
 80041a8:	e008      	b.n	80041bc <HAL_RCC_OscConfig+0x47c>
        {
          if ((HAL_GetTick() - tickstart) > PLL_TIMEOUT_VALUE)
 80041aa:	f7fd ff63 	bl	8002074 <HAL_GetTick>
 80041ae:	4602      	mov	r2, r0
 80041b0:	693b      	ldr	r3, [r7, #16]
 80041b2:	1ad3      	subs	r3, r2, r3
 80041b4:	2b02      	cmp	r3, #2
 80041b6:	d901      	bls.n	80041bc <HAL_RCC_OscConfig+0x47c>
          {
            return HAL_TIMEOUT;
 80041b8:	2303      	movs	r3, #3
 80041ba:	e03d      	b.n	8004238 <HAL_RCC_OscConfig+0x4f8>
        while (__HAL_RCC_GET_FLAG(RCC_FLAG_PLLRDY)  == RESET)
 80041bc:	4b11      	ldr	r3, [pc, #68]	@ (8004204 <HAL_RCC_OscConfig+0x4c4>)
 80041be:	681b      	ldr	r3, [r3, #0]
 80041c0:	f003 7300 	and.w	r3, r3, #33554432	@ 0x2000000
 80041c4:	2b00      	cmp	r3, #0
 80041c6:	d0f0      	beq.n	80041aa <HAL_RCC_OscConfig+0x46a>
 80041c8:	e035      	b.n	8004236 <HAL_RCC_OscConfig+0x4f6>
        }
      }
      else
      {
        /* Disable the main PLL. */
        __HAL_RCC_PLL_DISABLE();
 80041ca:	4b10      	ldr	r3, [pc, #64]	@ (800420c <HAL_RCC_OscConfig+0x4cc>)
 80041cc:	2200      	movs	r2, #0
 80041ce:	601a      	str	r2, [r3, #0]

        /* Get Start Tick */
        tickstart = HAL_GetTick();
 80041d0:	f7fd ff50 	bl	8002074 <HAL_GetTick>
 80041d4:	6138      	str	r0, [r7, #16]

        /* Wait till PLL is disabled */
        while (__HAL_RCC_GET_FLAG(RCC_FLAG_PLLRDY)  != RESET)
 80041d6:	e008      	b.n	80041ea <HAL_RCC_OscConfig+0x4aa>
        {
          if ((HAL_GetTick() - tickstart) > PLL_TIMEOUT_VALUE)
 80041d8:	f7fd ff4c 	bl	8002074 <HAL_GetTick>
 80041dc:	4602      	mov	r2, r0
 80041de:	693b      	ldr	r3, [r7, #16]
 80041e0:	1ad3      	subs	r3, r2, r3
 80041e2:	2b02      	cmp	r3, #2
 80041e4:	d901      	bls.n	80041ea <HAL_RCC_OscConfig+0x4aa>
          {
            return HAL_TIMEOUT;
 80041e6:	2303      	movs	r3, #3
 80041e8:	e026      	b.n	8004238 <HAL_RCC_OscConfig+0x4f8>
        while (__HAL_RCC_GET_FLAG(RCC_FLAG_PLLRDY)  != RESET)
 80041ea:	4b06      	ldr	r3, [pc, #24]	@ (8004204 <HAL_RCC_OscConfig+0x4c4>)
 80041ec:	681b      	ldr	r3, [r3, #0]
 80041ee:	f003 7300 	and.w	r3, r3, #33554432	@ 0x2000000
 80041f2:	2b00      	cmp	r3, #0
 80041f4:	d1f0      	bne.n	80041d8 <HAL_RCC_OscConfig+0x498>
 80041f6:	e01e      	b.n	8004236 <HAL_RCC_OscConfig+0x4f6>
      }
    }
    else
    {
      /* Check if there is a request to disable the PLL used as System clock source */
      if ((RCC_OscInitStruct->PLL.PLLState) == RCC_PLL_OFF)
 80041f8:	687b      	ldr	r3, [r7, #4]
 80041fa:	69db      	ldr	r3, [r3, #28]
 80041fc:	2b01      	cmp	r3, #1
 80041fe:	d107      	bne.n	8004210 <HAL_RCC_OscConfig+0x4d0>
      {
        return HAL_ERROR;
 8004200:	2301      	movs	r3, #1
 8004202:	e019      	b.n	8004238 <HAL_RCC_OscConfig+0x4f8>
 8004204:	40021000 	.word	0x40021000
 8004208:	40007000 	.word	0x40007000
 800420c:	42420060 	.word	0x42420060
      }
      else
      {
        /* Do not return HAL_ERROR if request repeats the current configuration */
        pll_config = RCC->CFGR;
 8004210:	4b0b      	ldr	r3, [pc, #44]	@ (8004240 <HAL_RCC_OscConfig+0x500>)
 8004212:	685b      	ldr	r3, [r3, #4]
 8004214:	60fb      	str	r3, [r7, #12]
        if ((READ_BIT(pll_config, RCC_CFGR_PLLSRC) != RCC_OscInitStruct->PLL.PLLSource) ||
 8004216:	68fb      	ldr	r3, [r7, #12]
 8004218:	f403 3280 	and.w	r2, r3, #65536	@ 0x10000
 800421c:	687b      	ldr	r3, [r7, #4]
 800421e:	6a1b      	ldr	r3, [r3, #32]
 8004220:	429a      	cmp	r2, r3
 8004222:	d106      	bne.n	8004232 <HAL_RCC_OscConfig+0x4f2>
            (READ_BIT(pll_config, RCC_CFGR_PLLMULL) != RCC_OscInitStruct->PLL.PLLMUL))
 8004224:	68fb      	ldr	r3, [r7, #12]
 8004226:	f403 1270 	and.w	r2, r3, #3932160	@ 0x3c0000
 800422a:	687b      	ldr	r3, [r7, #4]
 800422c:	6a5b      	ldr	r3, [r3, #36]	@ 0x24
        if ((READ_BIT(pll_config, RCC_CFGR_PLLSRC) != RCC_OscInitStruct->PLL.PLLSource) ||
 800422e:	429a      	cmp	r2, r3
 8004230:	d001      	beq.n	8004236 <HAL_RCC_OscConfig+0x4f6>
        {
          return HAL_ERROR;
 8004232:	2301      	movs	r3, #1
 8004234:	e000      	b.n	8004238 <HAL_RCC_OscConfig+0x4f8>
        }
      }
    }
  }

  return HAL_OK;
 8004236:	2300      	movs	r3, #0
}
 8004238:	4618      	mov	r0, r3
 800423a:	3718      	adds	r7, #24
 800423c:	46bd      	mov	sp, r7
 800423e:	bd80      	pop	{r7, pc}
 8004240:	40021000 	.word	0x40021000

08004244 <HAL_RCC_ClockConfig>:
  *         You can use @ref HAL_RCC_GetClockConfig() function to know which clock is
  *         currently used as system clock source.
  * @retval HAL status
  */
HAL_StatusTypeDef HAL_RCC_ClockConfig(RCC_ClkInitTypeDef  *RCC_ClkInitStruct, uint32_t FLatency)
{
 8004244:	b580      	push	{r7, lr}
 8004246:	b084      	sub	sp, #16
 8004248:	af00      	add	r7, sp, #0
 800424a:	6078      	str	r0, [r7, #4]
 800424c:	6039      	str	r1, [r7, #0]
  uint32_t tickstart;

  /* Check Null pointer */
  if (RCC_ClkInitStruct == NULL)
 800424e:	687b      	ldr	r3, [r7, #4]
 8004250:	2b00      	cmp	r3, #0
 8004252:	d101      	bne.n	8004258 <HAL_RCC_ClockConfig+0x14>
  {
    return HAL_ERROR;
 8004254:	2301      	movs	r3, #1
 8004256:	e0d0      	b.n	80043fa <HAL_RCC_ClockConfig+0x1b6>
  must be correctly programmed according to the frequency of the CPU clock
    (HCLK) of the device. */

#if defined(FLASH_ACR_LATENCY)
  /* Increasing the number of wait states because of higher CPU frequency */
  if (FLatency > __HAL_FLASH_GET_LATENCY())
 8004258:	4b6a      	ldr	r3, [pc, #424]	@ (8004404 <HAL_RCC_ClockConfig+0x1c0>)
 800425a:	681b      	ldr	r3, [r3, #0]
 800425c:	f003 0307 	and.w	r3, r3, #7
 8004260:	683a      	ldr	r2, [r7, #0]
 8004262:	429a      	cmp	r2, r3
 8004264:	d910      	bls.n	8004288 <HAL_RCC_ClockConfig+0x44>
  {
    /* Program the new number of wait states to the LATENCY bits in the FLASH_ACR register */
    __HAL_FLASH_SET_LATENCY(FLatency);
 8004266:	4b67      	ldr	r3, [pc, #412]	@ (8004404 <HAL_RCC_ClockConfig+0x1c0>)
 8004268:	681b      	ldr	r3, [r3, #0]
 800426a:	f023 0207 	bic.w	r2, r3, #7
 800426e:	4965      	ldr	r1, [pc, #404]	@ (8004404 <HAL_RCC_ClockConfig+0x1c0>)
 8004270:	683b      	ldr	r3, [r7, #0]
 8004272:	4313      	orrs	r3, r2
 8004274:	600b      	str	r3, [r1, #0]

    /* Check that the new number of wait states is taken into account to access the Flash
    memory by reading the FLASH_ACR register */
    if (__HAL_FLASH_GET_LATENCY() != FLatency)
 8004276:	4b63      	ldr	r3, [pc, #396]	@ (8004404 <HAL_RCC_ClockConfig+0x1c0>)
 8004278:	681b      	ldr	r3, [r3, #0]
 800427a:	f003 0307 	and.w	r3, r3, #7
 800427e:	683a      	ldr	r2, [r7, #0]
 8004280:	429a      	cmp	r2, r3
 8004282:	d001      	beq.n	8004288 <HAL_RCC_ClockConfig+0x44>
  {
    return HAL_ERROR;
 8004284:	2301      	movs	r3, #1
 8004286:	e0b8      	b.n	80043fa <HAL_RCC_ClockConfig+0x1b6>
  }
}

#endif /* FLASH_ACR_LATENCY */
/*-------------------------- HCLK Configuration --------------------------*/
if (((RCC_ClkInitStruct->ClockType) & RCC_CLOCKTYPE_HCLK) == RCC_CLOCKTYPE_HCLK)
 8004288:	687b      	ldr	r3, [r7, #4]
 800428a:	681b      	ldr	r3, [r3, #0]
 800428c:	f003 0302 	and.w	r3, r3, #2
 8004290:	2b00      	cmp	r3, #0
 8004292:	d020      	beq.n	80042d6 <HAL_RCC_ClockConfig+0x92>
  {
    /* Set the highest APBx dividers in order to ensure that we do not go through
    a non-spec phase whatever we decrease or increase HCLK. */
    if (((RCC_ClkInitStruct->ClockType) & RCC_CLOCKTYPE_PCLK1) == RCC_CLOCKTYPE_PCLK1)
 8004294:	687b      	ldr	r3, [r7, #4]
 8004296:	681b      	ldr	r3, [r3, #0]
 8004298:	f003 0304 	and.w	r3, r3, #4
 800429c:	2b00      	cmp	r3, #0
 800429e:	d005      	beq.n	80042ac <HAL_RCC_ClockConfig+0x68>
    {
      MODIFY_REG(RCC->CFGR, RCC_CFGR_PPRE1, RCC_HCLK_DIV16);
 80042a0:	4b59      	ldr	r3, [pc, #356]	@ (8004408 <HAL_RCC_ClockConfig+0x1c4>)
 80042a2:	685b      	ldr	r3, [r3, #4]
 80042a4:	4a58      	ldr	r2, [pc, #352]	@ (8004408 <HAL_RCC_ClockConfig+0x1c4>)
 80042a6:	f443 63e0 	orr.w	r3, r3, #1792	@ 0x700
 80042aa:	6053      	str	r3, [r2, #4]
    }

    if (((RCC_ClkInitStruct->ClockType) & RCC_CLOCKTYPE_PCLK2) == RCC_CLOCKTYPE_PCLK2)
 80042ac:	687b      	ldr	r3, [r7, #4]
 80042ae:	681b      	ldr	r3, [r3, #0]
 80042b0:	f003 0308 	and.w	r3, r3, #8
 80042b4:	2b00      	cmp	r3, #0
 80042b6:	d005      	beq.n	80042c4 <HAL_RCC_ClockConfig+0x80>
    {
      MODIFY_REG(RCC->CFGR, RCC_CFGR_PPRE2, (RCC_HCLK_DIV16 << 3));
 80042b8:	4b53      	ldr	r3, [pc, #332]	@ (8004408 <HAL_RCC_ClockConfig+0x1c4>)
 80042ba:	685b      	ldr	r3, [r3, #4]
 80042bc:	4a52      	ldr	r2, [pc, #328]	@ (8004408 <HAL_RCC_ClockConfig+0x1c4>)
 80042be:	f443 5360 	orr.w	r3, r3, #14336	@ 0x3800
 80042c2:	6053      	str	r3, [r2, #4]
    }

    /* Set the new HCLK clock divider */
    assert_param(IS_RCC_HCLK(RCC_ClkInitStruct->AHBCLKDivider));
    MODIFY_REG(RCC->CFGR, RCC_CFGR_HPRE, RCC_ClkInitStruct->AHBCLKDivider);
 80042c4:	4b50      	ldr	r3, [pc, #320]	@ (8004408 <HAL_RCC_ClockConfig+0x1c4>)
 80042c6:	685b      	ldr	r3, [r3, #4]
 80042c8:	f023 02f0 	bic.w	r2, r3, #240	@ 0xf0
 80042cc:	687b      	ldr	r3, [r7, #4]
 80042ce:	689b      	ldr	r3, [r3, #8]
 80042d0:	494d      	ldr	r1, [pc, #308]	@ (8004408 <HAL_RCC_ClockConfig+0x1c4>)
 80042d2:	4313      	orrs	r3, r2
 80042d4:	604b      	str	r3, [r1, #4]
  }

  /*------------------------- SYSCLK Configuration ---------------------------*/
  if (((RCC_ClkInitStruct->ClockType) & RCC_CLOCKTYPE_SYSCLK) == RCC_CLOCKTYPE_SYSCLK)
 80042d6:	687b      	ldr	r3, [r7, #4]
 80042d8:	681b      	ldr	r3, [r3, #0]
 80042da:	f003 0301 	and.w	r3, r3, #1
 80042de:	2b00      	cmp	r3, #0
 80042e0:	d040      	beq.n	8004364 <HAL_RCC_ClockConfig+0x120>
  {
    assert_param(IS_RCC_SYSCLKSOURCE(RCC_ClkInitStruct->SYSCLKSource));

    /* HSE is selected as System Clock Source */
    if (RCC_ClkInitStruct->SYSCLKSource == RCC_SYSCLKSOURCE_HSE)
 80042e2:	687b      	ldr	r3, [r7, #4]
 80042e4:	685b      	ldr	r3, [r3, #4]
 80042e6:	2b01      	cmp	r3, #1
 80042e8:	d107      	bne.n	80042fa <HAL_RCC_ClockConfig+0xb6>
    {
      /* Check the HSE ready flag */
      if (__HAL_RCC_GET_FLAG(RCC_FLAG_HSERDY) == RESET)
 80042ea:	4b47      	ldr	r3, [pc, #284]	@ (8004408 <HAL_RCC_ClockConfig+0x1c4>)
 80042ec:	681b      	ldr	r3, [r3, #0]
 80042ee:	f403 3300 	and.w	r3, r3, #131072	@ 0x20000
 80042f2:	2b00      	cmp	r3, #0
 80042f4:	d115      	bne.n	8004322 <HAL_RCC_ClockConfig+0xde>
      {
        return HAL_ERROR;
 80042f6:	2301      	movs	r3, #1
 80042f8:	e07f      	b.n	80043fa <HAL_RCC_ClockConfig+0x1b6>
      }
    }
    /* PLL is selected as System Clock Source */
    else if (RCC_ClkInitStruct->SYSCLKSource == RCC_SYSCLKSOURCE_PLLCLK)
 80042fa:	687b      	ldr	r3, [r7, #4]
 80042fc:	685b      	ldr	r3, [r3, #4]
 80042fe:	2b02      	cmp	r3, #2
 8004300:	d107      	bne.n	8004312 <HAL_RCC_ClockConfig+0xce>
    {
      /* Check the PLL ready flag */
      if (__HAL_RCC_GET_FLAG(RCC_FLAG_PLLRDY) == RESET)
 8004302:	4b41      	ldr	r3, [pc, #260]	@ (8004408 <HAL_RCC_ClockConfig+0x1c4>)
 8004304:	681b      	ldr	r3, [r3, #0]
 8004306:	f003 7300 	and.w	r3, r3, #33554432	@ 0x2000000
 800430a:	2b00      	cmp	r3, #0
 800430c:	d109      	bne.n	8004322 <HAL_RCC_ClockConfig+0xde>
      {
        return HAL_ERROR;
 800430e:	2301      	movs	r3, #1
 8004310:	e073      	b.n	80043fa <HAL_RCC_ClockConfig+0x1b6>
    }
    /* HSI is selected as System Clock Source */
    else
    {
      /* Check the HSI ready flag */
      if (__HAL_RCC_GET_FLAG(RCC_FLAG_HSIRDY) == RESET)
 8004312:	4b3d      	ldr	r3, [pc, #244]	@ (8004408 <HAL_RCC_ClockConfig+0x1c4>)
 8004314:	681b      	ldr	r3, [r3, #0]
 8004316:	f003 0302 	and.w	r3, r3, #2
 800431a:	2b00      	cmp	r3, #0
 800431c:	d101      	bne.n	8004322 <HAL_RCC_ClockConfig+0xde>
      {
        return HAL_ERROR;
 800431e:	2301      	movs	r3, #1
 8004320:	e06b      	b.n	80043fa <HAL_RCC_ClockConfig+0x1b6>
      }
    }
    __HAL_RCC_SYSCLK_CONFIG(RCC_ClkInitStruct->SYSCLKSource);
 8004322:	4b39      	ldr	r3, [pc, #228]	@ (8004408 <HAL_RCC_ClockConfig+0x1c4>)
 8004324:	685b      	ldr	r3, [r3, #4]
 8004326:	f023 0203 	bic.w	r2, r3, #3
 800432a:	687b      	ldr	r3, [r7, #4]
 800432c:	685b      	ldr	r3, [r3, #4]
 800432e:	4936      	ldr	r1, [pc, #216]	@ (8004408 <HAL_RCC_ClockConfig+0x1c4>)
 8004330:	4313      	orrs	r3, r2
 8004332:	604b      	str	r3, [r1, #4]

    /* Get Start Tick */
    tickstart = HAL_GetTick();
 8004334:	f7fd fe9e 	bl	8002074 <HAL_GetTick>
 8004338:	60f8      	str	r0, [r7, #12]

    while (__HAL_RCC_GET_SYSCLK_SOURCE() != (RCC_ClkInitStruct->SYSCLKSource << RCC_CFGR_SWS_Pos))
 800433a:	e00a      	b.n	8004352 <HAL_RCC_ClockConfig+0x10e>
    {
      if ((HAL_GetTick() - tickstart) > CLOCKSWITCH_TIMEOUT_VALUE)
 800433c:	f7fd fe9a 	bl	8002074 <HAL_GetTick>
 8004340:	4602      	mov	r2, r0
 8004342:	68fb      	ldr	r3, [r7, #12]
 8004344:	1ad3      	subs	r3, r2, r3
 8004346:	f241 3288 	movw	r2, #5000	@ 0x1388
 800434a:	4293      	cmp	r3, r2
 800434c:	d901      	bls.n	8004352 <HAL_RCC_ClockConfig+0x10e>
      {
        return HAL_TIMEOUT;
 800434e:	2303      	movs	r3, #3
 8004350:	e053      	b.n	80043fa <HAL_RCC_ClockConfig+0x1b6>
    while (__HAL_RCC_GET_SYSCLK_SOURCE() != (RCC_ClkInitStruct->SYSCLKSource << RCC_CFGR_SWS_Pos))
 8004352:	4b2d      	ldr	r3, [pc, #180]	@ (8004408 <HAL_RCC_ClockConfig+0x1c4>)
 8004354:	685b      	ldr	r3, [r3, #4]
 8004356:	f003 020c 	and.w	r2, r3, #12
 800435a:	687b      	ldr	r3, [r7, #4]
 800435c:	685b      	ldr	r3, [r3, #4]
 800435e:	009b      	lsls	r3, r3, #2
 8004360:	429a      	cmp	r2, r3
 8004362:	d1eb      	bne.n	800433c <HAL_RCC_ClockConfig+0xf8>
    }
  }

#if defined(FLASH_ACR_LATENCY)
  /* Decreasing the number of wait states because of lower CPU frequency */
  if (FLatency < __HAL_FLASH_GET_LATENCY())
 8004364:	4b27      	ldr	r3, [pc, #156]	@ (8004404 <HAL_RCC_ClockConfig+0x1c0>)
 8004366:	681b      	ldr	r3, [r3, #0]
 8004368:	f003 0307 	and.w	r3, r3, #7
 800436c:	683a      	ldr	r2, [r7, #0]
 800436e:	429a      	cmp	r2, r3
 8004370:	d210      	bcs.n	8004394 <HAL_RCC_ClockConfig+0x150>
  {
    /* Program the new number of wait states to the LATENCY bits in the FLASH_ACR register */
    __HAL_FLASH_SET_LATENCY(FLatency);
 8004372:	4b24      	ldr	r3, [pc, #144]	@ (8004404 <HAL_RCC_ClockConfig+0x1c0>)
 8004374:	681b      	ldr	r3, [r3, #0]
 8004376:	f023 0207 	bic.w	r2, r3, #7
 800437a:	4922      	ldr	r1, [pc, #136]	@ (8004404 <HAL_RCC_ClockConfig+0x1c0>)
 800437c:	683b      	ldr	r3, [r7, #0]
 800437e:	4313      	orrs	r3, r2
 8004380:	600b      	str	r3, [r1, #0]

    /* Check that the new number of wait states is taken into account to access the Flash
    memory by reading the FLASH_ACR register */
    if (__HAL_FLASH_GET_LATENCY() != FLatency)
 8004382:	4b20      	ldr	r3, [pc, #128]	@ (8004404 <HAL_RCC_ClockConfig+0x1c0>)
 8004384:	681b      	ldr	r3, [r3, #0]
 8004386:	f003 0307 	and.w	r3, r3, #7
 800438a:	683a      	ldr	r2, [r7, #0]
 800438c:	429a      	cmp	r2, r3
 800438e:	d001      	beq.n	8004394 <HAL_RCC_ClockConfig+0x150>
  {
    return HAL_ERROR;
 8004390:	2301      	movs	r3, #1
 8004392:	e032      	b.n	80043fa <HAL_RCC_ClockConfig+0x1b6>
  }
}
#endif /* FLASH_ACR_LATENCY */

/*-------------------------- PCLK1 Configuration ---------------------------*/
if (((RCC_ClkInitStruct->ClockType) & RCC_CLOCKTYPE_PCLK1) == RCC_CLOCKTYPE_PCLK1)
 8004394:	687b      	ldr	r3, [r7, #4]
 8004396:	681b      	ldr	r3, [r3, #0]
 8004398:	f003 0304 	and.w	r3, r3, #4
 800439c:	2b00      	cmp	r3, #0
 800439e:	d008      	beq.n	80043b2 <HAL_RCC_ClockConfig+0x16e>
  {
    assert_param(IS_RCC_PCLK(RCC_ClkInitStruct->APB1CLKDivider));
    MODIFY_REG(RCC->CFGR, RCC_CFGR_PPRE1, RCC_ClkInitStruct->APB1CLKDivider);
 80043a0:	4b19      	ldr	r3, [pc, #100]	@ (8004408 <HAL_RCC_ClockConfig+0x1c4>)
 80043a2:	685b      	ldr	r3, [r3, #4]
 80043a4:	f423 62e0 	bic.w	r2, r3, #1792	@ 0x700
 80043a8:	687b      	ldr	r3, [r7, #4]
 80043aa:	68db      	ldr	r3, [r3, #12]
 80043ac:	4916      	ldr	r1, [pc, #88]	@ (8004408 <HAL_RCC_ClockConfig+0x1c4>)
 80043ae:	4313      	orrs	r3, r2
 80043b0:	604b      	str	r3, [r1, #4]
  }

  /*-------------------------- PCLK2 Configuration ---------------------------*/
  if (((RCC_ClkInitStruct->ClockType) & RCC_CLOCKTYPE_PCLK2) == RCC_CLOCKTYPE_PCLK2)
 80043b2:	687b      	ldr	r3, [r7, #4]
 80043b4:	681b      	ldr	r3, [r3, #0]
 80043b6:	f003 0308 	and.w	r3, r3, #8
 80043ba:	2b00      	cmp	r3, #0
 80043bc:	d009      	beq.n	80043d2 <HAL_RCC_ClockConfig+0x18e>
  {
    assert_param(IS_RCC_PCLK(RCC_ClkInitStruct->APB2CLKDivider));
    MODIFY_REG(RCC->CFGR, RCC_CFGR_PPRE2, ((RCC_ClkInitStruct->APB2CLKDivider) << 3));
 80043be:	4b12      	ldr	r3, [pc, #72]	@ (8004408 <HAL_RCC_ClockConfig+0x1c4>)
 80043c0:	685b      	ldr	r3, [r3, #4]
 80043c2:	f423 5260 	bic.w	r2, r3, #14336	@ 0x3800
 80043c6:	687b      	ldr	r3, [r7, #4]
 80043c8:	691b      	ldr	r3, [r3, #16]
 80043ca:	00db      	lsls	r3, r3, #3
 80043cc:	490e      	ldr	r1, [pc, #56]	@ (8004408 <HAL_RCC_ClockConfig+0x1c4>)
 80043ce:	4313      	orrs	r3, r2
 80043d0:	604b      	str	r3, [r1, #4]
  }

  /* Update the SystemCoreClock global variable */
  SystemCoreClock = HAL_RCC_GetSysClockFreq() >> AHBPrescTable[(RCC->CFGR & RCC_CFGR_HPRE) >> RCC_CFGR_HPRE_Pos];
 80043d2:	f000 f821 	bl	8004418 <HAL_RCC_GetSysClockFreq>
 80043d6:	4602      	mov	r2, r0
 80043d8:	4b0b      	ldr	r3, [pc, #44]	@ (8004408 <HAL_RCC_ClockConfig+0x1c4>)
 80043da:	685b      	ldr	r3, [r3, #4]
 80043dc:	091b      	lsrs	r3, r3, #4
 80043de:	f003 030f 	and.w	r3, r3, #15
 80043e2:	490a      	ldr	r1, [pc, #40]	@ (800440c <HAL_RCC_ClockConfig+0x1c8>)
 80043e4:	5ccb      	ldrb	r3, [r1, r3]
 80043e6:	fa22 f303 	lsr.w	r3, r2, r3
 80043ea:	4a09      	ldr	r2, [pc, #36]	@ (8004410 <HAL_RCC_ClockConfig+0x1cc>)
 80043ec:	6013      	str	r3, [r2, #0]

  /* Configure the source of time base considering new system clocks settings*/
  HAL_InitTick(uwTickPrio);
 80043ee:	4b09      	ldr	r3, [pc, #36]	@ (8004414 <HAL_RCC_ClockConfig+0x1d0>)
 80043f0:	681b      	ldr	r3, [r3, #0]
 80043f2:	4618      	mov	r0, r3
 80043f4:	f7fd fd48 	bl	8001e88 <HAL_InitTick>

  return HAL_OK;
 80043f8:	2300      	movs	r3, #0
}
 80043fa:	4618      	mov	r0, r3
 80043fc:	3710      	adds	r7, #16
 80043fe:	46bd      	mov	sp, r7
 8004400:	bd80      	pop	{r7, pc}
 8004402:	bf00      	nop
 8004404:	40022000 	.word	0x40022000
 8004408:	40021000 	.word	0x40021000
 800440c:	0800722c 	.word	0x0800722c
 8004410:	20000008 	.word	0x20000008
 8004414:	2000000c 	.word	0x2000000c

08004418 <HAL_RCC_GetSysClockFreq>:
  *         right SYSCLK value. Otherwise, any configuration based on this function will be incorrect.
  *
  * @retval SYSCLK frequency
  */
uint32_t HAL_RCC_GetSysClockFreq(void)
{
 8004418:	b480      	push	{r7}
 800441a:	b087      	sub	sp, #28
 800441c:	af00      	add	r7, sp, #0
#else
  static const uint8_t aPredivFactorTable[2U] = {1, 2};
#endif /*RCC_CFGR2_PREDIV1*/

#endif
  uint32_t tmpreg = 0U, prediv = 0U, pllclk = 0U, pllmul = 0U;
 800441e:	2300      	movs	r3, #0
 8004420:	60fb      	str	r3, [r7, #12]
 8004422:	2300      	movs	r3, #0
 8004424:	60bb      	str	r3, [r7, #8]
 8004426:	2300      	movs	r3, #0
 8004428:	617b      	str	r3, [r7, #20]
 800442a:	2300      	movs	r3, #0
 800442c:	607b      	str	r3, [r7, #4]
  uint32_t sysclockfreq = 0U;
 800442e:	2300      	movs	r3, #0
 8004430:	613b      	str	r3, [r7, #16]
#if defined(RCC_CFGR2_PREDIV1SRC)
  uint32_t prediv2 = 0U, pll2mul = 0U;
#endif /*RCC_CFGR2_PREDIV1SRC*/

  tmpreg = RCC->CFGR;
 8004432:	4b1e      	ldr	r3, [pc, #120]	@ (80044ac <HAL_RCC_GetSysClockFreq+0x94>)
 8004434:	685b      	ldr	r3, [r3, #4]
 8004436:	60fb      	str	r3, [r7, #12]

  /* Get SYSCLK source -------------------------------------------------------*/
  switch (tmpreg & RCC_CFGR_SWS)
 8004438:	68fb      	ldr	r3, [r7, #12]
 800443a:	f003 030c 	and.w	r3, r3, #12
 800443e:	2b04      	cmp	r3, #4
 8004440:	d002      	beq.n	8004448 <HAL_RCC_GetSysClockFreq+0x30>
 8004442:	2b08      	cmp	r3, #8
 8004444:	d003      	beq.n	800444e <HAL_RCC_GetSysClockFreq+0x36>
 8004446:	e027      	b.n	8004498 <HAL_RCC_GetSysClockFreq+0x80>
  {
    case RCC_SYSCLKSOURCE_STATUS_HSE:  /* HSE used as system clock */
    {
      sysclockfreq = HSE_VALUE;
 8004448:	4b19      	ldr	r3, [pc, #100]	@ (80044b0 <HAL_RCC_GetSysClockFreq+0x98>)
 800444a:	613b      	str	r3, [r7, #16]
      break;
 800444c:	e027      	b.n	800449e <HAL_RCC_GetSysClockFreq+0x86>
    }
    case RCC_SYSCLKSOURCE_STATUS_PLLCLK:  /* PLL used as system clock */
    {
      pllmul = aPLLMULFactorTable[(uint32_t)(tmpreg & RCC_CFGR_PLLMULL) >> RCC_CFGR_PLLMULL_Pos];
 800444e:	68fb      	ldr	r3, [r7, #12]
 8004450:	0c9b      	lsrs	r3, r3, #18
 8004452:	f003 030f 	and.w	r3, r3, #15
 8004456:	4a17      	ldr	r2, [pc, #92]	@ (80044b4 <HAL_RCC_GetSysClockFreq+0x9c>)
 8004458:	5cd3      	ldrb	r3, [r2, r3]
 800445a:	607b      	str	r3, [r7, #4]
      if ((tmpreg & RCC_CFGR_PLLSRC) != RCC_PLLSOURCE_HSI_DIV2)
 800445c:	68fb      	ldr	r3, [r7, #12]
 800445e:	f403 3380 	and.w	r3, r3, #65536	@ 0x10000
 8004462:	2b00      	cmp	r3, #0
 8004464:	d010      	beq.n	8004488 <HAL_RCC_GetSysClockFreq+0x70>
      {
#if defined(RCC_CFGR2_PREDIV1)
        prediv = aPredivFactorTable[(uint32_t)(RCC->CFGR2 & RCC_CFGR2_PREDIV1) >> RCC_CFGR2_PREDIV1_Pos];
#else
        prediv = aPredivFactorTable[(uint32_t)(RCC->CFGR & RCC_CFGR_PLLXTPRE) >> RCC_CFGR_PLLXTPRE_Pos];
 8004466:	4b11      	ldr	r3, [pc, #68]	@ (80044ac <HAL_RCC_GetSysClockFreq+0x94>)
 8004468:	685b      	ldr	r3, [r3, #4]
 800446a:	0c5b      	lsrs	r3, r3, #17
 800446c:	f003 0301 	and.w	r3, r3, #1
 8004470:	4a11      	ldr	r2, [pc, #68]	@ (80044b8 <HAL_RCC_GetSysClockFreq+0xa0>)
 8004472:	5cd3      	ldrb	r3, [r2, r3]
 8004474:	60bb      	str	r3, [r7, #8]
        {
          pllclk = pllclk / 2;
        }
#else
        /* HSE used as PLL clock source : PLLCLK = HSE/PREDIV1 * PLLMUL */
        pllclk = (uint32_t)((HSE_VALUE  * pllmul) / prediv);
 8004476:	687b      	ldr	r3, [r7, #4]
 8004478:	4a0d      	ldr	r2, [pc, #52]	@ (80044b0 <HAL_RCC_GetSysClockFreq+0x98>)
 800447a:	fb03 f202 	mul.w	r2, r3, r2
 800447e:	68bb      	ldr	r3, [r7, #8]
 8004480:	fbb2 f3f3 	udiv	r3, r2, r3
 8004484:	617b      	str	r3, [r7, #20]
 8004486:	e004      	b.n	8004492 <HAL_RCC_GetSysClockFreq+0x7a>
#endif /*RCC_CFGR2_PREDIV1SRC*/
      }
      else
      {
        /* HSI used as PLL clock source : PLLCLK = HSI/2 * PLLMUL */
        pllclk = (uint32_t)((HSI_VALUE >> 1) * pllmul);
 8004488:	687b      	ldr	r3, [r7, #4]
 800448a:	4a0c      	ldr	r2, [pc, #48]	@ (80044bc <HAL_RCC_GetSysClockFreq+0xa4>)
 800448c:	fb02 f303 	mul.w	r3, r2, r3
 8004490:	617b      	str	r3, [r7, #20]
      }
      sysclockfreq = pllclk;
 8004492:	697b      	ldr	r3, [r7, #20]
 8004494:	613b      	str	r3, [r7, #16]
      break;
 8004496:	e002      	b.n	800449e <HAL_RCC_GetSysClockFreq+0x86>
    }
    case RCC_SYSCLKSOURCE_STATUS_HSI:  /* HSI used as system clock source */
    default: /* HSI used as system clock */
    {
      sysclockfreq = HSI_VALUE;
 8004498:	4b05      	ldr	r3, [pc, #20]	@ (80044b0 <HAL_RCC_GetSysClockFreq+0x98>)
 800449a:	613b      	str	r3, [r7, #16]
      break;
 800449c:	bf00      	nop
    }
  }
  return sysclockfreq;
 800449e:	693b      	ldr	r3, [r7, #16]
}
 80044a0:	4618      	mov	r0, r3
 80044a2:	371c      	adds	r7, #28
 80044a4:	46bd      	mov	sp, r7
 80044a6:	bc80      	pop	{r7}
 80044a8:	4770      	bx	lr
 80044aa:	bf00      	nop
 80044ac:	40021000 	.word	0x40021000
 80044b0:	007a1200 	.word	0x007a1200
 80044b4:	08007244 	.word	0x08007244
 80044b8:	08007254 	.word	0x08007254
 80044bc:	003d0900 	.word	0x003d0900

080044c0 <HAL_RCC_GetHCLKFreq>:
  * @note   The SystemCoreClock CMSIS variable is used to store System Clock Frequency
  *         and updated within this function
  * @retval HCLK frequency
  */
uint32_t HAL_RCC_GetHCLKFreq(void)
{
 80044c0:	b480      	push	{r7}
 80044c2:	af00      	add	r7, sp, #0
  return SystemCoreClock;
 80044c4:	4b02      	ldr	r3, [pc, #8]	@ (80044d0 <HAL_RCC_GetHCLKFreq+0x10>)
 80044c6:	681b      	ldr	r3, [r3, #0]
}
 80044c8:	4618      	mov	r0, r3
 80044ca:	46bd      	mov	sp, r7
 80044cc:	bc80      	pop	{r7}
 80044ce:	4770      	bx	lr
 80044d0:	20000008 	.word	0x20000008

080044d4 <HAL_RCC_GetPCLK1Freq>:
  * @note   Each time PCLK1 changes, this function must be called to update the
  *         right PCLK1 value. Otherwise, any configuration based on this function will be incorrect.
  * @retval PCLK1 frequency
  */
uint32_t HAL_RCC_GetPCLK1Freq(void)
{
 80044d4:	b580      	push	{r7, lr}
 80044d6:	af00      	add	r7, sp, #0
  /* Get HCLK source and Compute PCLK1 frequency ---------------------------*/
  return (HAL_RCC_GetHCLKFreq() >> APBPrescTable[(RCC->CFGR & RCC_CFGR_PPRE1) >> RCC_CFGR_PPRE1_Pos]);
 80044d8:	f7ff fff2 	bl	80044c0 <HAL_RCC_GetHCLKFreq>
 80044dc:	4602      	mov	r2, r0
 80044de:	4b05      	ldr	r3, [pc, #20]	@ (80044f4 <HAL_RCC_GetPCLK1Freq+0x20>)
 80044e0:	685b      	ldr	r3, [r3, #4]
 80044e2:	0a1b      	lsrs	r3, r3, #8
 80044e4:	f003 0307 	and.w	r3, r3, #7
 80044e8:	4903      	ldr	r1, [pc, #12]	@ (80044f8 <HAL_RCC_GetPCLK1Freq+0x24>)
 80044ea:	5ccb      	ldrb	r3, [r1, r3]
 80044ec:	fa22 f303 	lsr.w	r3, r2, r3
}
 80044f0:	4618      	mov	r0, r3
 80044f2:	bd80      	pop	{r7, pc}
 80044f4:	40021000 	.word	0x40021000
 80044f8:	0800723c 	.word	0x0800723c

080044fc <HAL_RCC_GetPCLK2Freq>:
  * @note   Each time PCLK2 changes, this function must be called to update the
  *         right PCLK2 value. Otherwise, any configuration based on this function will be incorrect.
  * @retval PCLK2 frequency
  */
uint32_t HAL_RCC_GetPCLK2Freq(void)
{
 80044fc:	b580      	push	{r7, lr}
 80044fe:	af00      	add	r7, sp, #0
  /* Get HCLK source and Compute PCLK2 frequency ---------------------------*/
  return (HAL_RCC_GetHCLKFreq() >> APBPrescTable[(RCC->CFGR & RCC_CFGR_PPRE2) >> RCC_CFGR_PPRE2_Pos]);
 8004500:	f7ff ffde 	bl	80044c0 <HAL_RCC_GetHCLKFreq>
 8004504:	4602      	mov	r2, r0
 8004506:	4b05      	ldr	r3, [pc, #20]	@ (800451c <HAL_RCC_GetPCLK2Freq+0x20>)
 8004508:	685b      	ldr	r3, [r3, #4]
 800450a:	0adb      	lsrs	r3, r3, #11
 800450c:	f003 0307 	and.w	r3, r3, #7
 8004510:	4903      	ldr	r1, [pc, #12]	@ (8004520 <HAL_RCC_GetPCLK2Freq+0x24>)
 8004512:	5ccb      	ldrb	r3, [r1, r3]
 8004514:	fa22 f303 	lsr.w	r3, r2, r3
}
 8004518:	4618      	mov	r0, r3
 800451a:	bd80      	pop	{r7, pc}
 800451c:	40021000 	.word	0x40021000
 8004520:	0800723c 	.word	0x0800723c

08004524 <HAL_RCC_GetClockConfig>:
  * contains the current clock configuration.
  * @param  pFLatency Pointer on the Flash Latency.
  * @retval None
  */
void HAL_RCC_GetClockConfig(RCC_ClkInitTypeDef  *RCC_ClkInitStruct, uint32_t *pFLatency)
{
 8004524:	b480      	push	{r7}
 8004526:	b083      	sub	sp, #12
 8004528:	af00      	add	r7, sp, #0
 800452a:	6078      	str	r0, [r7, #4]
 800452c:	6039      	str	r1, [r7, #0]
  /* Check the parameters */
  assert_param(RCC_ClkInitStruct != NULL);
  assert_param(pFLatency != NULL);

  /* Set all possible values for the Clock type parameter --------------------*/
  RCC_ClkInitStruct->ClockType = RCC_CLOCKTYPE_SYSCLK | RCC_CLOCKTYPE_HCLK | RCC_CLOCKTYPE_PCLK1 | RCC_CLOCKTYPE_PCLK2;
 800452e:	687b      	ldr	r3, [r7, #4]
 8004530:	220f      	movs	r2, #15
 8004532:	601a      	str	r2, [r3, #0]

  /* Get the SYSCLK configuration --------------------------------------------*/
  RCC_ClkInitStruct->SYSCLKSource = (uint32_t)(RCC->CFGR & RCC_CFGR_SW);
 8004534:	4b11      	ldr	r3, [pc, #68]	@ (800457c <HAL_RCC_GetClockConfig+0x58>)
 8004536:	685b      	ldr	r3, [r3, #4]
 8004538:	f003 0203 	and.w	r2, r3, #3
 800453c:	687b      	ldr	r3, [r7, #4]
 800453e:	605a      	str	r2, [r3, #4]

  /* Get the HCLK configuration ----------------------------------------------*/
  RCC_ClkInitStruct->AHBCLKDivider = (uint32_t)(RCC->CFGR & RCC_CFGR_HPRE);
 8004540:	4b0e      	ldr	r3, [pc, #56]	@ (800457c <HAL_RCC_GetClockConfig+0x58>)
 8004542:	685b      	ldr	r3, [r3, #4]
 8004544:	f003 02f0 	and.w	r2, r3, #240	@ 0xf0
 8004548:	687b      	ldr	r3, [r7, #4]
 800454a:	609a      	str	r2, [r3, #8]

  /* Get the APB1 configuration ----------------------------------------------*/
  RCC_ClkInitStruct->APB1CLKDivider = (uint32_t)(RCC->CFGR & RCC_CFGR_PPRE1);
 800454c:	4b0b      	ldr	r3, [pc, #44]	@ (800457c <HAL_RCC_GetClockConfig+0x58>)
 800454e:	685b      	ldr	r3, [r3, #4]
 8004550:	f403 62e0 	and.w	r2, r3, #1792	@ 0x700
 8004554:	687b      	ldr	r3, [r7, #4]
 8004556:	60da      	str	r2, [r3, #12]

  /* Get the APB2 configuration ----------------------------------------------*/
  RCC_ClkInitStruct->APB2CLKDivider = (uint32_t)((RCC->CFGR & RCC_CFGR_PPRE2) >> 3);
 8004558:	4b08      	ldr	r3, [pc, #32]	@ (800457c <HAL_RCC_GetClockConfig+0x58>)
 800455a:	685b      	ldr	r3, [r3, #4]
 800455c:	08db      	lsrs	r3, r3, #3
 800455e:	f403 62e0 	and.w	r2, r3, #1792	@ 0x700
 8004562:	687b      	ldr	r3, [r7, #4]
 8004564:	611a      	str	r2, [r3, #16]

#if   defined(FLASH_ACR_LATENCY)
  /* Get the Flash Wait State (Latency) configuration ------------------------*/
  *pFLatency = (uint32_t)(FLASH->ACR & FLASH_ACR_LATENCY);
 8004566:	4b06      	ldr	r3, [pc, #24]	@ (8004580 <HAL_RCC_GetClockConfig+0x5c>)
 8004568:	681b      	ldr	r3, [r3, #0]
 800456a:	f003 0207 	and.w	r2, r3, #7
 800456e:	683b      	ldr	r3, [r7, #0]
 8004570:	601a      	str	r2, [r3, #0]
#else
  /* For VALUE lines devices, only LATENCY_0 can be set*/
  *pFLatency = (uint32_t)FLASH_LATENCY_0;
#endif
}
 8004572:	bf00      	nop
 8004574:	370c      	adds	r7, #12
 8004576:	46bd      	mov	sp, r7
 8004578:	bc80      	pop	{r7}
 800457a:	4770      	bx	lr
 800457c:	40021000 	.word	0x40021000
 8004580:	40022000 	.word	0x40022000

08004584 <RCC_Delay>:
  * @brief  This function provides delay (in milliseconds) based on CPU cycles method.
  * @param  mdelay: specifies the delay time length, in milliseconds.
  * @retval None
  */
static void RCC_Delay(uint32_t mdelay)
{
 8004584:	b480      	push	{r7}
 8004586:	b085      	sub	sp, #20
 8004588:	af00      	add	r7, sp, #0
 800458a:	6078      	str	r0, [r7, #4]
  __IO uint32_t Delay = mdelay * (SystemCoreClock / 8U / 1000U);
 800458c:	4b0a      	ldr	r3, [pc, #40]	@ (80045b8 <RCC_Delay+0x34>)
 800458e:	681b      	ldr	r3, [r3, #0]
 8004590:	4a0a      	ldr	r2, [pc, #40]	@ (80045bc <RCC_Delay+0x38>)
 8004592:	fba2 2303 	umull	r2, r3, r2, r3
 8004596:	0a5b      	lsrs	r3, r3, #9
 8004598:	687a      	ldr	r2, [r7, #4]
 800459a:	fb02 f303 	mul.w	r3, r2, r3
 800459e:	60fb      	str	r3, [r7, #12]
  do
  {
    __NOP();
 80045a0:	bf00      	nop
  }
  while (Delay --);
 80045a2:	68fb      	ldr	r3, [r7, #12]
 80045a4:	1e5a      	subs	r2, r3, #1
 80045a6:	60fa      	str	r2, [r7, #12]
 80045a8:	2b00      	cmp	r3, #0
 80045aa:	d1f9      	bne.n	80045a0 <RCC_Delay+0x1c>
}
 80045ac:	bf00      	nop
 80045ae:	bf00      	nop
 80045b0:	3714      	adds	r7, #20
 80045b2:	46bd      	mov	sp, r7
 80045b4:	bc80      	pop	{r7}
 80045b6:	4770      	bx	lr
 80045b8:	20000008 	.word	0x20000008
 80045bc:	10624dd3 	.word	0x10624dd3

080045c0 <HAL_RCCEx_PeriphCLKConfig>:
  *         manually disable it.
  *
  * @retval HAL status
  */
HAL_StatusTypeDef HAL_RCCEx_PeriphCLKConfig(RCC_PeriphCLKInitTypeDef  *PeriphClkInit)
{
 80045c0:	b580      	push	{r7, lr}
 80045c2:	b086      	sub	sp, #24
 80045c4:	af00      	add	r7, sp, #0
 80045c6:	6078      	str	r0, [r7, #4]
  uint32_t tickstart = 0U, temp_reg = 0U;
 80045c8:	2300      	movs	r3, #0
 80045ca:	613b      	str	r3, [r7, #16]
 80045cc:	2300      	movs	r3, #0
 80045ce:	60fb      	str	r3, [r7, #12]

  /* Check the parameters */
  assert_param(IS_RCC_PERIPHCLOCK(PeriphClkInit->PeriphClockSelection));

  /*------------------------------- RTC/LCD Configuration ------------------------*/
  if ((((PeriphClkInit->PeriphClockSelection) & RCC_PERIPHCLK_RTC) == RCC_PERIPHCLK_RTC))
 80045d0:	687b      	ldr	r3, [r7, #4]
 80045d2:	681b      	ldr	r3, [r3, #0]
 80045d4:	f003 0301 	and.w	r3, r3, #1
 80045d8:	2b00      	cmp	r3, #0
 80045da:	d07d      	beq.n	80046d8 <HAL_RCCEx_PeriphCLKConfig+0x118>
  {
    FlagStatus pwrclkchanged = RESET;
 80045dc:	2300      	movs	r3, #0
 80045de:	75fb      	strb	r3, [r7, #23]
    assert_param(IS_RCC_RTCCLKSOURCE(PeriphClkInit->RTCClockSelection));

    /* As soon as function is called to change RTC clock source, activation of the
       power domain is done. */
    /* Requires to enable write access to Backup Domain of necessary */
    if (__HAL_RCC_PWR_IS_CLK_DISABLED())
 80045e0:	4b4f      	ldr	r3, [pc, #316]	@ (8004720 <HAL_RCCEx_PeriphCLKConfig+0x160>)
 80045e2:	69db      	ldr	r3, [r3, #28]
 80045e4:	f003 5380 	and.w	r3, r3, #268435456	@ 0x10000000
 80045e8:	2b00      	cmp	r3, #0
 80045ea:	d10d      	bne.n	8004608 <HAL_RCCEx_PeriphCLKConfig+0x48>
    {
      __HAL_RCC_PWR_CLK_ENABLE();
 80045ec:	4b4c      	ldr	r3, [pc, #304]	@ (8004720 <HAL_RCCEx_PeriphCLKConfig+0x160>)
 80045ee:	69db      	ldr	r3, [r3, #28]
 80045f0:	4a4b      	ldr	r2, [pc, #300]	@ (8004720 <HAL_RCCEx_PeriphCLKConfig+0x160>)
 80045f2:	f043 5380 	orr.w	r3, r3, #268435456	@ 0x10000000
 80045f6:	61d3      	str	r3, [r2, #28]
 80045f8:	4b49      	ldr	r3, [pc, #292]	@ (8004720 <HAL_RCCEx_PeriphCLKConfig+0x160>)
 80045fa:	69db      	ldr	r3, [r3, #28]
 80045fc:	f003 5380 	and.w	r3, r3, #268435456	@ 0x10000000
 8004600:	60bb      	str	r3, [r7, #8]
 8004602:	68bb      	ldr	r3, [r7, #8]
      pwrclkchanged = SET;
 8004604:	2301      	movs	r3, #1
 8004606:	75fb      	strb	r3, [r7, #23]
    }

    if (HAL_IS_BIT_CLR(PWR->CR, PWR_CR_DBP))
 8004608:	4b46      	ldr	r3, [pc, #280]	@ (8004724 <HAL_RCCEx_PeriphCLKConfig+0x164>)
 800460a:	681b      	ldr	r3, [r3, #0]
 800460c:	f403 7380 	and.w	r3, r3, #256	@ 0x100
 8004610:	2b00      	cmp	r3, #0
 8004612:	d118      	bne.n	8004646 <HAL_RCCEx_PeriphCLKConfig+0x86>
    {
      /* Enable write access to Backup domain */
      SET_BIT(PWR->CR, PWR_CR_DBP);
 8004614:	4b43      	ldr	r3, [pc, #268]	@ (8004724 <HAL_RCCEx_PeriphCLKConfig+0x164>)
 8004616:	681b      	ldr	r3, [r3, #0]
 8004618:	4a42      	ldr	r2, [pc, #264]	@ (8004724 <HAL_RCCEx_PeriphCLKConfig+0x164>)
 800461a:	f443 7380 	orr.w	r3, r3, #256	@ 0x100
 800461e:	6013      	str	r3, [r2, #0]

      /* Wait for Backup domain Write protection disable */
      tickstart = HAL_GetTick();
 8004620:	f7fd fd28 	bl	8002074 <HAL_GetTick>
 8004624:	6138      	str	r0, [r7, #16]

      while (HAL_IS_BIT_CLR(PWR->CR, PWR_CR_DBP))
 8004626:	e008      	b.n	800463a <HAL_RCCEx_PeriphCLKConfig+0x7a>
      {
        if ((HAL_GetTick() - tickstart) > RCC_DBP_TIMEOUT_VALUE)
 8004628:	f7fd fd24 	bl	8002074 <HAL_GetTick>
 800462c:	4602      	mov	r2, r0
 800462e:	693b      	ldr	r3, [r7, #16]
 8004630:	1ad3      	subs	r3, r2, r3
 8004632:	2b64      	cmp	r3, #100	@ 0x64
 8004634:	d901      	bls.n	800463a <HAL_RCCEx_PeriphCLKConfig+0x7a>
        {
          return HAL_TIMEOUT;
 8004636:	2303      	movs	r3, #3
 8004638:	e06d      	b.n	8004716 <HAL_RCCEx_PeriphCLKConfig+0x156>
      while (HAL_IS_BIT_CLR(PWR->CR, PWR_CR_DBP))
 800463a:	4b3a      	ldr	r3, [pc, #232]	@ (8004724 <HAL_RCCEx_PeriphCLKConfig+0x164>)
 800463c:	681b      	ldr	r3, [r3, #0]
 800463e:	f403 7380 	and.w	r3, r3, #256	@ 0x100
 8004642:	2b00      	cmp	r3, #0
 8004644:	d0f0      	beq.n	8004628 <HAL_RCCEx_PeriphCLKConfig+0x68>
        }
      }
    }

    /* Reset the Backup domain only if the RTC Clock source selection is modified from reset value */
    temp_reg = (RCC->BDCR & RCC_BDCR_RTCSEL);
 8004646:	4b36      	ldr	r3, [pc, #216]	@ (8004720 <HAL_RCCEx_PeriphCLKConfig+0x160>)
 8004648:	6a1b      	ldr	r3, [r3, #32]
 800464a:	f403 7340 	and.w	r3, r3, #768	@ 0x300
 800464e:	60fb      	str	r3, [r7, #12]
    if ((temp_reg != 0x00000000U) && (temp_reg != (PeriphClkInit->RTCClockSelection & RCC_BDCR_RTCSEL)))
 8004650:	68fb      	ldr	r3, [r7, #12]
 8004652:	2b00      	cmp	r3, #0
 8004654:	d02e      	beq.n	80046b4 <HAL_RCCEx_PeriphCLKConfig+0xf4>
 8004656:	687b      	ldr	r3, [r7, #4]
 8004658:	685b      	ldr	r3, [r3, #4]
 800465a:	f403 7340 	and.w	r3, r3, #768	@ 0x300
 800465e:	68fa      	ldr	r2, [r7, #12]
 8004660:	429a      	cmp	r2, r3
 8004662:	d027      	beq.n	80046b4 <HAL_RCCEx_PeriphCLKConfig+0xf4>
    {
      /* Store the content of BDCR register before the reset of Backup Domain */
      temp_reg = (RCC->BDCR & ~(RCC_BDCR_RTCSEL));
 8004664:	4b2e      	ldr	r3, [pc, #184]	@ (8004720 <HAL_RCCEx_PeriphCLKConfig+0x160>)
 8004666:	6a1b      	ldr	r3, [r3, #32]
 8004668:	f423 7340 	bic.w	r3, r3, #768	@ 0x300
 800466c:	60fb      	str	r3, [r7, #12]
      /* RTC Clock selection can be changed only if the Backup Domain is reset */
      __HAL_RCC_BACKUPRESET_FORCE();
 800466e:	4b2e      	ldr	r3, [pc, #184]	@ (8004728 <HAL_RCCEx_PeriphCLKConfig+0x168>)
 8004670:	2201      	movs	r2, #1
 8004672:	601a      	str	r2, [r3, #0]
      __HAL_RCC_BACKUPRESET_RELEASE();
 8004674:	4b2c      	ldr	r3, [pc, #176]	@ (8004728 <HAL_RCCEx_PeriphCLKConfig+0x168>)
 8004676:	2200      	movs	r2, #0
 8004678:	601a      	str	r2, [r3, #0]
      /* Restore the Content of BDCR register */
      RCC->BDCR = temp_reg;
 800467a:	4a29      	ldr	r2, [pc, #164]	@ (8004720 <HAL_RCCEx_PeriphCLKConfig+0x160>)
 800467c:	68fb      	ldr	r3, [r7, #12]
 800467e:	6213      	str	r3, [r2, #32]

      /* Wait for LSERDY if LSE was enabled */
      if (HAL_IS_BIT_SET(temp_reg, RCC_BDCR_LSEON))
 8004680:	68fb      	ldr	r3, [r7, #12]
 8004682:	f003 0301 	and.w	r3, r3, #1
 8004686:	2b00      	cmp	r3, #0
 8004688:	d014      	beq.n	80046b4 <HAL_RCCEx_PeriphCLKConfig+0xf4>
      {
        /* Get Start Tick */
        tickstart = HAL_GetTick();
 800468a:	f7fd fcf3 	bl	8002074 <HAL_GetTick>
 800468e:	6138      	str	r0, [r7, #16]

        /* Wait till LSE is ready */
        while (__HAL_RCC_GET_FLAG(RCC_FLAG_LSERDY) == RESET)
 8004690:	e00a      	b.n	80046a8 <HAL_RCCEx_PeriphCLKConfig+0xe8>
        {
          if ((HAL_GetTick() - tickstart) > RCC_LSE_TIMEOUT_VALUE)
 8004692:	f7fd fcef 	bl	8002074 <HAL_GetTick>
 8004696:	4602      	mov	r2, r0
 8004698:	693b      	ldr	r3, [r7, #16]
 800469a:	1ad3      	subs	r3, r2, r3
 800469c:	f241 3288 	movw	r2, #5000	@ 0x1388
 80046a0:	4293      	cmp	r3, r2
 80046a2:	d901      	bls.n	80046a8 <HAL_RCCEx_PeriphCLKConfig+0xe8>
          {
            return HAL_TIMEOUT;
 80046a4:	2303      	movs	r3, #3
 80046a6:	e036      	b.n	8004716 <HAL_RCCEx_PeriphCLKConfig+0x156>
        while (__HAL_RCC_GET_FLAG(RCC_FLAG_LSERDY) == RESET)
 80046a8:	4b1d      	ldr	r3, [pc, #116]	@ (8004720 <HAL_RCCEx_PeriphCLKConfig+0x160>)
 80046aa:	6a1b      	ldr	r3, [r3, #32]
 80046ac:	f003 0302 	and.w	r3, r3, #2
 80046b0:	2b00      	cmp	r3, #0
 80046b2:	d0ee      	beq.n	8004692 <HAL_RCCEx_PeriphCLKConfig+0xd2>
          }
        }
      }
    }
    __HAL_RCC_RTC_CONFIG(PeriphClkInit->RTCClockSelection);
 80046b4:	4b1a      	ldr	r3, [pc, #104]	@ (8004720 <HAL_RCCEx_PeriphCLKConfig+0x160>)
 80046b6:	6a1b      	ldr	r3, [r3, #32]
 80046b8:	f423 7240 	bic.w	r2, r3, #768	@ 0x300
 80046bc:	687b      	ldr	r3, [r7, #4]
 80046be:	685b      	ldr	r3, [r3, #4]
 80046c0:	4917      	ldr	r1, [pc, #92]	@ (8004720 <HAL_RCCEx_PeriphCLKConfig+0x160>)
 80046c2:	4313      	orrs	r3, r2
 80046c4:	620b      	str	r3, [r1, #32]

    /* Require to disable power clock if necessary */
    if (pwrclkchanged == SET)
 80046c6:	7dfb      	ldrb	r3, [r7, #23]
 80046c8:	2b01      	cmp	r3, #1
 80046ca:	d105      	bne.n	80046d8 <HAL_RCCEx_PeriphCLKConfig+0x118>
    {
      __HAL_RCC_PWR_CLK_DISABLE();
 80046cc:	4b14      	ldr	r3, [pc, #80]	@ (8004720 <HAL_RCCEx_PeriphCLKConfig+0x160>)
 80046ce:	69db      	ldr	r3, [r3, #28]
 80046d0:	4a13      	ldr	r2, [pc, #76]	@ (8004720 <HAL_RCCEx_PeriphCLKConfig+0x160>)
 80046d2:	f023 5380 	bic.w	r3, r3, #268435456	@ 0x10000000
 80046d6:	61d3      	str	r3, [r2, #28]
    }
  }

  /*------------------------------ ADC clock Configuration ------------------*/
  if (((PeriphClkInit->PeriphClockSelection) & RCC_PERIPHCLK_ADC) == RCC_PERIPHCLK_ADC)
 80046d8:	687b      	ldr	r3, [r7, #4]
 80046da:	681b      	ldr	r3, [r3, #0]
 80046dc:	f003 0302 	and.w	r3, r3, #2
 80046e0:	2b00      	cmp	r3, #0
 80046e2:	d008      	beq.n	80046f6 <HAL_RCCEx_PeriphCLKConfig+0x136>
  {
    /* Check the parameters */
    assert_param(IS_RCC_ADCPLLCLK_DIV(PeriphClkInit->AdcClockSelection));

    /* Configure the ADC clock source */
    __HAL_RCC_ADC_CONFIG(PeriphClkInit->AdcClockSelection);
 80046e4:	4b0e      	ldr	r3, [pc, #56]	@ (8004720 <HAL_RCCEx_PeriphCLKConfig+0x160>)
 80046e6:	685b      	ldr	r3, [r3, #4]
 80046e8:	f423 4240 	bic.w	r2, r3, #49152	@ 0xc000
 80046ec:	687b      	ldr	r3, [r7, #4]
 80046ee:	689b      	ldr	r3, [r3, #8]
 80046f0:	490b      	ldr	r1, [pc, #44]	@ (8004720 <HAL_RCCEx_PeriphCLKConfig+0x160>)
 80046f2:	4313      	orrs	r3, r2
 80046f4:	604b      	str	r3, [r1, #4]

#if defined(STM32F102x6) || defined(STM32F102xB) || defined(STM32F103x6)\
 || defined(STM32F103xB) || defined(STM32F103xE) || defined(STM32F103xG)\
 || defined(STM32F105xC) || defined(STM32F107xC)
  /*------------------------------ USB clock Configuration ------------------*/
  if (((PeriphClkInit->PeriphClockSelection) & RCC_PERIPHCLK_USB) == RCC_PERIPHCLK_USB)
 80046f6:	687b      	ldr	r3, [r7, #4]
 80046f8:	681b      	ldr	r3, [r3, #0]
 80046fa:	f003 0310 	and.w	r3, r3, #16
 80046fe:	2b00      	cmp	r3, #0
 8004700:	d008      	beq.n	8004714 <HAL_RCCEx_PeriphCLKConfig+0x154>
  {
    /* Check the parameters */
    assert_param(IS_RCC_USBPLLCLK_DIV(PeriphClkInit->UsbClockSelection));

    /* Configure the USB clock source */
    __HAL_RCC_USB_CONFIG(PeriphClkInit->UsbClockSelection);
 8004702:	4b07      	ldr	r3, [pc, #28]	@ (8004720 <HAL_RCCEx_PeriphCLKConfig+0x160>)
 8004704:	685b      	ldr	r3, [r3, #4]
 8004706:	f423 0280 	bic.w	r2, r3, #4194304	@ 0x400000
 800470a:	687b      	ldr	r3, [r7, #4]
 800470c:	68db      	ldr	r3, [r3, #12]
 800470e:	4904      	ldr	r1, [pc, #16]	@ (8004720 <HAL_RCCEx_PeriphCLKConfig+0x160>)
 8004710:	4313      	orrs	r3, r2
 8004712:	604b      	str	r3, [r1, #4]
  }
#endif /* STM32F102x6 || STM32F102xB || STM32F103x6 || STM32F103xB || STM32F103xE || STM32F103xG || STM32F105xC || STM32F107xC */

  return HAL_OK;
 8004714:	2300      	movs	r3, #0
}
 8004716:	4618      	mov	r0, r3
 8004718:	3718      	adds	r7, #24
 800471a:	46bd      	mov	sp, r7
 800471c:	bd80      	pop	{r7, pc}
 800471e:	bf00      	nop
 8004720:	40021000 	.word	0x40021000
 8004724:	40007000 	.word	0x40007000
 8004728:	42420440 	.word	0x42420440

0800472c <HAL_RCCEx_GetPeriphCLKFreq>:
  *            @arg @ref RCC_PERIPHCLK_USB  USB peripheral clock
  @endif
  * @retval Frequency in Hz (0: means that no available frequency for the peripheral)
  */
uint32_t HAL_RCCEx_GetPeriphCLKFreq(uint32_t PeriphClk)
{
 800472c:	b580      	push	{r7, lr}
 800472e:	b088      	sub	sp, #32
 8004730:	af00      	add	r7, sp, #0
 8004732:	6078      	str	r0, [r7, #4]
#if defined(STM32F102x6) || defined(STM32F102xB) || defined(STM32F103x6) || \
    defined(STM32F103xB) || defined(STM32F103xE) || defined(STM32F103xG)
  static const uint8_t aPLLMULFactorTable[16U] = {2, 3, 4, 5, 6, 7, 8, 9, 10, 11, 12, 13, 14, 15, 16, 16};
  static const uint8_t aPredivFactorTable[2U] = {1, 2};

  uint32_t prediv1 = 0U, pllclk = 0U, pllmul = 0U;
 8004734:	2300      	movs	r3, #0
 8004736:	617b      	str	r3, [r7, #20]
 8004738:	2300      	movs	r3, #0
 800473a:	61fb      	str	r3, [r7, #28]
 800473c:	2300      	movs	r3, #0
 800473e:	613b      	str	r3, [r7, #16]
#endif /* STM32F102x6 || STM32F102xB || STM32F103x6 || STM32F103xB || STM32F103xE || STM32F103xG */
  uint32_t temp_reg = 0U, frequency = 0U;
 8004740:	2300      	movs	r3, #0
 8004742:	60fb      	str	r3, [r7, #12]
 8004744:	2300      	movs	r3, #0
 8004746:	61bb      	str	r3, [r7, #24]

  /* Check the parameters */
  assert_param(IS_RCC_PERIPHCLOCK(PeriphClk));

  switch (PeriphClk)
 8004748:	687b      	ldr	r3, [r7, #4]
 800474a:	2b10      	cmp	r3, #16
 800474c:	d00a      	beq.n	8004764 <HAL_RCCEx_GetPeriphCLKFreq+0x38>
 800474e:	687b      	ldr	r3, [r7, #4]
 8004750:	2b10      	cmp	r3, #16
 8004752:	f200 808a 	bhi.w	800486a <HAL_RCCEx_GetPeriphCLKFreq+0x13e>
 8004756:	687b      	ldr	r3, [r7, #4]
 8004758:	2b01      	cmp	r3, #1
 800475a:	d045      	beq.n	80047e8 <HAL_RCCEx_GetPeriphCLKFreq+0xbc>
 800475c:	687b      	ldr	r3, [r7, #4]
 800475e:	2b02      	cmp	r3, #2
 8004760:	d075      	beq.n	800484e <HAL_RCCEx_GetPeriphCLKFreq+0x122>
      frequency = HAL_RCC_GetPCLK2Freq() / (((__HAL_RCC_GET_ADC_SOURCE() >> RCC_CFGR_ADCPRE_Pos) + 1) * 2);
      break;
    }
    default:
    {
      break;
 8004762:	e082      	b.n	800486a <HAL_RCCEx_GetPeriphCLKFreq+0x13e>
      temp_reg = RCC->CFGR;
 8004764:	4b46      	ldr	r3, [pc, #280]	@ (8004880 <HAL_RCCEx_GetPeriphCLKFreq+0x154>)
 8004766:	685b      	ldr	r3, [r3, #4]
 8004768:	60fb      	str	r3, [r7, #12]
      if (HAL_IS_BIT_SET(RCC->CR, RCC_CR_PLLON))
 800476a:	4b45      	ldr	r3, [pc, #276]	@ (8004880 <HAL_RCCEx_GetPeriphCLKFreq+0x154>)
 800476c:	681b      	ldr	r3, [r3, #0]
 800476e:	f003 7380 	and.w	r3, r3, #16777216	@ 0x1000000
 8004772:	2b00      	cmp	r3, #0
 8004774:	d07b      	beq.n	800486e <HAL_RCCEx_GetPeriphCLKFreq+0x142>
        pllmul = aPLLMULFactorTable[(uint32_t)(temp_reg & RCC_CFGR_PLLMULL) >> RCC_CFGR_PLLMULL_Pos];
 8004776:	68fb      	ldr	r3, [r7, #12]
 8004778:	0c9b      	lsrs	r3, r3, #18
 800477a:	f003 030f 	and.w	r3, r3, #15
 800477e:	4a41      	ldr	r2, [pc, #260]	@ (8004884 <HAL_RCCEx_GetPeriphCLKFreq+0x158>)
 8004780:	5cd3      	ldrb	r3, [r2, r3]
 8004782:	613b      	str	r3, [r7, #16]
        if ((temp_reg & RCC_CFGR_PLLSRC) != RCC_PLLSOURCE_HSI_DIV2)
 8004784:	68fb      	ldr	r3, [r7, #12]
 8004786:	f403 3380 	and.w	r3, r3, #65536	@ 0x10000
 800478a:	2b00      	cmp	r3, #0
 800478c:	d015      	beq.n	80047ba <HAL_RCCEx_GetPeriphCLKFreq+0x8e>
          prediv1 = aPredivFactorTable[(uint32_t)(RCC->CFGR & RCC_CFGR_PLLXTPRE) >> RCC_CFGR_PLLXTPRE_Pos];
 800478e:	4b3c      	ldr	r3, [pc, #240]	@ (8004880 <HAL_RCCEx_GetPeriphCLKFreq+0x154>)
 8004790:	685b      	ldr	r3, [r3, #4]
 8004792:	0c5b      	lsrs	r3, r3, #17
 8004794:	f003 0301 	and.w	r3, r3, #1
 8004798:	4a3b      	ldr	r2, [pc, #236]	@ (8004888 <HAL_RCCEx_GetPeriphCLKFreq+0x15c>)
 800479a:	5cd3      	ldrb	r3, [r2, r3]
 800479c:	617b      	str	r3, [r7, #20]
          if ((temp_reg & RCC_CFGR_PLLSRC) != RCC_PLLSOURCE_HSI_DIV2)
 800479e:	68fb      	ldr	r3, [r7, #12]
 80047a0:	f403 3380 	and.w	r3, r3, #65536	@ 0x10000
 80047a4:	2b00      	cmp	r3, #0
 80047a6:	d00d      	beq.n	80047c4 <HAL_RCCEx_GetPeriphCLKFreq+0x98>
            pllclk = (uint32_t)((HSE_VALUE / prediv1) * pllmul);
 80047a8:	4a38      	ldr	r2, [pc, #224]	@ (800488c <HAL_RCCEx_GetPeriphCLKFreq+0x160>)
 80047aa:	697b      	ldr	r3, [r7, #20]
 80047ac:	fbb2 f2f3 	udiv	r2, r2, r3
 80047b0:	693b      	ldr	r3, [r7, #16]
 80047b2:	fb02 f303 	mul.w	r3, r2, r3
 80047b6:	61fb      	str	r3, [r7, #28]
 80047b8:	e004      	b.n	80047c4 <HAL_RCCEx_GetPeriphCLKFreq+0x98>
          pllclk = (uint32_t)((HSI_VALUE >> 1) * pllmul);
 80047ba:	693b      	ldr	r3, [r7, #16]
 80047bc:	4a34      	ldr	r2, [pc, #208]	@ (8004890 <HAL_RCCEx_GetPeriphCLKFreq+0x164>)
 80047be:	fb02 f303 	mul.w	r3, r2, r3
 80047c2:	61fb      	str	r3, [r7, #28]
        if (__HAL_RCC_GET_USB_SOURCE() == RCC_USBCLKSOURCE_PLL)
 80047c4:	4b2e      	ldr	r3, [pc, #184]	@ (8004880 <HAL_RCCEx_GetPeriphCLKFreq+0x154>)
 80047c6:	685b      	ldr	r3, [r3, #4]
 80047c8:	f403 0380 	and.w	r3, r3, #4194304	@ 0x400000
 80047cc:	f5b3 0f80 	cmp.w	r3, #4194304	@ 0x400000
 80047d0:	d102      	bne.n	80047d8 <HAL_RCCEx_GetPeriphCLKFreq+0xac>
          frequency = pllclk;
 80047d2:	69fb      	ldr	r3, [r7, #28]
 80047d4:	61bb      	str	r3, [r7, #24]
      break;
 80047d6:	e04a      	b.n	800486e <HAL_RCCEx_GetPeriphCLKFreq+0x142>
          frequency = (pllclk * 2) / 3;
 80047d8:	69fb      	ldr	r3, [r7, #28]
 80047da:	005b      	lsls	r3, r3, #1
 80047dc:	4a2d      	ldr	r2, [pc, #180]	@ (8004894 <HAL_RCCEx_GetPeriphCLKFreq+0x168>)
 80047de:	fba2 2303 	umull	r2, r3, r2, r3
 80047e2:	085b      	lsrs	r3, r3, #1
 80047e4:	61bb      	str	r3, [r7, #24]
      break;
 80047e6:	e042      	b.n	800486e <HAL_RCCEx_GetPeriphCLKFreq+0x142>
      temp_reg = RCC->BDCR;
 80047e8:	4b25      	ldr	r3, [pc, #148]	@ (8004880 <HAL_RCCEx_GetPeriphCLKFreq+0x154>)
 80047ea:	6a1b      	ldr	r3, [r3, #32]
 80047ec:	60fb      	str	r3, [r7, #12]
      if (((temp_reg & RCC_BDCR_RTCSEL) == RCC_RTCCLKSOURCE_LSE) && (HAL_IS_BIT_SET(temp_reg, RCC_BDCR_LSERDY)))
 80047ee:	68fb      	ldr	r3, [r7, #12]
 80047f0:	f403 7340 	and.w	r3, r3, #768	@ 0x300
 80047f4:	f5b3 7f80 	cmp.w	r3, #256	@ 0x100
 80047f8:	d108      	bne.n	800480c <HAL_RCCEx_GetPeriphCLKFreq+0xe0>
 80047fa:	68fb      	ldr	r3, [r7, #12]
 80047fc:	f003 0302 	and.w	r3, r3, #2
 8004800:	2b00      	cmp	r3, #0
 8004802:	d003      	beq.n	800480c <HAL_RCCEx_GetPeriphCLKFreq+0xe0>
        frequency = LSE_VALUE;
 8004804:	f44f 4300 	mov.w	r3, #32768	@ 0x8000
 8004808:	61bb      	str	r3, [r7, #24]
 800480a:	e01f      	b.n	800484c <HAL_RCCEx_GetPeriphCLKFreq+0x120>
      else if (((temp_reg & RCC_BDCR_RTCSEL) == RCC_RTCCLKSOURCE_LSI) && (HAL_IS_BIT_SET(RCC->CSR, RCC_CSR_LSIRDY)))
 800480c:	68fb      	ldr	r3, [r7, #12]
 800480e:	f403 7340 	and.w	r3, r3, #768	@ 0x300
 8004812:	f5b3 7f00 	cmp.w	r3, #512	@ 0x200
 8004816:	d109      	bne.n	800482c <HAL_RCCEx_GetPeriphCLKFreq+0x100>
 8004818:	4b19      	ldr	r3, [pc, #100]	@ (8004880 <HAL_RCCEx_GetPeriphCLKFreq+0x154>)
 800481a:	6a5b      	ldr	r3, [r3, #36]	@ 0x24
 800481c:	f003 0302 	and.w	r3, r3, #2
 8004820:	2b00      	cmp	r3, #0
 8004822:	d003      	beq.n	800482c <HAL_RCCEx_GetPeriphCLKFreq+0x100>
        frequency = LSI_VALUE;
 8004824:	f649 4340 	movw	r3, #40000	@ 0x9c40
 8004828:	61bb      	str	r3, [r7, #24]
 800482a:	e00f      	b.n	800484c <HAL_RCCEx_GetPeriphCLKFreq+0x120>
      else if (((temp_reg & RCC_BDCR_RTCSEL) == RCC_RTCCLKSOURCE_HSE_DIV128) && (HAL_IS_BIT_SET(RCC->CR, RCC_CR_HSERDY)))
 800482c:	68fb      	ldr	r3, [r7, #12]
 800482e:	f403 7340 	and.w	r3, r3, #768	@ 0x300
 8004832:	f5b3 7f40 	cmp.w	r3, #768	@ 0x300
 8004836:	d11c      	bne.n	8004872 <HAL_RCCEx_GetPeriphCLKFreq+0x146>
 8004838:	4b11      	ldr	r3, [pc, #68]	@ (8004880 <HAL_RCCEx_GetPeriphCLKFreq+0x154>)
 800483a:	681b      	ldr	r3, [r3, #0]
 800483c:	f403 3300 	and.w	r3, r3, #131072	@ 0x20000
 8004840:	2b00      	cmp	r3, #0
 8004842:	d016      	beq.n	8004872 <HAL_RCCEx_GetPeriphCLKFreq+0x146>
        frequency = HSE_VALUE / 128U;
 8004844:	f24f 4324 	movw	r3, #62500	@ 0xf424
 8004848:	61bb      	str	r3, [r7, #24]
      break;
 800484a:	e012      	b.n	8004872 <HAL_RCCEx_GetPeriphCLKFreq+0x146>
 800484c:	e011      	b.n	8004872 <HAL_RCCEx_GetPeriphCLKFreq+0x146>
      frequency = HAL_RCC_GetPCLK2Freq() / (((__HAL_RCC_GET_ADC_SOURCE() >> RCC_CFGR_ADCPRE_Pos) + 1) * 2);
 800484e:	f7ff fe55 	bl	80044fc <HAL_RCC_GetPCLK2Freq>
 8004852:	4602      	mov	r2, r0
 8004854:	4b0a      	ldr	r3, [pc, #40]	@ (8004880 <HAL_RCCEx_GetPeriphCLKFreq+0x154>)
 8004856:	685b      	ldr	r3, [r3, #4]
 8004858:	0b9b      	lsrs	r3, r3, #14
 800485a:	f003 0303 	and.w	r3, r3, #3
 800485e:	3301      	adds	r3, #1
 8004860:	005b      	lsls	r3, r3, #1
 8004862:	fbb2 f3f3 	udiv	r3, r2, r3
 8004866:	61bb      	str	r3, [r7, #24]
      break;
 8004868:	e004      	b.n	8004874 <HAL_RCCEx_GetPeriphCLKFreq+0x148>
      break;
 800486a:	bf00      	nop
 800486c:	e002      	b.n	8004874 <HAL_RCCEx_GetPeriphCLKFreq+0x148>
      break;
 800486e:	bf00      	nop
 8004870:	e000      	b.n	8004874 <HAL_RCCEx_GetPeriphCLKFreq+0x148>
      break;
 8004872:	bf00      	nop
    }
  }
  return (frequency);
 8004874:	69bb      	ldr	r3, [r7, #24]
}
 8004876:	4618      	mov	r0, r3
 8004878:	3720      	adds	r7, #32
 800487a:	46bd      	mov	sp, r7
 800487c:	bd80      	pop	{r7, pc}
 800487e:	bf00      	nop
 8004880:	40021000 	.word	0x40021000
 8004884:	08007258 	.word	0x08007258
 8004888:	08007268 	.word	0x08007268
 800488c:	007a1200 	.word	0x007a1200
 8004890:	003d0900 	.word	0x003d0900
 8004894:	aaaaaaab 	.word	0xaaaaaaab

08004898 <HAL_TIM_Base_Init>:
  *         Ex: call @ref HAL_TIM_Base_DeInit() before HAL_TIM_Base_Init()
  * @param  htim TIM Base handle
  * @retval HAL status
  */
HAL_StatusTypeDef HAL_TIM_Base_Init(TIM_HandleTypeDef *htim)
{
 8004898:	b580      	push	{r7, lr}
 800489a:	b082      	sub	sp, #8
 800489c:	af00      	add	r7, sp, #0
 800489e:	6078      	str	r0, [r7, #4]
  /* Check the TIM handle allocation */
  if (htim == NULL)
 80048a0:	687b      	ldr	r3, [r7, #4]
 80048a2:	2b00      	cmp	r3, #0
 80048a4:	d101      	bne.n	80048aa <HAL_TIM_Base_Init+0x12>
  {
    return HAL_ERROR;
 80048a6:	2301      	movs	r3, #1
 80048a8:	e041      	b.n	800492e <HAL_TIM_Base_Init+0x96>
  assert_param(IS_TIM_COUNTER_MODE(htim->Init.CounterMode));
  assert_param(IS_TIM_CLOCKDIVISION_DIV(htim->Init.ClockDivision));
  assert_param(IS_TIM_PERIOD(htim->Init.Period));
  assert_param(IS_TIM_AUTORELOAD_PRELOAD(htim->Init.AutoReloadPreload));

  if (htim->State == HAL_TIM_STATE_RESET)
 80048aa:	687b      	ldr	r3, [r7, #4]
 80048ac:	f893 303d 	ldrb.w	r3, [r3, #61]	@ 0x3d
 80048b0:	b2db      	uxtb	r3, r3
 80048b2:	2b00      	cmp	r3, #0
 80048b4:	d106      	bne.n	80048c4 <HAL_TIM_Base_Init+0x2c>
  {
    /* Allocate lock resource and initialize it */
    htim->Lock = HAL_UNLOCKED;
 80048b6:	687b      	ldr	r3, [r7, #4]
 80048b8:	2200      	movs	r2, #0
 80048ba:	f883 203c 	strb.w	r2, [r3, #60]	@ 0x3c
    }
    /* Init the low level hardware : GPIO, CLOCK, NVIC */
    htim->Base_MspInitCallback(htim);
#else
    /* Init the low level hardware : GPIO, CLOCK, NVIC */
    HAL_TIM_Base_MspInit(htim);
 80048be:	6878      	ldr	r0, [r7, #4]
 80048c0:	f7fd fa4a 	bl	8001d58 <HAL_TIM_Base_MspInit>
#endif /* USE_HAL_TIM_REGISTER_CALLBACKS */
  }

  /* Set the TIM state */
  htim->State = HAL_TIM_STATE_BUSY;
 80048c4:	687b      	ldr	r3, [r7, #4]
 80048c6:	2202      	movs	r2, #2
 80048c8:	f883 203d 	strb.w	r2, [r3, #61]	@ 0x3d

  /* Set the Time Base configuration */
  TIM_Base_SetConfig(htim->Instance, &htim->Init);
 80048cc:	687b      	ldr	r3, [r7, #4]
 80048ce:	681a      	ldr	r2, [r3, #0]
 80048d0:	687b      	ldr	r3, [r7, #4]
 80048d2:	3304      	adds	r3, #4
 80048d4:	4619      	mov	r1, r3
 80048d6:	4610      	mov	r0, r2
 80048d8:	f000 fc0c 	bl	80050f4 <TIM_Base_SetConfig>

  /* Initialize the DMA burst operation state */
  htim->DMABurstState = HAL_DMA_BURST_STATE_READY;
 80048dc:	687b      	ldr	r3, [r7, #4]
 80048de:	2201      	movs	r2, #1
 80048e0:	f883 2046 	strb.w	r2, [r3, #70]	@ 0x46

  /* Initialize the TIM channels state */
  TIM_CHANNEL_STATE_SET_ALL(htim, HAL_TIM_CHANNEL_STATE_READY);
 80048e4:	687b      	ldr	r3, [r7, #4]
 80048e6:	2201      	movs	r2, #1
 80048e8:	f883 203e 	strb.w	r2, [r3, #62]	@ 0x3e
 80048ec:	687b      	ldr	r3, [r7, #4]
 80048ee:	2201      	movs	r2, #1
 80048f0:	f883 203f 	strb.w	r2, [r3, #63]	@ 0x3f
 80048f4:	687b      	ldr	r3, [r7, #4]
 80048f6:	2201      	movs	r2, #1
 80048f8:	f883 2040 	strb.w	r2, [r3, #64]	@ 0x40
 80048fc:	687b      	ldr	r3, [r7, #4]
 80048fe:	2201      	movs	r2, #1
 8004900:	f883 2041 	strb.w	r2, [r3, #65]	@ 0x41
  TIM_CHANNEL_N_STATE_SET_ALL(htim, HAL_TIM_CHANNEL_STATE_READY);
 8004904:	687b      	ldr	r3, [r7, #4]
 8004906:	2201      	movs	r2, #1
 8004908:	f883 2042 	strb.w	r2, [r3, #66]	@ 0x42
 800490c:	687b      	ldr	r3, [r7, #4]
 800490e:	2201      	movs	r2, #1
 8004910:	f883 2043 	strb.w	r2, [r3, #67]	@ 0x43
 8004914:	687b      	ldr	r3, [r7, #4]
 8004916:	2201      	movs	r2, #1
 8004918:	f883 2044 	strb.w	r2, [r3, #68]	@ 0x44
 800491c:	687b      	ldr	r3, [r7, #4]
 800491e:	2201      	movs	r2, #1
 8004920:	f883 2045 	strb.w	r2, [r3, #69]	@ 0x45

  /* Initialize the TIM state*/
  htim->State = HAL_TIM_STATE_READY;
 8004924:	687b      	ldr	r3, [r7, #4]
 8004926:	2201      	movs	r2, #1
 8004928:	f883 203d 	strb.w	r2, [r3, #61]	@ 0x3d

  return HAL_OK;
 800492c:	2300      	movs	r3, #0
}
 800492e:	4618      	mov	r0, r3
 8004930:	3708      	adds	r7, #8
 8004932:	46bd      	mov	sp, r7
 8004934:	bd80      	pop	{r7, pc}
	...

08004938 <HAL_TIM_Base_Start_IT>:
  * @brief  Starts the TIM Base generation in interrupt mode.
  * @param  htim TIM Base handle
  * @retval HAL status
  */
HAL_StatusTypeDef HAL_TIM_Base_Start_IT(TIM_HandleTypeDef *htim)
{
 8004938:	b480      	push	{r7}
 800493a:	b085      	sub	sp, #20
 800493c:	af00      	add	r7, sp, #0
 800493e:	6078      	str	r0, [r7, #4]

  /* Check the parameters */
  assert_param(IS_TIM_INSTANCE(htim->Instance));

  /* Check the TIM state */
  if (htim->State != HAL_TIM_STATE_READY)
 8004940:	687b      	ldr	r3, [r7, #4]
 8004942:	f893 303d 	ldrb.w	r3, [r3, #61]	@ 0x3d
 8004946:	b2db      	uxtb	r3, r3
 8004948:	2b01      	cmp	r3, #1
 800494a:	d001      	beq.n	8004950 <HAL_TIM_Base_Start_IT+0x18>
  {
    return HAL_ERROR;
 800494c:	2301      	movs	r3, #1
 800494e:	e035      	b.n	80049bc <HAL_TIM_Base_Start_IT+0x84>
  }

  /* Set the TIM state */
  htim->State = HAL_TIM_STATE_BUSY;
 8004950:	687b      	ldr	r3, [r7, #4]
 8004952:	2202      	movs	r2, #2
 8004954:	f883 203d 	strb.w	r2, [r3, #61]	@ 0x3d

  /* Enable the TIM Update interrupt */
  __HAL_TIM_ENABLE_IT(htim, TIM_IT_UPDATE);
 8004958:	687b      	ldr	r3, [r7, #4]
 800495a:	681b      	ldr	r3, [r3, #0]
 800495c:	68da      	ldr	r2, [r3, #12]
 800495e:	687b      	ldr	r3, [r7, #4]
 8004960:	681b      	ldr	r3, [r3, #0]
 8004962:	f042 0201 	orr.w	r2, r2, #1
 8004966:	60da      	str	r2, [r3, #12]

  /* Enable the Peripheral, except in trigger mode where enable is automatically done with trigger */
  if (IS_TIM_SLAVE_INSTANCE(htim->Instance))
 8004968:	687b      	ldr	r3, [r7, #4]
 800496a:	681b      	ldr	r3, [r3, #0]
 800496c:	4a16      	ldr	r2, [pc, #88]	@ (80049c8 <HAL_TIM_Base_Start_IT+0x90>)
 800496e:	4293      	cmp	r3, r2
 8004970:	d009      	beq.n	8004986 <HAL_TIM_Base_Start_IT+0x4e>
 8004972:	687b      	ldr	r3, [r7, #4]
 8004974:	681b      	ldr	r3, [r3, #0]
 8004976:	f1b3 4f80 	cmp.w	r3, #1073741824	@ 0x40000000
 800497a:	d004      	beq.n	8004986 <HAL_TIM_Base_Start_IT+0x4e>
 800497c:	687b      	ldr	r3, [r7, #4]
 800497e:	681b      	ldr	r3, [r3, #0]
 8004980:	4a12      	ldr	r2, [pc, #72]	@ (80049cc <HAL_TIM_Base_Start_IT+0x94>)
 8004982:	4293      	cmp	r3, r2
 8004984:	d111      	bne.n	80049aa <HAL_TIM_Base_Start_IT+0x72>
  {
    tmpsmcr = htim->Instance->SMCR & TIM_SMCR_SMS;
 8004986:	687b      	ldr	r3, [r7, #4]
 8004988:	681b      	ldr	r3, [r3, #0]
 800498a:	689b      	ldr	r3, [r3, #8]
 800498c:	f003 0307 	and.w	r3, r3, #7
 8004990:	60fb      	str	r3, [r7, #12]
    if (!IS_TIM_SLAVEMODE_TRIGGER_ENABLED(tmpsmcr))
 8004992:	68fb      	ldr	r3, [r7, #12]
 8004994:	2b06      	cmp	r3, #6
 8004996:	d010      	beq.n	80049ba <HAL_TIM_Base_Start_IT+0x82>
    {
      __HAL_TIM_ENABLE(htim);
 8004998:	687b      	ldr	r3, [r7, #4]
 800499a:	681b      	ldr	r3, [r3, #0]
 800499c:	681a      	ldr	r2, [r3, #0]
 800499e:	687b      	ldr	r3, [r7, #4]
 80049a0:	681b      	ldr	r3, [r3, #0]
 80049a2:	f042 0201 	orr.w	r2, r2, #1
 80049a6:	601a      	str	r2, [r3, #0]
    if (!IS_TIM_SLAVEMODE_TRIGGER_ENABLED(tmpsmcr))
 80049a8:	e007      	b.n	80049ba <HAL_TIM_Base_Start_IT+0x82>
    }
  }
  else
  {
    __HAL_TIM_ENABLE(htim);
 80049aa:	687b      	ldr	r3, [r7, #4]
 80049ac:	681b      	ldr	r3, [r3, #0]
 80049ae:	681a      	ldr	r2, [r3, #0]
 80049b0:	687b      	ldr	r3, [r7, #4]
 80049b2:	681b      	ldr	r3, [r3, #0]
 80049b4:	f042 0201 	orr.w	r2, r2, #1
 80049b8:	601a      	str	r2, [r3, #0]
  }

  /* Return function status */
  return HAL_OK;
 80049ba:	2300      	movs	r3, #0
}
 80049bc:	4618      	mov	r0, r3
 80049be:	3714      	adds	r7, #20
 80049c0:	46bd      	mov	sp, r7
 80049c2:	bc80      	pop	{r7}
 80049c4:	4770      	bx	lr
 80049c6:	bf00      	nop
 80049c8:	40012c00 	.word	0x40012c00
 80049cc:	40000400 	.word	0x40000400

080049d0 <HAL_TIM_PWM_Init>:
  *         Ex: call @ref HAL_TIM_PWM_DeInit() before HAL_TIM_PWM_Init()
  * @param  htim TIM PWM handle
  * @retval HAL status
  */
HAL_StatusTypeDef HAL_TIM_PWM_Init(TIM_HandleTypeDef *htim)
{
 80049d0:	b580      	push	{r7, lr}
 80049d2:	b082      	sub	sp, #8
 80049d4:	af00      	add	r7, sp, #0
 80049d6:	6078      	str	r0, [r7, #4]
  /* Check the TIM handle allocation */
  if (htim == NULL)
 80049d8:	687b      	ldr	r3, [r7, #4]
 80049da:	2b00      	cmp	r3, #0
 80049dc:	d101      	bne.n	80049e2 <HAL_TIM_PWM_Init+0x12>
  {
    return HAL_ERROR;
 80049de:	2301      	movs	r3, #1
 80049e0:	e041      	b.n	8004a66 <HAL_TIM_PWM_Init+0x96>
  assert_param(IS_TIM_COUNTER_MODE(htim->Init.CounterMode));
  assert_param(IS_TIM_CLOCKDIVISION_DIV(htim->Init.ClockDivision));
  assert_param(IS_TIM_PERIOD(htim->Init.Period));
  assert_param(IS_TIM_AUTORELOAD_PRELOAD(htim->Init.AutoReloadPreload));

  if (htim->State == HAL_TIM_STATE_RESET)
 80049e2:	687b      	ldr	r3, [r7, #4]
 80049e4:	f893 303d 	ldrb.w	r3, [r3, #61]	@ 0x3d
 80049e8:	b2db      	uxtb	r3, r3
 80049ea:	2b00      	cmp	r3, #0
 80049ec:	d106      	bne.n	80049fc <HAL_TIM_PWM_Init+0x2c>
  {
    /* Allocate lock resource and initialize it */
    htim->Lock = HAL_UNLOCKED;
 80049ee:	687b      	ldr	r3, [r7, #4]
 80049f0:	2200      	movs	r2, #0
 80049f2:	f883 203c 	strb.w	r2, [r3, #60]	@ 0x3c
    }
    /* Init the low level hardware : GPIO, CLOCK, NVIC */
    htim->PWM_MspInitCallback(htim);
#else
    /* Init the low level hardware : GPIO, CLOCK, NVIC and DMA */
    HAL_TIM_PWM_MspInit(htim);
 80049f6:	6878      	ldr	r0, [r7, #4]
 80049f8:	f000 f839 	bl	8004a6e <HAL_TIM_PWM_MspInit>
#endif /* USE_HAL_TIM_REGISTER_CALLBACKS */
  }

  /* Set the TIM state */
  htim->State = HAL_TIM_STATE_BUSY;
 80049fc:	687b      	ldr	r3, [r7, #4]
 80049fe:	2202      	movs	r2, #2
 8004a00:	f883 203d 	strb.w	r2, [r3, #61]	@ 0x3d

  /* Init the base time for the PWM */
  TIM_Base_SetConfig(htim->Instance, &htim->Init);
 8004a04:	687b      	ldr	r3, [r7, #4]
 8004a06:	681a      	ldr	r2, [r3, #0]
 8004a08:	687b      	ldr	r3, [r7, #4]
 8004a0a:	3304      	adds	r3, #4
 8004a0c:	4619      	mov	r1, r3
 8004a0e:	4610      	mov	r0, r2
 8004a10:	f000 fb70 	bl	80050f4 <TIM_Base_SetConfig>

  /* Initialize the DMA burst operation state */
  htim->DMABurstState = HAL_DMA_BURST_STATE_READY;
 8004a14:	687b      	ldr	r3, [r7, #4]
 8004a16:	2201      	movs	r2, #1
 8004a18:	f883 2046 	strb.w	r2, [r3, #70]	@ 0x46

  /* Initialize the TIM channels state */
  TIM_CHANNEL_STATE_SET_ALL(htim, HAL_TIM_CHANNEL_STATE_READY);
 8004a1c:	687b      	ldr	r3, [r7, #4]
 8004a1e:	2201      	movs	r2, #1
 8004a20:	f883 203e 	strb.w	r2, [r3, #62]	@ 0x3e
 8004a24:	687b      	ldr	r3, [r7, #4]
 8004a26:	2201      	movs	r2, #1
 8004a28:	f883 203f 	strb.w	r2, [r3, #63]	@ 0x3f
 8004a2c:	687b      	ldr	r3, [r7, #4]
 8004a2e:	2201      	movs	r2, #1
 8004a30:	f883 2040 	strb.w	r2, [r3, #64]	@ 0x40
 8004a34:	687b      	ldr	r3, [r7, #4]
 8004a36:	2201      	movs	r2, #1
 8004a38:	f883 2041 	strb.w	r2, [r3, #65]	@ 0x41
  TIM_CHANNEL_N_STATE_SET_ALL(htim, HAL_TIM_CHANNEL_STATE_READY);
 8004a3c:	687b      	ldr	r3, [r7, #4]
 8004a3e:	2201      	movs	r2, #1
 8004a40:	f883 2042 	strb.w	r2, [r3, #66]	@ 0x42
 8004a44:	687b      	ldr	r3, [r7, #4]
 8004a46:	2201      	movs	r2, #1
 8004a48:	f883 2043 	strb.w	r2, [r3, #67]	@ 0x43
 8004a4c:	687b      	ldr	r3, [r7, #4]
 8004a4e:	2201      	movs	r2, #1
 8004a50:	f883 2044 	strb.w	r2, [r3, #68]	@ 0x44
 8004a54:	687b      	ldr	r3, [r7, #4]
 8004a56:	2201      	movs	r2, #1
 8004a58:	f883 2045 	strb.w	r2, [r3, #69]	@ 0x45

  /* Initialize the TIM state*/
  htim->State = HAL_TIM_STATE_READY;
 8004a5c:	687b      	ldr	r3, [r7, #4]
 8004a5e:	2201      	movs	r2, #1
 8004a60:	f883 203d 	strb.w	r2, [r3, #61]	@ 0x3d

  return HAL_OK;
 8004a64:	2300      	movs	r3, #0
}
 8004a66:	4618      	mov	r0, r3
 8004a68:	3708      	adds	r7, #8
 8004a6a:	46bd      	mov	sp, r7
 8004a6c:	bd80      	pop	{r7, pc}

08004a6e <HAL_TIM_PWM_MspInit>:
  * @brief  Initializes the TIM PWM MSP.
  * @param  htim TIM PWM handle
  * @retval None
  */
__weak void HAL_TIM_PWM_MspInit(TIM_HandleTypeDef *htim)
{
 8004a6e:	b480      	push	{r7}
 8004a70:	b083      	sub	sp, #12
 8004a72:	af00      	add	r7, sp, #0
 8004a74:	6078      	str	r0, [r7, #4]
  UNUSED(htim);

  /* NOTE : This function should not be modified, when the callback is needed,
            the HAL_TIM_PWM_MspInit could be implemented in the user file
   */
}
 8004a76:	bf00      	nop
 8004a78:	370c      	adds	r7, #12
 8004a7a:	46bd      	mov	sp, r7
 8004a7c:	bc80      	pop	{r7}
 8004a7e:	4770      	bx	lr

08004a80 <HAL_TIM_PWM_Start>:
  *            @arg TIM_CHANNEL_3: TIM Channel 3 selected
  *            @arg TIM_CHANNEL_4: TIM Channel 4 selected
  * @retval HAL status
  */
HAL_StatusTypeDef HAL_TIM_PWM_Start(TIM_HandleTypeDef *htim, uint32_t Channel)
{
 8004a80:	b580      	push	{r7, lr}
 8004a82:	b084      	sub	sp, #16
 8004a84:	af00      	add	r7, sp, #0
 8004a86:	6078      	str	r0, [r7, #4]
 8004a88:	6039      	str	r1, [r7, #0]

  /* Check the parameters */
  assert_param(IS_TIM_CCX_INSTANCE(htim->Instance, Channel));

  /* Check the TIM channel state */
  if (TIM_CHANNEL_STATE_GET(htim, Channel) != HAL_TIM_CHANNEL_STATE_READY)
 8004a8a:	683b      	ldr	r3, [r7, #0]
 8004a8c:	2b00      	cmp	r3, #0
 8004a8e:	d109      	bne.n	8004aa4 <HAL_TIM_PWM_Start+0x24>
 8004a90:	687b      	ldr	r3, [r7, #4]
 8004a92:	f893 303e 	ldrb.w	r3, [r3, #62]	@ 0x3e
 8004a96:	b2db      	uxtb	r3, r3
 8004a98:	2b01      	cmp	r3, #1
 8004a9a:	bf14      	ite	ne
 8004a9c:	2301      	movne	r3, #1
 8004a9e:	2300      	moveq	r3, #0
 8004aa0:	b2db      	uxtb	r3, r3
 8004aa2:	e022      	b.n	8004aea <HAL_TIM_PWM_Start+0x6a>
 8004aa4:	683b      	ldr	r3, [r7, #0]
 8004aa6:	2b04      	cmp	r3, #4
 8004aa8:	d109      	bne.n	8004abe <HAL_TIM_PWM_Start+0x3e>
 8004aaa:	687b      	ldr	r3, [r7, #4]
 8004aac:	f893 303f 	ldrb.w	r3, [r3, #63]	@ 0x3f
 8004ab0:	b2db      	uxtb	r3, r3
 8004ab2:	2b01      	cmp	r3, #1
 8004ab4:	bf14      	ite	ne
 8004ab6:	2301      	movne	r3, #1
 8004ab8:	2300      	moveq	r3, #0
 8004aba:	b2db      	uxtb	r3, r3
 8004abc:	e015      	b.n	8004aea <HAL_TIM_PWM_Start+0x6a>
 8004abe:	683b      	ldr	r3, [r7, #0]
 8004ac0:	2b08      	cmp	r3, #8
 8004ac2:	d109      	bne.n	8004ad8 <HAL_TIM_PWM_Start+0x58>
 8004ac4:	687b      	ldr	r3, [r7, #4]
 8004ac6:	f893 3040 	ldrb.w	r3, [r3, #64]	@ 0x40
 8004aca:	b2db      	uxtb	r3, r3
 8004acc:	2b01      	cmp	r3, #1
 8004ace:	bf14      	ite	ne
 8004ad0:	2301      	movne	r3, #1
 8004ad2:	2300      	moveq	r3, #0
 8004ad4:	b2db      	uxtb	r3, r3
 8004ad6:	e008      	b.n	8004aea <HAL_TIM_PWM_Start+0x6a>
 8004ad8:	687b      	ldr	r3, [r7, #4]
 8004ada:	f893 3041 	ldrb.w	r3, [r3, #65]	@ 0x41
 8004ade:	b2db      	uxtb	r3, r3
 8004ae0:	2b01      	cmp	r3, #1
 8004ae2:	bf14      	ite	ne
 8004ae4:	2301      	movne	r3, #1
 8004ae6:	2300      	moveq	r3, #0
 8004ae8:	b2db      	uxtb	r3, r3
 8004aea:	2b00      	cmp	r3, #0
 8004aec:	d001      	beq.n	8004af2 <HAL_TIM_PWM_Start+0x72>
  {
    return HAL_ERROR;
 8004aee:	2301      	movs	r3, #1
 8004af0:	e059      	b.n	8004ba6 <HAL_TIM_PWM_Start+0x126>
  }

  /* Set the TIM channel state */
  TIM_CHANNEL_STATE_SET(htim, Channel, HAL_TIM_CHANNEL_STATE_BUSY);
 8004af2:	683b      	ldr	r3, [r7, #0]
 8004af4:	2b00      	cmp	r3, #0
 8004af6:	d104      	bne.n	8004b02 <HAL_TIM_PWM_Start+0x82>
 8004af8:	687b      	ldr	r3, [r7, #4]
 8004afa:	2202      	movs	r2, #2
 8004afc:	f883 203e 	strb.w	r2, [r3, #62]	@ 0x3e
 8004b00:	e013      	b.n	8004b2a <HAL_TIM_PWM_Start+0xaa>
 8004b02:	683b      	ldr	r3, [r7, #0]
 8004b04:	2b04      	cmp	r3, #4
 8004b06:	d104      	bne.n	8004b12 <HAL_TIM_PWM_Start+0x92>
 8004b08:	687b      	ldr	r3, [r7, #4]
 8004b0a:	2202      	movs	r2, #2
 8004b0c:	f883 203f 	strb.w	r2, [r3, #63]	@ 0x3f
 8004b10:	e00b      	b.n	8004b2a <HAL_TIM_PWM_Start+0xaa>
 8004b12:	683b      	ldr	r3, [r7, #0]
 8004b14:	2b08      	cmp	r3, #8
 8004b16:	d104      	bne.n	8004b22 <HAL_TIM_PWM_Start+0xa2>
 8004b18:	687b      	ldr	r3, [r7, #4]
 8004b1a:	2202      	movs	r2, #2
 8004b1c:	f883 2040 	strb.w	r2, [r3, #64]	@ 0x40
 8004b20:	e003      	b.n	8004b2a <HAL_TIM_PWM_Start+0xaa>
 8004b22:	687b      	ldr	r3, [r7, #4]
 8004b24:	2202      	movs	r2, #2
 8004b26:	f883 2041 	strb.w	r2, [r3, #65]	@ 0x41

  /* Enable the Capture compare channel */
  TIM_CCxChannelCmd(htim->Instance, Channel, TIM_CCx_ENABLE);
 8004b2a:	687b      	ldr	r3, [r7, #4]
 8004b2c:	681b      	ldr	r3, [r3, #0]
 8004b2e:	2201      	movs	r2, #1
 8004b30:	6839      	ldr	r1, [r7, #0]
 8004b32:	4618      	mov	r0, r3
 8004b34:	f000 fd60 	bl	80055f8 <TIM_CCxChannelCmd>

  if (IS_TIM_BREAK_INSTANCE(htim->Instance) != RESET)
 8004b38:	687b      	ldr	r3, [r7, #4]
 8004b3a:	681b      	ldr	r3, [r3, #0]
 8004b3c:	4a1c      	ldr	r2, [pc, #112]	@ (8004bb0 <HAL_TIM_PWM_Start+0x130>)
 8004b3e:	4293      	cmp	r3, r2
 8004b40:	d107      	bne.n	8004b52 <HAL_TIM_PWM_Start+0xd2>
  {
    /* Enable the main output */
    __HAL_TIM_MOE_ENABLE(htim);
 8004b42:	687b      	ldr	r3, [r7, #4]
 8004b44:	681b      	ldr	r3, [r3, #0]
 8004b46:	6c5a      	ldr	r2, [r3, #68]	@ 0x44
 8004b48:	687b      	ldr	r3, [r7, #4]
 8004b4a:	681b      	ldr	r3, [r3, #0]
 8004b4c:	f442 4200 	orr.w	r2, r2, #32768	@ 0x8000
 8004b50:	645a      	str	r2, [r3, #68]	@ 0x44
  }

  /* Enable the Peripheral, except in trigger mode where enable is automatically done with trigger */
  if (IS_TIM_SLAVE_INSTANCE(htim->Instance))
 8004b52:	687b      	ldr	r3, [r7, #4]
 8004b54:	681b      	ldr	r3, [r3, #0]
 8004b56:	4a16      	ldr	r2, [pc, #88]	@ (8004bb0 <HAL_TIM_PWM_Start+0x130>)
 8004b58:	4293      	cmp	r3, r2
 8004b5a:	d009      	beq.n	8004b70 <HAL_TIM_PWM_Start+0xf0>
 8004b5c:	687b      	ldr	r3, [r7, #4]
 8004b5e:	681b      	ldr	r3, [r3, #0]
 8004b60:	f1b3 4f80 	cmp.w	r3, #1073741824	@ 0x40000000
 8004b64:	d004      	beq.n	8004b70 <HAL_TIM_PWM_Start+0xf0>
 8004b66:	687b      	ldr	r3, [r7, #4]
 8004b68:	681b      	ldr	r3, [r3, #0]
 8004b6a:	4a12      	ldr	r2, [pc, #72]	@ (8004bb4 <HAL_TIM_PWM_Start+0x134>)
 8004b6c:	4293      	cmp	r3, r2
 8004b6e:	d111      	bne.n	8004b94 <HAL_TIM_PWM_Start+0x114>
  {
    tmpsmcr = htim->Instance->SMCR & TIM_SMCR_SMS;
 8004b70:	687b      	ldr	r3, [r7, #4]
 8004b72:	681b      	ldr	r3, [r3, #0]
 8004b74:	689b      	ldr	r3, [r3, #8]
 8004b76:	f003 0307 	and.w	r3, r3, #7
 8004b7a:	60fb      	str	r3, [r7, #12]
    if (!IS_TIM_SLAVEMODE_TRIGGER_ENABLED(tmpsmcr))
 8004b7c:	68fb      	ldr	r3, [r7, #12]
 8004b7e:	2b06      	cmp	r3, #6
 8004b80:	d010      	beq.n	8004ba4 <HAL_TIM_PWM_Start+0x124>
    {
      __HAL_TIM_ENABLE(htim);
 8004b82:	687b      	ldr	r3, [r7, #4]
 8004b84:	681b      	ldr	r3, [r3, #0]
 8004b86:	681a      	ldr	r2, [r3, #0]
 8004b88:	687b      	ldr	r3, [r7, #4]
 8004b8a:	681b      	ldr	r3, [r3, #0]
 8004b8c:	f042 0201 	orr.w	r2, r2, #1
 8004b90:	601a      	str	r2, [r3, #0]
    if (!IS_TIM_SLAVEMODE_TRIGGER_ENABLED(tmpsmcr))
 8004b92:	e007      	b.n	8004ba4 <HAL_TIM_PWM_Start+0x124>
    }
  }
  else
  {
    __HAL_TIM_ENABLE(htim);
 8004b94:	687b      	ldr	r3, [r7, #4]
 8004b96:	681b      	ldr	r3, [r3, #0]
 8004b98:	681a      	ldr	r2, [r3, #0]
 8004b9a:	687b      	ldr	r3, [r7, #4]
 8004b9c:	681b      	ldr	r3, [r3, #0]
 8004b9e:	f042 0201 	orr.w	r2, r2, #1
 8004ba2:	601a      	str	r2, [r3, #0]
  }

  /* Return function status */
  return HAL_OK;
 8004ba4:	2300      	movs	r3, #0
}
 8004ba6:	4618      	mov	r0, r3
 8004ba8:	3710      	adds	r7, #16
 8004baa:	46bd      	mov	sp, r7
 8004bac:	bd80      	pop	{r7, pc}
 8004bae:	bf00      	nop
 8004bb0:	40012c00 	.word	0x40012c00
 8004bb4:	40000400 	.word	0x40000400

08004bb8 <HAL_TIM_IRQHandler>:
  * @brief  This function handles TIM interrupts requests.
  * @param  htim TIM  handle
  * @retval None
  */
void HAL_TIM_IRQHandler(TIM_HandleTypeDef *htim)
{
 8004bb8:	b580      	push	{r7, lr}
 8004bba:	b084      	sub	sp, #16
 8004bbc:	af00      	add	r7, sp, #0
 8004bbe:	6078      	str	r0, [r7, #4]
  uint32_t itsource = htim->Instance->DIER;
 8004bc0:	687b      	ldr	r3, [r7, #4]
 8004bc2:	681b      	ldr	r3, [r3, #0]
 8004bc4:	68db      	ldr	r3, [r3, #12]
 8004bc6:	60fb      	str	r3, [r7, #12]
  uint32_t itflag   = htim->Instance->SR;
 8004bc8:	687b      	ldr	r3, [r7, #4]
 8004bca:	681b      	ldr	r3, [r3, #0]
 8004bcc:	691b      	ldr	r3, [r3, #16]
 8004bce:	60bb      	str	r3, [r7, #8]

  /* Capture compare 1 event */
  if ((itflag & (TIM_FLAG_CC1)) == (TIM_FLAG_CC1))
 8004bd0:	68bb      	ldr	r3, [r7, #8]
 8004bd2:	f003 0302 	and.w	r3, r3, #2
 8004bd6:	2b00      	cmp	r3, #0
 8004bd8:	d020      	beq.n	8004c1c <HAL_TIM_IRQHandler+0x64>
  {
    if ((itsource & (TIM_IT_CC1)) == (TIM_IT_CC1))
 8004bda:	68fb      	ldr	r3, [r7, #12]
 8004bdc:	f003 0302 	and.w	r3, r3, #2
 8004be0:	2b00      	cmp	r3, #0
 8004be2:	d01b      	beq.n	8004c1c <HAL_TIM_IRQHandler+0x64>
    {
      {
        __HAL_TIM_CLEAR_FLAG(htim, TIM_FLAG_CC1);
 8004be4:	687b      	ldr	r3, [r7, #4]
 8004be6:	681b      	ldr	r3, [r3, #0]
 8004be8:	f06f 0202 	mvn.w	r2, #2
 8004bec:	611a      	str	r2, [r3, #16]
        htim->Channel = HAL_TIM_ACTIVE_CHANNEL_1;
 8004bee:	687b      	ldr	r3, [r7, #4]
 8004bf0:	2201      	movs	r2, #1
 8004bf2:	771a      	strb	r2, [r3, #28]

        /* Input capture event */
        if ((htim->Instance->CCMR1 & TIM_CCMR1_CC1S) != 0x00U)
 8004bf4:	687b      	ldr	r3, [r7, #4]
 8004bf6:	681b      	ldr	r3, [r3, #0]
 8004bf8:	699b      	ldr	r3, [r3, #24]
 8004bfa:	f003 0303 	and.w	r3, r3, #3
 8004bfe:	2b00      	cmp	r3, #0
 8004c00:	d003      	beq.n	8004c0a <HAL_TIM_IRQHandler+0x52>
        {
#if (USE_HAL_TIM_REGISTER_CALLBACKS == 1)
          htim->IC_CaptureCallback(htim);
#else
          HAL_TIM_IC_CaptureCallback(htim);
 8004c02:	6878      	ldr	r0, [r7, #4]
 8004c04:	f000 fa5a 	bl	80050bc <HAL_TIM_IC_CaptureCallback>
 8004c08:	e005      	b.n	8004c16 <HAL_TIM_IRQHandler+0x5e>
        {
#if (USE_HAL_TIM_REGISTER_CALLBACKS == 1)
          htim->OC_DelayElapsedCallback(htim);
          htim->PWM_PulseFinishedCallback(htim);
#else
          HAL_TIM_OC_DelayElapsedCallback(htim);
 8004c0a:	6878      	ldr	r0, [r7, #4]
 8004c0c:	f000 fa4d 	bl	80050aa <HAL_TIM_OC_DelayElapsedCallback>
          HAL_TIM_PWM_PulseFinishedCallback(htim);
 8004c10:	6878      	ldr	r0, [r7, #4]
 8004c12:	f000 fa5c 	bl	80050ce <HAL_TIM_PWM_PulseFinishedCallback>
#endif /* USE_HAL_TIM_REGISTER_CALLBACKS */
        }
        htim->Channel = HAL_TIM_ACTIVE_CHANNEL_CLEARED;
 8004c16:	687b      	ldr	r3, [r7, #4]
 8004c18:	2200      	movs	r2, #0
 8004c1a:	771a      	strb	r2, [r3, #28]
      }
    }
  }
  /* Capture compare 2 event */
  if ((itflag & (TIM_FLAG_CC2)) == (TIM_FLAG_CC2))
 8004c1c:	68bb      	ldr	r3, [r7, #8]
 8004c1e:	f003 0304 	and.w	r3, r3, #4
 8004c22:	2b00      	cmp	r3, #0
 8004c24:	d020      	beq.n	8004c68 <HAL_TIM_IRQHandler+0xb0>
  {
    if ((itsource & (TIM_IT_CC2)) == (TIM_IT_CC2))
 8004c26:	68fb      	ldr	r3, [r7, #12]
 8004c28:	f003 0304 	and.w	r3, r3, #4
 8004c2c:	2b00      	cmp	r3, #0
 8004c2e:	d01b      	beq.n	8004c68 <HAL_TIM_IRQHandler+0xb0>
    {
      __HAL_TIM_CLEAR_FLAG(htim, TIM_FLAG_CC2);
 8004c30:	687b      	ldr	r3, [r7, #4]
 8004c32:	681b      	ldr	r3, [r3, #0]
 8004c34:	f06f 0204 	mvn.w	r2, #4
 8004c38:	611a      	str	r2, [r3, #16]
      htim->Channel = HAL_TIM_ACTIVE_CHANNEL_2;
 8004c3a:	687b      	ldr	r3, [r7, #4]
 8004c3c:	2202      	movs	r2, #2
 8004c3e:	771a      	strb	r2, [r3, #28]
      /* Input capture event */
      if ((htim->Instance->CCMR1 & TIM_CCMR1_CC2S) != 0x00U)
 8004c40:	687b      	ldr	r3, [r7, #4]
 8004c42:	681b      	ldr	r3, [r3, #0]
 8004c44:	699b      	ldr	r3, [r3, #24]
 8004c46:	f403 7340 	and.w	r3, r3, #768	@ 0x300
 8004c4a:	2b00      	cmp	r3, #0
 8004c4c:	d003      	beq.n	8004c56 <HAL_TIM_IRQHandler+0x9e>
      {
#if (USE_HAL_TIM_REGISTER_CALLBACKS == 1)
        htim->IC_CaptureCallback(htim);
#else
        HAL_TIM_IC_CaptureCallback(htim);
 8004c4e:	6878      	ldr	r0, [r7, #4]
 8004c50:	f000 fa34 	bl	80050bc <HAL_TIM_IC_CaptureCallback>
 8004c54:	e005      	b.n	8004c62 <HAL_TIM_IRQHandler+0xaa>
      {
#if (USE_HAL_TIM_REGISTER_CALLBACKS == 1)
        htim->OC_DelayElapsedCallback(htim);
        htim->PWM_PulseFinishedCallback(htim);
#else
        HAL_TIM_OC_DelayElapsedCallback(htim);
 8004c56:	6878      	ldr	r0, [r7, #4]
 8004c58:	f000 fa27 	bl	80050aa <HAL_TIM_OC_DelayElapsedCallback>
        HAL_TIM_PWM_PulseFinishedCallback(htim);
 8004c5c:	6878      	ldr	r0, [r7, #4]
 8004c5e:	f000 fa36 	bl	80050ce <HAL_TIM_PWM_PulseFinishedCallback>
#endif /* USE_HAL_TIM_REGISTER_CALLBACKS */
      }
      htim->Channel = HAL_TIM_ACTIVE_CHANNEL_CLEARED;
 8004c62:	687b      	ldr	r3, [r7, #4]
 8004c64:	2200      	movs	r2, #0
 8004c66:	771a      	strb	r2, [r3, #28]
    }
  }
  /* Capture compare 3 event */
  if ((itflag & (TIM_FLAG_CC3)) == (TIM_FLAG_CC3))
 8004c68:	68bb      	ldr	r3, [r7, #8]
 8004c6a:	f003 0308 	and.w	r3, r3, #8
 8004c6e:	2b00      	cmp	r3, #0
 8004c70:	d020      	beq.n	8004cb4 <HAL_TIM_IRQHandler+0xfc>
  {
    if ((itsource & (TIM_IT_CC3)) == (TIM_IT_CC3))
 8004c72:	68fb      	ldr	r3, [r7, #12]
 8004c74:	f003 0308 	and.w	r3, r3, #8
 8004c78:	2b00      	cmp	r3, #0
 8004c7a:	d01b      	beq.n	8004cb4 <HAL_TIM_IRQHandler+0xfc>
    {
      __HAL_TIM_CLEAR_FLAG(htim, TIM_FLAG_CC3);
 8004c7c:	687b      	ldr	r3, [r7, #4]
 8004c7e:	681b      	ldr	r3, [r3, #0]
 8004c80:	f06f 0208 	mvn.w	r2, #8
 8004c84:	611a      	str	r2, [r3, #16]
      htim->Channel = HAL_TIM_ACTIVE_CHANNEL_3;
 8004c86:	687b      	ldr	r3, [r7, #4]
 8004c88:	2204      	movs	r2, #4
 8004c8a:	771a      	strb	r2, [r3, #28]
      /* Input capture event */
      if ((htim->Instance->CCMR2 & TIM_CCMR2_CC3S) != 0x00U)
 8004c8c:	687b      	ldr	r3, [r7, #4]
 8004c8e:	681b      	ldr	r3, [r3, #0]
 8004c90:	69db      	ldr	r3, [r3, #28]
 8004c92:	f003 0303 	and.w	r3, r3, #3
 8004c96:	2b00      	cmp	r3, #0
 8004c98:	d003      	beq.n	8004ca2 <HAL_TIM_IRQHandler+0xea>
      {
#if (USE_HAL_TIM_REGISTER_CALLBACKS == 1)
        htim->IC_CaptureCallback(htim);
#else
        HAL_TIM_IC_CaptureCallback(htim);
 8004c9a:	6878      	ldr	r0, [r7, #4]
 8004c9c:	f000 fa0e 	bl	80050bc <HAL_TIM_IC_CaptureCallback>
 8004ca0:	e005      	b.n	8004cae <HAL_TIM_IRQHandler+0xf6>
      {
#if (USE_HAL_TIM_REGISTER_CALLBACKS == 1)
        htim->OC_DelayElapsedCallback(htim);
        htim->PWM_PulseFinishedCallback(htim);
#else
        HAL_TIM_OC_DelayElapsedCallback(htim);
 8004ca2:	6878      	ldr	r0, [r7, #4]
 8004ca4:	f000 fa01 	bl	80050aa <HAL_TIM_OC_DelayElapsedCallback>
        HAL_TIM_PWM_PulseFinishedCallback(htim);
 8004ca8:	6878      	ldr	r0, [r7, #4]
 8004caa:	f000 fa10 	bl	80050ce <HAL_TIM_PWM_PulseFinishedCallback>
#endif /* USE_HAL_TIM_REGISTER_CALLBACKS */
      }
      htim->Channel = HAL_TIM_ACTIVE_CHANNEL_CLEARED;
 8004cae:	687b      	ldr	r3, [r7, #4]
 8004cb0:	2200      	movs	r2, #0
 8004cb2:	771a      	strb	r2, [r3, #28]
    }
  }
  /* Capture compare 4 event */
  if ((itflag & (TIM_FLAG_CC4)) == (TIM_FLAG_CC4))
 8004cb4:	68bb      	ldr	r3, [r7, #8]
 8004cb6:	f003 0310 	and.w	r3, r3, #16
 8004cba:	2b00      	cmp	r3, #0
 8004cbc:	d020      	beq.n	8004d00 <HAL_TIM_IRQHandler+0x148>
  {
    if ((itsource & (TIM_IT_CC4)) == (TIM_IT_CC4))
 8004cbe:	68fb      	ldr	r3, [r7, #12]
 8004cc0:	f003 0310 	and.w	r3, r3, #16
 8004cc4:	2b00      	cmp	r3, #0
 8004cc6:	d01b      	beq.n	8004d00 <HAL_TIM_IRQHandler+0x148>
    {
      __HAL_TIM_CLEAR_FLAG(htim, TIM_FLAG_CC4);
 8004cc8:	687b      	ldr	r3, [r7, #4]
 8004cca:	681b      	ldr	r3, [r3, #0]
 8004ccc:	f06f 0210 	mvn.w	r2, #16
 8004cd0:	611a      	str	r2, [r3, #16]
      htim->Channel = HAL_TIM_ACTIVE_CHANNEL_4;
 8004cd2:	687b      	ldr	r3, [r7, #4]
 8004cd4:	2208      	movs	r2, #8
 8004cd6:	771a      	strb	r2, [r3, #28]
      /* Input capture event */
      if ((htim->Instance->CCMR2 & TIM_CCMR2_CC4S) != 0x00U)
 8004cd8:	687b      	ldr	r3, [r7, #4]
 8004cda:	681b      	ldr	r3, [r3, #0]
 8004cdc:	69db      	ldr	r3, [r3, #28]
 8004cde:	f403 7340 	and.w	r3, r3, #768	@ 0x300
 8004ce2:	2b00      	cmp	r3, #0
 8004ce4:	d003      	beq.n	8004cee <HAL_TIM_IRQHandler+0x136>
      {
#if (USE_HAL_TIM_REGISTER_CALLBACKS == 1)
        htim->IC_CaptureCallback(htim);
#else
        HAL_TIM_IC_CaptureCallback(htim);
 8004ce6:	6878      	ldr	r0, [r7, #4]
 8004ce8:	f000 f9e8 	bl	80050bc <HAL_TIM_IC_CaptureCallback>
 8004cec:	e005      	b.n	8004cfa <HAL_TIM_IRQHandler+0x142>
      {
#if (USE_HAL_TIM_REGISTER_CALLBACKS == 1)
        htim->OC_DelayElapsedCallback(htim);
        htim->PWM_PulseFinishedCallback(htim);
#else
        HAL_TIM_OC_DelayElapsedCallback(htim);
 8004cee:	6878      	ldr	r0, [r7, #4]
 8004cf0:	f000 f9db 	bl	80050aa <HAL_TIM_OC_DelayElapsedCallback>
        HAL_TIM_PWM_PulseFinishedCallback(htim);
 8004cf4:	6878      	ldr	r0, [r7, #4]
 8004cf6:	f000 f9ea 	bl	80050ce <HAL_TIM_PWM_PulseFinishedCallback>
#endif /* USE_HAL_TIM_REGISTER_CALLBACKS */
      }
      htim->Channel = HAL_TIM_ACTIVE_CHANNEL_CLEARED;
 8004cfa:	687b      	ldr	r3, [r7, #4]
 8004cfc:	2200      	movs	r2, #0
 8004cfe:	771a      	strb	r2, [r3, #28]
    }
  }
  /* TIM Update event */
  if ((itflag & (TIM_FLAG_UPDATE)) == (TIM_FLAG_UPDATE))
 8004d00:	68bb      	ldr	r3, [r7, #8]
 8004d02:	f003 0301 	and.w	r3, r3, #1
 8004d06:	2b00      	cmp	r3, #0
 8004d08:	d00c      	beq.n	8004d24 <HAL_TIM_IRQHandler+0x16c>
  {
    if ((itsource & (TIM_IT_UPDATE)) == (TIM_IT_UPDATE))
 8004d0a:	68fb      	ldr	r3, [r7, #12]
 8004d0c:	f003 0301 	and.w	r3, r3, #1
 8004d10:	2b00      	cmp	r3, #0
 8004d12:	d007      	beq.n	8004d24 <HAL_TIM_IRQHandler+0x16c>
    {
      __HAL_TIM_CLEAR_FLAG(htim, TIM_FLAG_UPDATE);
 8004d14:	687b      	ldr	r3, [r7, #4]
 8004d16:	681b      	ldr	r3, [r3, #0]
 8004d18:	f06f 0201 	mvn.w	r2, #1
 8004d1c:	611a      	str	r2, [r3, #16]
#if (USE_HAL_TIM_REGISTER_CALLBACKS == 1)
      htim->PeriodElapsedCallback(htim);
#else
      HAL_TIM_PeriodElapsedCallback(htim);
 8004d1e:	6878      	ldr	r0, [r7, #4]
 8004d20:	f7fc ff4e 	bl	8001bc0 <HAL_TIM_PeriodElapsedCallback>
#endif /* USE_HAL_TIM_REGISTER_CALLBACKS */
    }
  }
  /* TIM Break input event */
  if ((itflag & (TIM_FLAG_BREAK)) == (TIM_FLAG_BREAK))
 8004d24:	68bb      	ldr	r3, [r7, #8]
 8004d26:	f003 0380 	and.w	r3, r3, #128	@ 0x80
 8004d2a:	2b00      	cmp	r3, #0
 8004d2c:	d00c      	beq.n	8004d48 <HAL_TIM_IRQHandler+0x190>
  {
    if ((itsource & (TIM_IT_BREAK)) == (TIM_IT_BREAK))
 8004d2e:	68fb      	ldr	r3, [r7, #12]
 8004d30:	f003 0380 	and.w	r3, r3, #128	@ 0x80
 8004d34:	2b00      	cmp	r3, #0
 8004d36:	d007      	beq.n	8004d48 <HAL_TIM_IRQHandler+0x190>
    {
      __HAL_TIM_CLEAR_FLAG(htim, TIM_FLAG_BREAK);
 8004d38:	687b      	ldr	r3, [r7, #4]
 8004d3a:	681b      	ldr	r3, [r3, #0]
 8004d3c:	f06f 0280 	mvn.w	r2, #128	@ 0x80
 8004d40:	611a      	str	r2, [r3, #16]
#if (USE_HAL_TIM_REGISTER_CALLBACKS == 1)
      htim->BreakCallback(htim);
#else
      HAL_TIMEx_BreakCallback(htim);
 8004d42:	6878      	ldr	r0, [r7, #4]
 8004d44:	f000 fd2e 	bl	80057a4 <HAL_TIMEx_BreakCallback>
#endif /* USE_HAL_TIM_REGISTER_CALLBACKS */
    }
  }
  /* TIM Trigger detection event */
  if ((itflag & (TIM_FLAG_TRIGGER)) == (TIM_FLAG_TRIGGER))
 8004d48:	68bb      	ldr	r3, [r7, #8]
 8004d4a:	f003 0340 	and.w	r3, r3, #64	@ 0x40
 8004d4e:	2b00      	cmp	r3, #0
 8004d50:	d00c      	beq.n	8004d6c <HAL_TIM_IRQHandler+0x1b4>
  {
    if ((itsource & (TIM_IT_TRIGGER)) == (TIM_IT_TRIGGER))
 8004d52:	68fb      	ldr	r3, [r7, #12]
 8004d54:	f003 0340 	and.w	r3, r3, #64	@ 0x40
 8004d58:	2b00      	cmp	r3, #0
 8004d5a:	d007      	beq.n	8004d6c <HAL_TIM_IRQHandler+0x1b4>
    {
      __HAL_TIM_CLEAR_FLAG(htim, TIM_FLAG_TRIGGER);
 8004d5c:	687b      	ldr	r3, [r7, #4]
 8004d5e:	681b      	ldr	r3, [r3, #0]
 8004d60:	f06f 0240 	mvn.w	r2, #64	@ 0x40
 8004d64:	611a      	str	r2, [r3, #16]
#if (USE_HAL_TIM_REGISTER_CALLBACKS == 1)
      htim->TriggerCallback(htim);
#else
      HAL_TIM_TriggerCallback(htim);
 8004d66:	6878      	ldr	r0, [r7, #4]
 8004d68:	f000 f9ba 	bl	80050e0 <HAL_TIM_TriggerCallback>
#endif /* USE_HAL_TIM_REGISTER_CALLBACKS */
    }
  }
  /* TIM commutation event */
  if ((itflag & (TIM_FLAG_COM)) == (TIM_FLAG_COM))
 8004d6c:	68bb      	ldr	r3, [r7, #8]
 8004d6e:	f003 0320 	and.w	r3, r3, #32
 8004d72:	2b00      	cmp	r3, #0
 8004d74:	d00c      	beq.n	8004d90 <HAL_TIM_IRQHandler+0x1d8>
  {
    if ((itsource & (TIM_IT_COM)) == (TIM_IT_COM))
 8004d76:	68fb      	ldr	r3, [r7, #12]
 8004d78:	f003 0320 	and.w	r3, r3, #32
 8004d7c:	2b00      	cmp	r3, #0
 8004d7e:	d007      	beq.n	8004d90 <HAL_TIM_IRQHandler+0x1d8>
    {
      __HAL_TIM_CLEAR_FLAG(htim, TIM_FLAG_COM);
 8004d80:	687b      	ldr	r3, [r7, #4]
 8004d82:	681b      	ldr	r3, [r3, #0]
 8004d84:	f06f 0220 	mvn.w	r2, #32
 8004d88:	611a      	str	r2, [r3, #16]
#if (USE_HAL_TIM_REGISTER_CALLBACKS == 1)
      htim->CommutationCallback(htim);
#else
      HAL_TIMEx_CommutCallback(htim);
 8004d8a:	6878      	ldr	r0, [r7, #4]
 8004d8c:	f000 fd01 	bl	8005792 <HAL_TIMEx_CommutCallback>
#endif /* USE_HAL_TIM_REGISTER_CALLBACKS */
    }
  }
}
 8004d90:	bf00      	nop
 8004d92:	3710      	adds	r7, #16
 8004d94:	46bd      	mov	sp, r7
 8004d96:	bd80      	pop	{r7, pc}

08004d98 <HAL_TIM_PWM_ConfigChannel>:
  * @retval HAL status
  */
HAL_StatusTypeDef HAL_TIM_PWM_ConfigChannel(TIM_HandleTypeDef *htim,
                                            const TIM_OC_InitTypeDef *sConfig,
                                            uint32_t Channel)
{
 8004d98:	b580      	push	{r7, lr}
 8004d9a:	b086      	sub	sp, #24
 8004d9c:	af00      	add	r7, sp, #0
 8004d9e:	60f8      	str	r0, [r7, #12]
 8004da0:	60b9      	str	r1, [r7, #8]
 8004da2:	607a      	str	r2, [r7, #4]
  HAL_StatusTypeDef status = HAL_OK;
 8004da4:	2300      	movs	r3, #0
 8004da6:	75fb      	strb	r3, [r7, #23]
  assert_param(IS_TIM_PWM_MODE(sConfig->OCMode));
  assert_param(IS_TIM_OC_POLARITY(sConfig->OCPolarity));
  assert_param(IS_TIM_FAST_STATE(sConfig->OCFastMode));

  /* Process Locked */
  __HAL_LOCK(htim);
 8004da8:	68fb      	ldr	r3, [r7, #12]
 8004daa:	f893 303c 	ldrb.w	r3, [r3, #60]	@ 0x3c
 8004dae:	2b01      	cmp	r3, #1
 8004db0:	d101      	bne.n	8004db6 <HAL_TIM_PWM_ConfigChannel+0x1e>
 8004db2:	2302      	movs	r3, #2
 8004db4:	e0ae      	b.n	8004f14 <HAL_TIM_PWM_ConfigChannel+0x17c>
 8004db6:	68fb      	ldr	r3, [r7, #12]
 8004db8:	2201      	movs	r2, #1
 8004dba:	f883 203c 	strb.w	r2, [r3, #60]	@ 0x3c

  switch (Channel)
 8004dbe:	687b      	ldr	r3, [r7, #4]
 8004dc0:	2b0c      	cmp	r3, #12
 8004dc2:	f200 809f 	bhi.w	8004f04 <HAL_TIM_PWM_ConfigChannel+0x16c>
 8004dc6:	a201      	add	r2, pc, #4	@ (adr r2, 8004dcc <HAL_TIM_PWM_ConfigChannel+0x34>)
 8004dc8:	f852 f023 	ldr.w	pc, [r2, r3, lsl #2]
 8004dcc:	08004e01 	.word	0x08004e01
 8004dd0:	08004f05 	.word	0x08004f05
 8004dd4:	08004f05 	.word	0x08004f05
 8004dd8:	08004f05 	.word	0x08004f05
 8004ddc:	08004e41 	.word	0x08004e41
 8004de0:	08004f05 	.word	0x08004f05
 8004de4:	08004f05 	.word	0x08004f05
 8004de8:	08004f05 	.word	0x08004f05
 8004dec:	08004e83 	.word	0x08004e83
 8004df0:	08004f05 	.word	0x08004f05
 8004df4:	08004f05 	.word	0x08004f05
 8004df8:	08004f05 	.word	0x08004f05
 8004dfc:	08004ec3 	.word	0x08004ec3
    {
      /* Check the parameters */
      assert_param(IS_TIM_CC1_INSTANCE(htim->Instance));

      /* Configure the Channel 1 in PWM mode */
      TIM_OC1_SetConfig(htim->Instance, sConfig);
 8004e00:	68fb      	ldr	r3, [r7, #12]
 8004e02:	681b      	ldr	r3, [r3, #0]
 8004e04:	68b9      	ldr	r1, [r7, #8]
 8004e06:	4618      	mov	r0, r3
 8004e08:	f000 f9d8 	bl	80051bc <TIM_OC1_SetConfig>

      /* Set the Preload enable bit for channel1 */
      htim->Instance->CCMR1 |= TIM_CCMR1_OC1PE;
 8004e0c:	68fb      	ldr	r3, [r7, #12]
 8004e0e:	681b      	ldr	r3, [r3, #0]
 8004e10:	699a      	ldr	r2, [r3, #24]
 8004e12:	68fb      	ldr	r3, [r7, #12]
 8004e14:	681b      	ldr	r3, [r3, #0]
 8004e16:	f042 0208 	orr.w	r2, r2, #8
 8004e1a:	619a      	str	r2, [r3, #24]

      /* Configure the Output Fast mode */
      htim->Instance->CCMR1 &= ~TIM_CCMR1_OC1FE;
 8004e1c:	68fb      	ldr	r3, [r7, #12]
 8004e1e:	681b      	ldr	r3, [r3, #0]
 8004e20:	699a      	ldr	r2, [r3, #24]
 8004e22:	68fb      	ldr	r3, [r7, #12]
 8004e24:	681b      	ldr	r3, [r3, #0]
 8004e26:	f022 0204 	bic.w	r2, r2, #4
 8004e2a:	619a      	str	r2, [r3, #24]
      htim->Instance->CCMR1 |= sConfig->OCFastMode;
 8004e2c:	68fb      	ldr	r3, [r7, #12]
 8004e2e:	681b      	ldr	r3, [r3, #0]
 8004e30:	6999      	ldr	r1, [r3, #24]
 8004e32:	68bb      	ldr	r3, [r7, #8]
 8004e34:	691a      	ldr	r2, [r3, #16]
 8004e36:	68fb      	ldr	r3, [r7, #12]
 8004e38:	681b      	ldr	r3, [r3, #0]
 8004e3a:	430a      	orrs	r2, r1
 8004e3c:	619a      	str	r2, [r3, #24]
      break;
 8004e3e:	e064      	b.n	8004f0a <HAL_TIM_PWM_ConfigChannel+0x172>
    {
      /* Check the parameters */
      assert_param(IS_TIM_CC2_INSTANCE(htim->Instance));

      /* Configure the Channel 2 in PWM mode */
      TIM_OC2_SetConfig(htim->Instance, sConfig);
 8004e40:	68fb      	ldr	r3, [r7, #12]
 8004e42:	681b      	ldr	r3, [r3, #0]
 8004e44:	68b9      	ldr	r1, [r7, #8]
 8004e46:	4618      	mov	r0, r3
 8004e48:	f000 fa1e 	bl	8005288 <TIM_OC2_SetConfig>

      /* Set the Preload enable bit for channel2 */
      htim->Instance->CCMR1 |= TIM_CCMR1_OC2PE;
 8004e4c:	68fb      	ldr	r3, [r7, #12]
 8004e4e:	681b      	ldr	r3, [r3, #0]
 8004e50:	699a      	ldr	r2, [r3, #24]
 8004e52:	68fb      	ldr	r3, [r7, #12]
 8004e54:	681b      	ldr	r3, [r3, #0]
 8004e56:	f442 6200 	orr.w	r2, r2, #2048	@ 0x800
 8004e5a:	619a      	str	r2, [r3, #24]

      /* Configure the Output Fast mode */
      htim->Instance->CCMR1 &= ~TIM_CCMR1_OC2FE;
 8004e5c:	68fb      	ldr	r3, [r7, #12]
 8004e5e:	681b      	ldr	r3, [r3, #0]
 8004e60:	699a      	ldr	r2, [r3, #24]
 8004e62:	68fb      	ldr	r3, [r7, #12]
 8004e64:	681b      	ldr	r3, [r3, #0]
 8004e66:	f422 6280 	bic.w	r2, r2, #1024	@ 0x400
 8004e6a:	619a      	str	r2, [r3, #24]
      htim->Instance->CCMR1 |= sConfig->OCFastMode << 8U;
 8004e6c:	68fb      	ldr	r3, [r7, #12]
 8004e6e:	681b      	ldr	r3, [r3, #0]
 8004e70:	6999      	ldr	r1, [r3, #24]
 8004e72:	68bb      	ldr	r3, [r7, #8]
 8004e74:	691b      	ldr	r3, [r3, #16]
 8004e76:	021a      	lsls	r2, r3, #8
 8004e78:	68fb      	ldr	r3, [r7, #12]
 8004e7a:	681b      	ldr	r3, [r3, #0]
 8004e7c:	430a      	orrs	r2, r1
 8004e7e:	619a      	str	r2, [r3, #24]
      break;
 8004e80:	e043      	b.n	8004f0a <HAL_TIM_PWM_ConfigChannel+0x172>
    {
      /* Check the parameters */
      assert_param(IS_TIM_CC3_INSTANCE(htim->Instance));

      /* Configure the Channel 3 in PWM mode */
      TIM_OC3_SetConfig(htim->Instance, sConfig);
 8004e82:	68fb      	ldr	r3, [r7, #12]
 8004e84:	681b      	ldr	r3, [r3, #0]
 8004e86:	68b9      	ldr	r1, [r7, #8]
 8004e88:	4618      	mov	r0, r3
 8004e8a:	f000 fa67 	bl	800535c <TIM_OC3_SetConfig>

      /* Set the Preload enable bit for channel3 */
      htim->Instance->CCMR2 |= TIM_CCMR2_OC3PE;
 8004e8e:	68fb      	ldr	r3, [r7, #12]
 8004e90:	681b      	ldr	r3, [r3, #0]
 8004e92:	69da      	ldr	r2, [r3, #28]
 8004e94:	68fb      	ldr	r3, [r7, #12]
 8004e96:	681b      	ldr	r3, [r3, #0]
 8004e98:	f042 0208 	orr.w	r2, r2, #8
 8004e9c:	61da      	str	r2, [r3, #28]

      /* Configure the Output Fast mode */
      htim->Instance->CCMR2 &= ~TIM_CCMR2_OC3FE;
 8004e9e:	68fb      	ldr	r3, [r7, #12]
 8004ea0:	681b      	ldr	r3, [r3, #0]
 8004ea2:	69da      	ldr	r2, [r3, #28]
 8004ea4:	68fb      	ldr	r3, [r7, #12]
 8004ea6:	681b      	ldr	r3, [r3, #0]
 8004ea8:	f022 0204 	bic.w	r2, r2, #4
 8004eac:	61da      	str	r2, [r3, #28]
      htim->Instance->CCMR2 |= sConfig->OCFastMode;
 8004eae:	68fb      	ldr	r3, [r7, #12]
 8004eb0:	681b      	ldr	r3, [r3, #0]
 8004eb2:	69d9      	ldr	r1, [r3, #28]
 8004eb4:	68bb      	ldr	r3, [r7, #8]
 8004eb6:	691a      	ldr	r2, [r3, #16]
 8004eb8:	68fb      	ldr	r3, [r7, #12]
 8004eba:	681b      	ldr	r3, [r3, #0]
 8004ebc:	430a      	orrs	r2, r1
 8004ebe:	61da      	str	r2, [r3, #28]
      break;
 8004ec0:	e023      	b.n	8004f0a <HAL_TIM_PWM_ConfigChannel+0x172>
    {
      /* Check the parameters */
      assert_param(IS_TIM_CC4_INSTANCE(htim->Instance));

      /* Configure the Channel 4 in PWM mode */
      TIM_OC4_SetConfig(htim->Instance, sConfig);
 8004ec2:	68fb      	ldr	r3, [r7, #12]
 8004ec4:	681b      	ldr	r3, [r3, #0]
 8004ec6:	68b9      	ldr	r1, [r7, #8]
 8004ec8:	4618      	mov	r0, r3
 8004eca:	f000 fab1 	bl	8005430 <TIM_OC4_SetConfig>

      /* Set the Preload enable bit for channel4 */
      htim->Instance->CCMR2 |= TIM_CCMR2_OC4PE;
 8004ece:	68fb      	ldr	r3, [r7, #12]
 8004ed0:	681b      	ldr	r3, [r3, #0]
 8004ed2:	69da      	ldr	r2, [r3, #28]
 8004ed4:	68fb      	ldr	r3, [r7, #12]
 8004ed6:	681b      	ldr	r3, [r3, #0]
 8004ed8:	f442 6200 	orr.w	r2, r2, #2048	@ 0x800
 8004edc:	61da      	str	r2, [r3, #28]

      /* Configure the Output Fast mode */
      htim->Instance->CCMR2 &= ~TIM_CCMR2_OC4FE;
 8004ede:	68fb      	ldr	r3, [r7, #12]
 8004ee0:	681b      	ldr	r3, [r3, #0]
 8004ee2:	69da      	ldr	r2, [r3, #28]
 8004ee4:	68fb      	ldr	r3, [r7, #12]
 8004ee6:	681b      	ldr	r3, [r3, #0]
 8004ee8:	f422 6280 	bic.w	r2, r2, #1024	@ 0x400
 8004eec:	61da      	str	r2, [r3, #28]
      htim->Instance->CCMR2 |= sConfig->OCFastMode << 8U;
 8004eee:	68fb      	ldr	r3, [r7, #12]
 8004ef0:	681b      	ldr	r3, [r3, #0]
 8004ef2:	69d9      	ldr	r1, [r3, #28]
 8004ef4:	68bb      	ldr	r3, [r7, #8]
 8004ef6:	691b      	ldr	r3, [r3, #16]
 8004ef8:	021a      	lsls	r2, r3, #8
 8004efa:	68fb      	ldr	r3, [r7, #12]
 8004efc:	681b      	ldr	r3, [r3, #0]
 8004efe:	430a      	orrs	r2, r1
 8004f00:	61da      	str	r2, [r3, #28]
      break;
 8004f02:	e002      	b.n	8004f0a <HAL_TIM_PWM_ConfigChannel+0x172>
    }

    default:
      status = HAL_ERROR;
 8004f04:	2301      	movs	r3, #1
 8004f06:	75fb      	strb	r3, [r7, #23]
      break;
 8004f08:	bf00      	nop
  }

  __HAL_UNLOCK(htim);
 8004f0a:	68fb      	ldr	r3, [r7, #12]
 8004f0c:	2200      	movs	r2, #0
 8004f0e:	f883 203c 	strb.w	r2, [r3, #60]	@ 0x3c

  return status;
 8004f12:	7dfb      	ldrb	r3, [r7, #23]
}
 8004f14:	4618      	mov	r0, r3
 8004f16:	3718      	adds	r7, #24
 8004f18:	46bd      	mov	sp, r7
 8004f1a:	bd80      	pop	{r7, pc}

08004f1c <HAL_TIM_ConfigClockSource>:
  * @param  sClockSourceConfig pointer to a TIM_ClockConfigTypeDef structure that
  *         contains the clock source information for the TIM peripheral.
  * @retval HAL status
  */
HAL_StatusTypeDef HAL_TIM_ConfigClockSource(TIM_HandleTypeDef *htim, const TIM_ClockConfigTypeDef *sClockSourceConfig)
{
 8004f1c:	b580      	push	{r7, lr}
 8004f1e:	b084      	sub	sp, #16
 8004f20:	af00      	add	r7, sp, #0
 8004f22:	6078      	str	r0, [r7, #4]
 8004f24:	6039      	str	r1, [r7, #0]
  HAL_StatusTypeDef status = HAL_OK;
 8004f26:	2300      	movs	r3, #0
 8004f28:	73fb      	strb	r3, [r7, #15]
  uint32_t tmpsmcr;

  /* Process Locked */
  __HAL_LOCK(htim);
 8004f2a:	687b      	ldr	r3, [r7, #4]
 8004f2c:	f893 303c 	ldrb.w	r3, [r3, #60]	@ 0x3c
 8004f30:	2b01      	cmp	r3, #1
 8004f32:	d101      	bne.n	8004f38 <HAL_TIM_ConfigClockSource+0x1c>
 8004f34:	2302      	movs	r3, #2
 8004f36:	e0b4      	b.n	80050a2 <HAL_TIM_ConfigClockSource+0x186>
 8004f38:	687b      	ldr	r3, [r7, #4]
 8004f3a:	2201      	movs	r2, #1
 8004f3c:	f883 203c 	strb.w	r2, [r3, #60]	@ 0x3c

  htim->State = HAL_TIM_STATE_BUSY;
 8004f40:	687b      	ldr	r3, [r7, #4]
 8004f42:	2202      	movs	r2, #2
 8004f44:	f883 203d 	strb.w	r2, [r3, #61]	@ 0x3d

  /* Check the parameters */
  assert_param(IS_TIM_CLOCKSOURCE(sClockSourceConfig->ClockSource));

  /* Reset the SMS, TS, ECE, ETPS and ETRF bits */
  tmpsmcr = htim->Instance->SMCR;
 8004f48:	687b      	ldr	r3, [r7, #4]
 8004f4a:	681b      	ldr	r3, [r3, #0]
 8004f4c:	689b      	ldr	r3, [r3, #8]
 8004f4e:	60bb      	str	r3, [r7, #8]
  tmpsmcr &= ~(TIM_SMCR_SMS | TIM_SMCR_TS);
 8004f50:	68bb      	ldr	r3, [r7, #8]
 8004f52:	f023 0377 	bic.w	r3, r3, #119	@ 0x77
 8004f56:	60bb      	str	r3, [r7, #8]
  tmpsmcr &= ~(TIM_SMCR_ETF | TIM_SMCR_ETPS | TIM_SMCR_ECE | TIM_SMCR_ETP);
 8004f58:	68bb      	ldr	r3, [r7, #8]
 8004f5a:	f423 437f 	bic.w	r3, r3, #65280	@ 0xff00
 8004f5e:	60bb      	str	r3, [r7, #8]
  htim->Instance->SMCR = tmpsmcr;
 8004f60:	687b      	ldr	r3, [r7, #4]
 8004f62:	681b      	ldr	r3, [r3, #0]
 8004f64:	68ba      	ldr	r2, [r7, #8]
 8004f66:	609a      	str	r2, [r3, #8]

  switch (sClockSourceConfig->ClockSource)
 8004f68:	683b      	ldr	r3, [r7, #0]
 8004f6a:	681b      	ldr	r3, [r3, #0]
 8004f6c:	f5b3 5f00 	cmp.w	r3, #8192	@ 0x2000
 8004f70:	d03e      	beq.n	8004ff0 <HAL_TIM_ConfigClockSource+0xd4>
 8004f72:	f5b3 5f00 	cmp.w	r3, #8192	@ 0x2000
 8004f76:	f200 8087 	bhi.w	8005088 <HAL_TIM_ConfigClockSource+0x16c>
 8004f7a:	f5b3 5f80 	cmp.w	r3, #4096	@ 0x1000
 8004f7e:	f000 8086 	beq.w	800508e <HAL_TIM_ConfigClockSource+0x172>
 8004f82:	f5b3 5f80 	cmp.w	r3, #4096	@ 0x1000
 8004f86:	d87f      	bhi.n	8005088 <HAL_TIM_ConfigClockSource+0x16c>
 8004f88:	2b70      	cmp	r3, #112	@ 0x70
 8004f8a:	d01a      	beq.n	8004fc2 <HAL_TIM_ConfigClockSource+0xa6>
 8004f8c:	2b70      	cmp	r3, #112	@ 0x70
 8004f8e:	d87b      	bhi.n	8005088 <HAL_TIM_ConfigClockSource+0x16c>
 8004f90:	2b60      	cmp	r3, #96	@ 0x60
 8004f92:	d050      	beq.n	8005036 <HAL_TIM_ConfigClockSource+0x11a>
 8004f94:	2b60      	cmp	r3, #96	@ 0x60
 8004f96:	d877      	bhi.n	8005088 <HAL_TIM_ConfigClockSource+0x16c>
 8004f98:	2b50      	cmp	r3, #80	@ 0x50
 8004f9a:	d03c      	beq.n	8005016 <HAL_TIM_ConfigClockSource+0xfa>
 8004f9c:	2b50      	cmp	r3, #80	@ 0x50
 8004f9e:	d873      	bhi.n	8005088 <HAL_TIM_ConfigClockSource+0x16c>
 8004fa0:	2b40      	cmp	r3, #64	@ 0x40
 8004fa2:	d058      	beq.n	8005056 <HAL_TIM_ConfigClockSource+0x13a>
 8004fa4:	2b40      	cmp	r3, #64	@ 0x40
 8004fa6:	d86f      	bhi.n	8005088 <HAL_TIM_ConfigClockSource+0x16c>
 8004fa8:	2b30      	cmp	r3, #48	@ 0x30
 8004faa:	d064      	beq.n	8005076 <HAL_TIM_ConfigClockSource+0x15a>
 8004fac:	2b30      	cmp	r3, #48	@ 0x30
 8004fae:	d86b      	bhi.n	8005088 <HAL_TIM_ConfigClockSource+0x16c>
 8004fb0:	2b20      	cmp	r3, #32
 8004fb2:	d060      	beq.n	8005076 <HAL_TIM_ConfigClockSource+0x15a>
 8004fb4:	2b20      	cmp	r3, #32
 8004fb6:	d867      	bhi.n	8005088 <HAL_TIM_ConfigClockSource+0x16c>
 8004fb8:	2b00      	cmp	r3, #0
 8004fba:	d05c      	beq.n	8005076 <HAL_TIM_ConfigClockSource+0x15a>
 8004fbc:	2b10      	cmp	r3, #16
 8004fbe:	d05a      	beq.n	8005076 <HAL_TIM_ConfigClockSource+0x15a>
 8004fc0:	e062      	b.n	8005088 <HAL_TIM_ConfigClockSource+0x16c>
      assert_param(IS_TIM_CLOCKPRESCALER(sClockSourceConfig->ClockPrescaler));
      assert_param(IS_TIM_CLOCKPOLARITY(sClockSourceConfig->ClockPolarity));
      assert_param(IS_TIM_CLOCKFILTER(sClockSourceConfig->ClockFilter));

      /* Configure the ETR Clock source */
      TIM_ETR_SetConfig(htim->Instance,
 8004fc2:	687b      	ldr	r3, [r7, #4]
 8004fc4:	6818      	ldr	r0, [r3, #0]
                        sClockSourceConfig->ClockPrescaler,
 8004fc6:	683b      	ldr	r3, [r7, #0]
 8004fc8:	6899      	ldr	r1, [r3, #8]
                        sClockSourceConfig->ClockPolarity,
 8004fca:	683b      	ldr	r3, [r7, #0]
 8004fcc:	685a      	ldr	r2, [r3, #4]
                        sClockSourceConfig->ClockFilter);
 8004fce:	683b      	ldr	r3, [r7, #0]
 8004fd0:	68db      	ldr	r3, [r3, #12]
      TIM_ETR_SetConfig(htim->Instance,
 8004fd2:	f000 faf2 	bl	80055ba <TIM_ETR_SetConfig>

      /* Select the External clock mode1 and the ETRF trigger */
      tmpsmcr = htim->Instance->SMCR;
 8004fd6:	687b      	ldr	r3, [r7, #4]
 8004fd8:	681b      	ldr	r3, [r3, #0]
 8004fda:	689b      	ldr	r3, [r3, #8]
 8004fdc:	60bb      	str	r3, [r7, #8]
      tmpsmcr |= (TIM_SLAVEMODE_EXTERNAL1 | TIM_CLOCKSOURCE_ETRMODE1);
 8004fde:	68bb      	ldr	r3, [r7, #8]
 8004fe0:	f043 0377 	orr.w	r3, r3, #119	@ 0x77
 8004fe4:	60bb      	str	r3, [r7, #8]
      /* Write to TIMx SMCR */
      htim->Instance->SMCR = tmpsmcr;
 8004fe6:	687b      	ldr	r3, [r7, #4]
 8004fe8:	681b      	ldr	r3, [r3, #0]
 8004fea:	68ba      	ldr	r2, [r7, #8]
 8004fec:	609a      	str	r2, [r3, #8]
      break;
 8004fee:	e04f      	b.n	8005090 <HAL_TIM_ConfigClockSource+0x174>
      assert_param(IS_TIM_CLOCKPRESCALER(sClockSourceConfig->ClockPrescaler));
      assert_param(IS_TIM_CLOCKPOLARITY(sClockSourceConfig->ClockPolarity));
      assert_param(IS_TIM_CLOCKFILTER(sClockSourceConfig->ClockFilter));

      /* Configure the ETR Clock source */
      TIM_ETR_SetConfig(htim->Instance,
 8004ff0:	687b      	ldr	r3, [r7, #4]
 8004ff2:	6818      	ldr	r0, [r3, #0]
                        sClockSourceConfig->ClockPrescaler,
 8004ff4:	683b      	ldr	r3, [r7, #0]
 8004ff6:	6899      	ldr	r1, [r3, #8]
                        sClockSourceConfig->ClockPolarity,
 8004ff8:	683b      	ldr	r3, [r7, #0]
 8004ffa:	685a      	ldr	r2, [r3, #4]
                        sClockSourceConfig->ClockFilter);
 8004ffc:	683b      	ldr	r3, [r7, #0]
 8004ffe:	68db      	ldr	r3, [r3, #12]
      TIM_ETR_SetConfig(htim->Instance,
 8005000:	f000 fadb 	bl	80055ba <TIM_ETR_SetConfig>
      /* Enable the External clock mode2 */
      htim->Instance->SMCR |= TIM_SMCR_ECE;
 8005004:	687b      	ldr	r3, [r7, #4]
 8005006:	681b      	ldr	r3, [r3, #0]
 8005008:	689a      	ldr	r2, [r3, #8]
 800500a:	687b      	ldr	r3, [r7, #4]
 800500c:	681b      	ldr	r3, [r3, #0]
 800500e:	f442 4280 	orr.w	r2, r2, #16384	@ 0x4000
 8005012:	609a      	str	r2, [r3, #8]
      break;
 8005014:	e03c      	b.n	8005090 <HAL_TIM_ConfigClockSource+0x174>

      /* Check TI1 input conditioning related parameters */
      assert_param(IS_TIM_CLOCKPOLARITY(sClockSourceConfig->ClockPolarity));
      assert_param(IS_TIM_CLOCKFILTER(sClockSourceConfig->ClockFilter));

      TIM_TI1_ConfigInputStage(htim->Instance,
 8005016:	687b      	ldr	r3, [r7, #4]
 8005018:	6818      	ldr	r0, [r3, #0]
                               sClockSourceConfig->ClockPolarity,
 800501a:	683b      	ldr	r3, [r7, #0]
 800501c:	6859      	ldr	r1, [r3, #4]
                               sClockSourceConfig->ClockFilter);
 800501e:	683b      	ldr	r3, [r7, #0]
 8005020:	68db      	ldr	r3, [r3, #12]
      TIM_TI1_ConfigInputStage(htim->Instance,
 8005022:	461a      	mov	r2, r3
 8005024:	f000 fa52 	bl	80054cc <TIM_TI1_ConfigInputStage>
      TIM_ITRx_SetConfig(htim->Instance, TIM_CLOCKSOURCE_TI1);
 8005028:	687b      	ldr	r3, [r7, #4]
 800502a:	681b      	ldr	r3, [r3, #0]
 800502c:	2150      	movs	r1, #80	@ 0x50
 800502e:	4618      	mov	r0, r3
 8005030:	f000 faa9 	bl	8005586 <TIM_ITRx_SetConfig>
      break;
 8005034:	e02c      	b.n	8005090 <HAL_TIM_ConfigClockSource+0x174>

      /* Check TI2 input conditioning related parameters */
      assert_param(IS_TIM_CLOCKPOLARITY(sClockSourceConfig->ClockPolarity));
      assert_param(IS_TIM_CLOCKFILTER(sClockSourceConfig->ClockFilter));

      TIM_TI2_ConfigInputStage(htim->Instance,
 8005036:	687b      	ldr	r3, [r7, #4]
 8005038:	6818      	ldr	r0, [r3, #0]
                               sClockSourceConfig->ClockPolarity,
 800503a:	683b      	ldr	r3, [r7, #0]
 800503c:	6859      	ldr	r1, [r3, #4]
                               sClockSourceConfig->ClockFilter);
 800503e:	683b      	ldr	r3, [r7, #0]
 8005040:	68db      	ldr	r3, [r3, #12]
      TIM_TI2_ConfigInputStage(htim->Instance,
 8005042:	461a      	mov	r2, r3
 8005044:	f000 fa70 	bl	8005528 <TIM_TI2_ConfigInputStage>
      TIM_ITRx_SetConfig(htim->Instance, TIM_CLOCKSOURCE_TI2);
 8005048:	687b      	ldr	r3, [r7, #4]
 800504a:	681b      	ldr	r3, [r3, #0]
 800504c:	2160      	movs	r1, #96	@ 0x60
 800504e:	4618      	mov	r0, r3
 8005050:	f000 fa99 	bl	8005586 <TIM_ITRx_SetConfig>
      break;
 8005054:	e01c      	b.n	8005090 <HAL_TIM_ConfigClockSource+0x174>

      /* Check TI1 input conditioning related parameters */
      assert_param(IS_TIM_CLOCKPOLARITY(sClockSourceConfig->ClockPolarity));
      assert_param(IS_TIM_CLOCKFILTER(sClockSourceConfig->ClockFilter));

      TIM_TI1_ConfigInputStage(htim->Instance,
 8005056:	687b      	ldr	r3, [r7, #4]
 8005058:	6818      	ldr	r0, [r3, #0]
                               sClockSourceConfig->ClockPolarity,
 800505a:	683b      	ldr	r3, [r7, #0]
 800505c:	6859      	ldr	r1, [r3, #4]
                               sClockSourceConfig->ClockFilter);
 800505e:	683b      	ldr	r3, [r7, #0]
 8005060:	68db      	ldr	r3, [r3, #12]
      TIM_TI1_ConfigInputStage(htim->Instance,
 8005062:	461a      	mov	r2, r3
 8005064:	f000 fa32 	bl	80054cc <TIM_TI1_ConfigInputStage>
      TIM_ITRx_SetConfig(htim->Instance, TIM_CLOCKSOURCE_TI1ED);
 8005068:	687b      	ldr	r3, [r7, #4]
 800506a:	681b      	ldr	r3, [r3, #0]
 800506c:	2140      	movs	r1, #64	@ 0x40
 800506e:	4618      	mov	r0, r3
 8005070:	f000 fa89 	bl	8005586 <TIM_ITRx_SetConfig>
      break;
 8005074:	e00c      	b.n	8005090 <HAL_TIM_ConfigClockSource+0x174>
    case TIM_CLOCKSOURCE_ITR3:
    {
      /* Check whether or not the timer instance supports internal trigger input */
      assert_param(IS_TIM_CLOCKSOURCE_ITRX_INSTANCE(htim->Instance));

      TIM_ITRx_SetConfig(htim->Instance, sClockSourceConfig->ClockSource);
 8005076:	687b      	ldr	r3, [r7, #4]
 8005078:	681a      	ldr	r2, [r3, #0]
 800507a:	683b      	ldr	r3, [r7, #0]
 800507c:	681b      	ldr	r3, [r3, #0]
 800507e:	4619      	mov	r1, r3
 8005080:	4610      	mov	r0, r2
 8005082:	f000 fa80 	bl	8005586 <TIM_ITRx_SetConfig>
      break;
 8005086:	e003      	b.n	8005090 <HAL_TIM_ConfigClockSource+0x174>
    }

    default:
      status = HAL_ERROR;
 8005088:	2301      	movs	r3, #1
 800508a:	73fb      	strb	r3, [r7, #15]
      break;
 800508c:	e000      	b.n	8005090 <HAL_TIM_ConfigClockSource+0x174>
      break;
 800508e:	bf00      	nop
  }
  htim->State = HAL_TIM_STATE_READY;
 8005090:	687b      	ldr	r3, [r7, #4]
 8005092:	2201      	movs	r2, #1
 8005094:	f883 203d 	strb.w	r2, [r3, #61]	@ 0x3d

  __HAL_UNLOCK(htim);
 8005098:	687b      	ldr	r3, [r7, #4]
 800509a:	2200      	movs	r2, #0
 800509c:	f883 203c 	strb.w	r2, [r3, #60]	@ 0x3c

  return status;
 80050a0:	7bfb      	ldrb	r3, [r7, #15]
}
 80050a2:	4618      	mov	r0, r3
 80050a4:	3710      	adds	r7, #16
 80050a6:	46bd      	mov	sp, r7
 80050a8:	bd80      	pop	{r7, pc}

080050aa <HAL_TIM_OC_DelayElapsedCallback>:
  * @brief  Output Compare callback in non-blocking mode
  * @param  htim TIM OC handle
  * @retval None
  */
__weak void HAL_TIM_OC_DelayElapsedCallback(TIM_HandleTypeDef *htim)
{
 80050aa:	b480      	push	{r7}
 80050ac:	b083      	sub	sp, #12
 80050ae:	af00      	add	r7, sp, #0
 80050b0:	6078      	str	r0, [r7, #4]
  UNUSED(htim);

  /* NOTE : This function should not be modified, when the callback is needed,
            the HAL_TIM_OC_DelayElapsedCallback could be implemented in the user file
   */
}
 80050b2:	bf00      	nop
 80050b4:	370c      	adds	r7, #12
 80050b6:	46bd      	mov	sp, r7
 80050b8:	bc80      	pop	{r7}
 80050ba:	4770      	bx	lr

080050bc <HAL_TIM_IC_CaptureCallback>:
  * @brief  Input Capture callback in non-blocking mode
  * @param  htim TIM IC handle
  * @retval None
  */
__weak void HAL_TIM_IC_CaptureCallback(TIM_HandleTypeDef *htim)
{
 80050bc:	b480      	push	{r7}
 80050be:	b083      	sub	sp, #12
 80050c0:	af00      	add	r7, sp, #0
 80050c2:	6078      	str	r0, [r7, #4]
  UNUSED(htim);

  /* NOTE : This function should not be modified, when the callback is needed,
            the HAL_TIM_IC_CaptureCallback could be implemented in the user file
   */
}
 80050c4:	bf00      	nop
 80050c6:	370c      	adds	r7, #12
 80050c8:	46bd      	mov	sp, r7
 80050ca:	bc80      	pop	{r7}
 80050cc:	4770      	bx	lr

080050ce <HAL_TIM_PWM_PulseFinishedCallback>:
  * @brief  PWM Pulse finished callback in non-blocking mode
  * @param  htim TIM handle
  * @retval None
  */
__weak void HAL_TIM_PWM_PulseFinishedCallback(TIM_HandleTypeDef *htim)
{
 80050ce:	b480      	push	{r7}
 80050d0:	b083      	sub	sp, #12
 80050d2:	af00      	add	r7, sp, #0
 80050d4:	6078      	str	r0, [r7, #4]
  UNUSED(htim);

  /* NOTE : This function should not be modified, when the callback is needed,
            the HAL_TIM_PWM_PulseFinishedCallback could be implemented in the user file
   */
}
 80050d6:	bf00      	nop
 80050d8:	370c      	adds	r7, #12
 80050da:	46bd      	mov	sp, r7
 80050dc:	bc80      	pop	{r7}
 80050de:	4770      	bx	lr

080050e0 <HAL_TIM_TriggerCallback>:
  * @brief  Hall Trigger detection callback in non-blocking mode
  * @param  htim TIM handle
  * @retval None
  */
__weak void HAL_TIM_TriggerCallback(TIM_HandleTypeDef *htim)
{
 80050e0:	b480      	push	{r7}
 80050e2:	b083      	sub	sp, #12
 80050e4:	af00      	add	r7, sp, #0
 80050e6:	6078      	str	r0, [r7, #4]
  UNUSED(htim);

  /* NOTE : This function should not be modified, when the callback is needed,
            the HAL_TIM_TriggerCallback could be implemented in the user file
   */
}
 80050e8:	bf00      	nop
 80050ea:	370c      	adds	r7, #12
 80050ec:	46bd      	mov	sp, r7
 80050ee:	bc80      	pop	{r7}
 80050f0:	4770      	bx	lr
	...

080050f4 <TIM_Base_SetConfig>:
  * @param  TIMx TIM peripheral
  * @param  Structure TIM Base configuration structure
  * @retval None
  */
void TIM_Base_SetConfig(TIM_TypeDef *TIMx, const TIM_Base_InitTypeDef *Structure)
{
 80050f4:	b480      	push	{r7}
 80050f6:	b085      	sub	sp, #20
 80050f8:	af00      	add	r7, sp, #0
 80050fa:	6078      	str	r0, [r7, #4]
 80050fc:	6039      	str	r1, [r7, #0]
  uint32_t tmpcr1;
  tmpcr1 = TIMx->CR1;
 80050fe:	687b      	ldr	r3, [r7, #4]
 8005100:	681b      	ldr	r3, [r3, #0]
 8005102:	60fb      	str	r3, [r7, #12]

  /* Set TIM Time Base Unit parameters ---------------------------------------*/
  if (IS_TIM_COUNTER_MODE_SELECT_INSTANCE(TIMx))
 8005104:	687b      	ldr	r3, [r7, #4]
 8005106:	4a2b      	ldr	r2, [pc, #172]	@ (80051b4 <TIM_Base_SetConfig+0xc0>)
 8005108:	4293      	cmp	r3, r2
 800510a:	d007      	beq.n	800511c <TIM_Base_SetConfig+0x28>
 800510c:	687b      	ldr	r3, [r7, #4]
 800510e:	f1b3 4f80 	cmp.w	r3, #1073741824	@ 0x40000000
 8005112:	d003      	beq.n	800511c <TIM_Base_SetConfig+0x28>
 8005114:	687b      	ldr	r3, [r7, #4]
 8005116:	4a28      	ldr	r2, [pc, #160]	@ (80051b8 <TIM_Base_SetConfig+0xc4>)
 8005118:	4293      	cmp	r3, r2
 800511a:	d108      	bne.n	800512e <TIM_Base_SetConfig+0x3a>
  {
    /* Select the Counter Mode */
    tmpcr1 &= ~(TIM_CR1_DIR | TIM_CR1_CMS);
 800511c:	68fb      	ldr	r3, [r7, #12]
 800511e:	f023 0370 	bic.w	r3, r3, #112	@ 0x70
 8005122:	60fb      	str	r3, [r7, #12]
    tmpcr1 |= Structure->CounterMode;
 8005124:	683b      	ldr	r3, [r7, #0]
 8005126:	685b      	ldr	r3, [r3, #4]
 8005128:	68fa      	ldr	r2, [r7, #12]
 800512a:	4313      	orrs	r3, r2
 800512c:	60fb      	str	r3, [r7, #12]
  }

  if (IS_TIM_CLOCK_DIVISION_INSTANCE(TIMx))
 800512e:	687b      	ldr	r3, [r7, #4]
 8005130:	4a20      	ldr	r2, [pc, #128]	@ (80051b4 <TIM_Base_SetConfig+0xc0>)
 8005132:	4293      	cmp	r3, r2
 8005134:	d007      	beq.n	8005146 <TIM_Base_SetConfig+0x52>
 8005136:	687b      	ldr	r3, [r7, #4]
 8005138:	f1b3 4f80 	cmp.w	r3, #1073741824	@ 0x40000000
 800513c:	d003      	beq.n	8005146 <TIM_Base_SetConfig+0x52>
 800513e:	687b      	ldr	r3, [r7, #4]
 8005140:	4a1d      	ldr	r2, [pc, #116]	@ (80051b8 <TIM_Base_SetConfig+0xc4>)
 8005142:	4293      	cmp	r3, r2
 8005144:	d108      	bne.n	8005158 <TIM_Base_SetConfig+0x64>
  {
    /* Set the clock division */
    tmpcr1 &= ~TIM_CR1_CKD;
 8005146:	68fb      	ldr	r3, [r7, #12]
 8005148:	f423 7340 	bic.w	r3, r3, #768	@ 0x300
 800514c:	60fb      	str	r3, [r7, #12]
    tmpcr1 |= (uint32_t)Structure->ClockDivision;
 800514e:	683b      	ldr	r3, [r7, #0]
 8005150:	68db      	ldr	r3, [r3, #12]
 8005152:	68fa      	ldr	r2, [r7, #12]
 8005154:	4313      	orrs	r3, r2
 8005156:	60fb      	str	r3, [r7, #12]
  }

  /* Set the auto-reload preload */
  MODIFY_REG(tmpcr1, TIM_CR1_ARPE, Structure->AutoReloadPreload);
 8005158:	68fb      	ldr	r3, [r7, #12]
 800515a:	f023 0280 	bic.w	r2, r3, #128	@ 0x80
 800515e:	683b      	ldr	r3, [r7, #0]
 8005160:	695b      	ldr	r3, [r3, #20]
 8005162:	4313      	orrs	r3, r2
 8005164:	60fb      	str	r3, [r7, #12]

  TIMx->CR1 = tmpcr1;
 8005166:	687b      	ldr	r3, [r7, #4]
 8005168:	68fa      	ldr	r2, [r7, #12]
 800516a:	601a      	str	r2, [r3, #0]

  /* Set the Autoreload value */
  TIMx->ARR = (uint32_t)Structure->Period ;
 800516c:	683b      	ldr	r3, [r7, #0]
 800516e:	689a      	ldr	r2, [r3, #8]
 8005170:	687b      	ldr	r3, [r7, #4]
 8005172:	62da      	str	r2, [r3, #44]	@ 0x2c

  /* Set the Prescaler value */
  TIMx->PSC = Structure->Prescaler;
 8005174:	683b      	ldr	r3, [r7, #0]
 8005176:	681a      	ldr	r2, [r3, #0]
 8005178:	687b      	ldr	r3, [r7, #4]
 800517a:	629a      	str	r2, [r3, #40]	@ 0x28

  if (IS_TIM_REPETITION_COUNTER_INSTANCE(TIMx))
 800517c:	687b      	ldr	r3, [r7, #4]
 800517e:	4a0d      	ldr	r2, [pc, #52]	@ (80051b4 <TIM_Base_SetConfig+0xc0>)
 8005180:	4293      	cmp	r3, r2
 8005182:	d103      	bne.n	800518c <TIM_Base_SetConfig+0x98>
  {
    /* Set the Repetition Counter value */
    TIMx->RCR = Structure->RepetitionCounter;
 8005184:	683b      	ldr	r3, [r7, #0]
 8005186:	691a      	ldr	r2, [r3, #16]
 8005188:	687b      	ldr	r3, [r7, #4]
 800518a:	631a      	str	r2, [r3, #48]	@ 0x30
  }

  /* Generate an update event to reload the Prescaler
     and the repetition counter (only for advanced timer) value immediately */
  TIMx->EGR = TIM_EGR_UG;
 800518c:	687b      	ldr	r3, [r7, #4]
 800518e:	2201      	movs	r2, #1
 8005190:	615a      	str	r2, [r3, #20]

  /* Check if the update flag is set after the Update Generation, if so clear the UIF flag */
  if (HAL_IS_BIT_SET(TIMx->SR, TIM_FLAG_UPDATE))
 8005192:	687b      	ldr	r3, [r7, #4]
 8005194:	691b      	ldr	r3, [r3, #16]
 8005196:	f003 0301 	and.w	r3, r3, #1
 800519a:	2b00      	cmp	r3, #0
 800519c:	d005      	beq.n	80051aa <TIM_Base_SetConfig+0xb6>
  {
    /* Clear the update flag */
    CLEAR_BIT(TIMx->SR, TIM_FLAG_UPDATE);
 800519e:	687b      	ldr	r3, [r7, #4]
 80051a0:	691b      	ldr	r3, [r3, #16]
 80051a2:	f023 0201 	bic.w	r2, r3, #1
 80051a6:	687b      	ldr	r3, [r7, #4]
 80051a8:	611a      	str	r2, [r3, #16]
  }
}
 80051aa:	bf00      	nop
 80051ac:	3714      	adds	r7, #20
 80051ae:	46bd      	mov	sp, r7
 80051b0:	bc80      	pop	{r7}
 80051b2:	4770      	bx	lr
 80051b4:	40012c00 	.word	0x40012c00
 80051b8:	40000400 	.word	0x40000400

080051bc <TIM_OC1_SetConfig>:
  * @param  TIMx to select the TIM peripheral
  * @param  OC_Config The output configuration structure
  * @retval None
  */
static void TIM_OC1_SetConfig(TIM_TypeDef *TIMx, const TIM_OC_InitTypeDef *OC_Config)
{
 80051bc:	b480      	push	{r7}
 80051be:	b087      	sub	sp, #28
 80051c0:	af00      	add	r7, sp, #0
 80051c2:	6078      	str	r0, [r7, #4]
 80051c4:	6039      	str	r1, [r7, #0]
  uint32_t tmpccmrx;
  uint32_t tmpccer;
  uint32_t tmpcr2;

  /* Get the TIMx CCER register value */
  tmpccer = TIMx->CCER;
 80051c6:	687b      	ldr	r3, [r7, #4]
 80051c8:	6a1b      	ldr	r3, [r3, #32]
 80051ca:	617b      	str	r3, [r7, #20]

  /* Disable the Channel 1: Reset the CC1E Bit */
  TIMx->CCER &= ~TIM_CCER_CC1E;
 80051cc:	687b      	ldr	r3, [r7, #4]
 80051ce:	6a1b      	ldr	r3, [r3, #32]
 80051d0:	f023 0201 	bic.w	r2, r3, #1
 80051d4:	687b      	ldr	r3, [r7, #4]
 80051d6:	621a      	str	r2, [r3, #32]

  /* Get the TIMx CR2 register value */
  tmpcr2 =  TIMx->CR2;
 80051d8:	687b      	ldr	r3, [r7, #4]
 80051da:	685b      	ldr	r3, [r3, #4]
 80051dc:	613b      	str	r3, [r7, #16]

  /* Get the TIMx CCMR1 register value */
  tmpccmrx = TIMx->CCMR1;
 80051de:	687b      	ldr	r3, [r7, #4]
 80051e0:	699b      	ldr	r3, [r3, #24]
 80051e2:	60fb      	str	r3, [r7, #12]

  /* Reset the Output Compare Mode Bits */
  tmpccmrx &= ~TIM_CCMR1_OC1M;
 80051e4:	68fb      	ldr	r3, [r7, #12]
 80051e6:	f023 0370 	bic.w	r3, r3, #112	@ 0x70
 80051ea:	60fb      	str	r3, [r7, #12]
  tmpccmrx &= ~TIM_CCMR1_CC1S;
 80051ec:	68fb      	ldr	r3, [r7, #12]
 80051ee:	f023 0303 	bic.w	r3, r3, #3
 80051f2:	60fb      	str	r3, [r7, #12]
  /* Select the Output Compare Mode */
  tmpccmrx |= OC_Config->OCMode;
 80051f4:	683b      	ldr	r3, [r7, #0]
 80051f6:	681b      	ldr	r3, [r3, #0]
 80051f8:	68fa      	ldr	r2, [r7, #12]
 80051fa:	4313      	orrs	r3, r2
 80051fc:	60fb      	str	r3, [r7, #12]

  /* Reset the Output Polarity level */
  tmpccer &= ~TIM_CCER_CC1P;
 80051fe:	697b      	ldr	r3, [r7, #20]
 8005200:	f023 0302 	bic.w	r3, r3, #2
 8005204:	617b      	str	r3, [r7, #20]
  /* Set the Output Compare Polarity */
  tmpccer |= OC_Config->OCPolarity;
 8005206:	683b      	ldr	r3, [r7, #0]
 8005208:	689b      	ldr	r3, [r3, #8]
 800520a:	697a      	ldr	r2, [r7, #20]
 800520c:	4313      	orrs	r3, r2
 800520e:	617b      	str	r3, [r7, #20]

  if (IS_TIM_CCXN_INSTANCE(TIMx, TIM_CHANNEL_1))
 8005210:	687b      	ldr	r3, [r7, #4]
 8005212:	4a1c      	ldr	r2, [pc, #112]	@ (8005284 <TIM_OC1_SetConfig+0xc8>)
 8005214:	4293      	cmp	r3, r2
 8005216:	d10c      	bne.n	8005232 <TIM_OC1_SetConfig+0x76>
  {
    /* Check parameters */
    assert_param(IS_TIM_OCN_POLARITY(OC_Config->OCNPolarity));

    /* Reset the Output N Polarity level */
    tmpccer &= ~TIM_CCER_CC1NP;
 8005218:	697b      	ldr	r3, [r7, #20]
 800521a:	f023 0308 	bic.w	r3, r3, #8
 800521e:	617b      	str	r3, [r7, #20]
    /* Set the Output N Polarity */
    tmpccer |= OC_Config->OCNPolarity;
 8005220:	683b      	ldr	r3, [r7, #0]
 8005222:	68db      	ldr	r3, [r3, #12]
 8005224:	697a      	ldr	r2, [r7, #20]
 8005226:	4313      	orrs	r3, r2
 8005228:	617b      	str	r3, [r7, #20]
    /* Reset the Output N State */
    tmpccer &= ~TIM_CCER_CC1NE;
 800522a:	697b      	ldr	r3, [r7, #20]
 800522c:	f023 0304 	bic.w	r3, r3, #4
 8005230:	617b      	str	r3, [r7, #20]
  }

  if (IS_TIM_BREAK_INSTANCE(TIMx))
 8005232:	687b      	ldr	r3, [r7, #4]
 8005234:	4a13      	ldr	r2, [pc, #76]	@ (8005284 <TIM_OC1_SetConfig+0xc8>)
 8005236:	4293      	cmp	r3, r2
 8005238:	d111      	bne.n	800525e <TIM_OC1_SetConfig+0xa2>
    /* Check parameters */
    assert_param(IS_TIM_OCNIDLE_STATE(OC_Config->OCNIdleState));
    assert_param(IS_TIM_OCIDLE_STATE(OC_Config->OCIdleState));

    /* Reset the Output Compare and Output Compare N IDLE State */
    tmpcr2 &= ~TIM_CR2_OIS1;
 800523a:	693b      	ldr	r3, [r7, #16]
 800523c:	f423 7380 	bic.w	r3, r3, #256	@ 0x100
 8005240:	613b      	str	r3, [r7, #16]
    tmpcr2 &= ~TIM_CR2_OIS1N;
 8005242:	693b      	ldr	r3, [r7, #16]
 8005244:	f423 7300 	bic.w	r3, r3, #512	@ 0x200
 8005248:	613b      	str	r3, [r7, #16]
    /* Set the Output Idle state */
    tmpcr2 |= OC_Config->OCIdleState;
 800524a:	683b      	ldr	r3, [r7, #0]
 800524c:	695b      	ldr	r3, [r3, #20]
 800524e:	693a      	ldr	r2, [r7, #16]
 8005250:	4313      	orrs	r3, r2
 8005252:	613b      	str	r3, [r7, #16]
    /* Set the Output N Idle state */
    tmpcr2 |= OC_Config->OCNIdleState;
 8005254:	683b      	ldr	r3, [r7, #0]
 8005256:	699b      	ldr	r3, [r3, #24]
 8005258:	693a      	ldr	r2, [r7, #16]
 800525a:	4313      	orrs	r3, r2
 800525c:	613b      	str	r3, [r7, #16]
  }

  /* Write to TIMx CR2 */
  TIMx->CR2 = tmpcr2;
 800525e:	687b      	ldr	r3, [r7, #4]
 8005260:	693a      	ldr	r2, [r7, #16]
 8005262:	605a      	str	r2, [r3, #4]

  /* Write to TIMx CCMR1 */
  TIMx->CCMR1 = tmpccmrx;
 8005264:	687b      	ldr	r3, [r7, #4]
 8005266:	68fa      	ldr	r2, [r7, #12]
 8005268:	619a      	str	r2, [r3, #24]

  /* Set the Capture Compare Register value */
  TIMx->CCR1 = OC_Config->Pulse;
 800526a:	683b      	ldr	r3, [r7, #0]
 800526c:	685a      	ldr	r2, [r3, #4]
 800526e:	687b      	ldr	r3, [r7, #4]
 8005270:	635a      	str	r2, [r3, #52]	@ 0x34

  /* Write to TIMx CCER */
  TIMx->CCER = tmpccer;
 8005272:	687b      	ldr	r3, [r7, #4]
 8005274:	697a      	ldr	r2, [r7, #20]
 8005276:	621a      	str	r2, [r3, #32]
}
 8005278:	bf00      	nop
 800527a:	371c      	adds	r7, #28
 800527c:	46bd      	mov	sp, r7
 800527e:	bc80      	pop	{r7}
 8005280:	4770      	bx	lr
 8005282:	bf00      	nop
 8005284:	40012c00 	.word	0x40012c00

08005288 <TIM_OC2_SetConfig>:
  * @param  TIMx to select the TIM peripheral
  * @param  OC_Config The output configuration structure
  * @retval None
  */
void TIM_OC2_SetConfig(TIM_TypeDef *TIMx, const TIM_OC_InitTypeDef *OC_Config)
{
 8005288:	b480      	push	{r7}
 800528a:	b087      	sub	sp, #28
 800528c:	af00      	add	r7, sp, #0
 800528e:	6078      	str	r0, [r7, #4]
 8005290:	6039      	str	r1, [r7, #0]
  uint32_t tmpccmrx;
  uint32_t tmpccer;
  uint32_t tmpcr2;

  /* Get the TIMx CCER register value */
  tmpccer = TIMx->CCER;
 8005292:	687b      	ldr	r3, [r7, #4]
 8005294:	6a1b      	ldr	r3, [r3, #32]
 8005296:	617b      	str	r3, [r7, #20]

  /* Disable the Channel 2: Reset the CC2E Bit */
  TIMx->CCER &= ~TIM_CCER_CC2E;
 8005298:	687b      	ldr	r3, [r7, #4]
 800529a:	6a1b      	ldr	r3, [r3, #32]
 800529c:	f023 0210 	bic.w	r2, r3, #16
 80052a0:	687b      	ldr	r3, [r7, #4]
 80052a2:	621a      	str	r2, [r3, #32]

  /* Get the TIMx CR2 register value */
  tmpcr2 =  TIMx->CR2;
 80052a4:	687b      	ldr	r3, [r7, #4]
 80052a6:	685b      	ldr	r3, [r3, #4]
 80052a8:	613b      	str	r3, [r7, #16]

  /* Get the TIMx CCMR1 register value */
  tmpccmrx = TIMx->CCMR1;
 80052aa:	687b      	ldr	r3, [r7, #4]
 80052ac:	699b      	ldr	r3, [r3, #24]
 80052ae:	60fb      	str	r3, [r7, #12]

  /* Reset the Output Compare mode and Capture/Compare selection Bits */
  tmpccmrx &= ~TIM_CCMR1_OC2M;
 80052b0:	68fb      	ldr	r3, [r7, #12]
 80052b2:	f423 43e0 	bic.w	r3, r3, #28672	@ 0x7000
 80052b6:	60fb      	str	r3, [r7, #12]
  tmpccmrx &= ~TIM_CCMR1_CC2S;
 80052b8:	68fb      	ldr	r3, [r7, #12]
 80052ba:	f423 7340 	bic.w	r3, r3, #768	@ 0x300
 80052be:	60fb      	str	r3, [r7, #12]

  /* Select the Output Compare Mode */
  tmpccmrx |= (OC_Config->OCMode << 8U);
 80052c0:	683b      	ldr	r3, [r7, #0]
 80052c2:	681b      	ldr	r3, [r3, #0]
 80052c4:	021b      	lsls	r3, r3, #8
 80052c6:	68fa      	ldr	r2, [r7, #12]
 80052c8:	4313      	orrs	r3, r2
 80052ca:	60fb      	str	r3, [r7, #12]

  /* Reset the Output Polarity level */
  tmpccer &= ~TIM_CCER_CC2P;
 80052cc:	697b      	ldr	r3, [r7, #20]
 80052ce:	f023 0320 	bic.w	r3, r3, #32
 80052d2:	617b      	str	r3, [r7, #20]
  /* Set the Output Compare Polarity */
  tmpccer |= (OC_Config->OCPolarity << 4U);
 80052d4:	683b      	ldr	r3, [r7, #0]
 80052d6:	689b      	ldr	r3, [r3, #8]
 80052d8:	011b      	lsls	r3, r3, #4
 80052da:	697a      	ldr	r2, [r7, #20]
 80052dc:	4313      	orrs	r3, r2
 80052de:	617b      	str	r3, [r7, #20]

  if (IS_TIM_CCXN_INSTANCE(TIMx, TIM_CHANNEL_2))
 80052e0:	687b      	ldr	r3, [r7, #4]
 80052e2:	4a1d      	ldr	r2, [pc, #116]	@ (8005358 <TIM_OC2_SetConfig+0xd0>)
 80052e4:	4293      	cmp	r3, r2
 80052e6:	d10d      	bne.n	8005304 <TIM_OC2_SetConfig+0x7c>
  {
    assert_param(IS_TIM_OCN_POLARITY(OC_Config->OCNPolarity));

    /* Reset the Output N Polarity level */
    tmpccer &= ~TIM_CCER_CC2NP;
 80052e8:	697b      	ldr	r3, [r7, #20]
 80052ea:	f023 0380 	bic.w	r3, r3, #128	@ 0x80
 80052ee:	617b      	str	r3, [r7, #20]
    /* Set the Output N Polarity */
    tmpccer |= (OC_Config->OCNPolarity << 4U);
 80052f0:	683b      	ldr	r3, [r7, #0]
 80052f2:	68db      	ldr	r3, [r3, #12]
 80052f4:	011b      	lsls	r3, r3, #4
 80052f6:	697a      	ldr	r2, [r7, #20]
 80052f8:	4313      	orrs	r3, r2
 80052fa:	617b      	str	r3, [r7, #20]
    /* Reset the Output N State */
    tmpccer &= ~TIM_CCER_CC2NE;
 80052fc:	697b      	ldr	r3, [r7, #20]
 80052fe:	f023 0340 	bic.w	r3, r3, #64	@ 0x40
 8005302:	617b      	str	r3, [r7, #20]
  }

  if (IS_TIM_BREAK_INSTANCE(TIMx))
 8005304:	687b      	ldr	r3, [r7, #4]
 8005306:	4a14      	ldr	r2, [pc, #80]	@ (8005358 <TIM_OC2_SetConfig+0xd0>)
 8005308:	4293      	cmp	r3, r2
 800530a:	d113      	bne.n	8005334 <TIM_OC2_SetConfig+0xac>
    /* Check parameters */
    assert_param(IS_TIM_OCNIDLE_STATE(OC_Config->OCNIdleState));
    assert_param(IS_TIM_OCIDLE_STATE(OC_Config->OCIdleState));

    /* Reset the Output Compare and Output Compare N IDLE State */
    tmpcr2 &= ~TIM_CR2_OIS2;
 800530c:	693b      	ldr	r3, [r7, #16]
 800530e:	f423 6380 	bic.w	r3, r3, #1024	@ 0x400
 8005312:	613b      	str	r3, [r7, #16]
    tmpcr2 &= ~TIM_CR2_OIS2N;
 8005314:	693b      	ldr	r3, [r7, #16]
 8005316:	f423 6300 	bic.w	r3, r3, #2048	@ 0x800
 800531a:	613b      	str	r3, [r7, #16]
    /* Set the Output Idle state */
    tmpcr2 |= (OC_Config->OCIdleState << 2U);
 800531c:	683b      	ldr	r3, [r7, #0]
 800531e:	695b      	ldr	r3, [r3, #20]
 8005320:	009b      	lsls	r3, r3, #2
 8005322:	693a      	ldr	r2, [r7, #16]
 8005324:	4313      	orrs	r3, r2
 8005326:	613b      	str	r3, [r7, #16]
    /* Set the Output N Idle state */
    tmpcr2 |= (OC_Config->OCNIdleState << 2U);
 8005328:	683b      	ldr	r3, [r7, #0]
 800532a:	699b      	ldr	r3, [r3, #24]
 800532c:	009b      	lsls	r3, r3, #2
 800532e:	693a      	ldr	r2, [r7, #16]
 8005330:	4313      	orrs	r3, r2
 8005332:	613b      	str	r3, [r7, #16]
  }

  /* Write to TIMx CR2 */
  TIMx->CR2 = tmpcr2;
 8005334:	687b      	ldr	r3, [r7, #4]
 8005336:	693a      	ldr	r2, [r7, #16]
 8005338:	605a      	str	r2, [r3, #4]

  /* Write to TIMx CCMR1 */
  TIMx->CCMR1 = tmpccmrx;
 800533a:	687b      	ldr	r3, [r7, #4]
 800533c:	68fa      	ldr	r2, [r7, #12]
 800533e:	619a      	str	r2, [r3, #24]

  /* Set the Capture Compare Register value */
  TIMx->CCR2 = OC_Config->Pulse;
 8005340:	683b      	ldr	r3, [r7, #0]
 8005342:	685a      	ldr	r2, [r3, #4]
 8005344:	687b      	ldr	r3, [r7, #4]
 8005346:	639a      	str	r2, [r3, #56]	@ 0x38

  /* Write to TIMx CCER */
  TIMx->CCER = tmpccer;
 8005348:	687b      	ldr	r3, [r7, #4]
 800534a:	697a      	ldr	r2, [r7, #20]
 800534c:	621a      	str	r2, [r3, #32]
}
 800534e:	bf00      	nop
 8005350:	371c      	adds	r7, #28
 8005352:	46bd      	mov	sp, r7
 8005354:	bc80      	pop	{r7}
 8005356:	4770      	bx	lr
 8005358:	40012c00 	.word	0x40012c00

0800535c <TIM_OC3_SetConfig>:
  * @param  TIMx to select the TIM peripheral
  * @param  OC_Config The output configuration structure
  * @retval None
  */
static void TIM_OC3_SetConfig(TIM_TypeDef *TIMx, const TIM_OC_InitTypeDef *OC_Config)
{
 800535c:	b480      	push	{r7}
 800535e:	b087      	sub	sp, #28
 8005360:	af00      	add	r7, sp, #0
 8005362:	6078      	str	r0, [r7, #4]
 8005364:	6039      	str	r1, [r7, #0]
  uint32_t tmpccmrx;
  uint32_t tmpccer;
  uint32_t tmpcr2;

  /* Get the TIMx CCER register value */
  tmpccer = TIMx->CCER;
 8005366:	687b      	ldr	r3, [r7, #4]
 8005368:	6a1b      	ldr	r3, [r3, #32]
 800536a:	617b      	str	r3, [r7, #20]

  /* Disable the Channel 3: Reset the CC2E Bit */
  TIMx->CCER &= ~TIM_CCER_CC3E;
 800536c:	687b      	ldr	r3, [r7, #4]
 800536e:	6a1b      	ldr	r3, [r3, #32]
 8005370:	f423 7280 	bic.w	r2, r3, #256	@ 0x100
 8005374:	687b      	ldr	r3, [r7, #4]
 8005376:	621a      	str	r2, [r3, #32]

  /* Get the TIMx CR2 register value */
  tmpcr2 =  TIMx->CR2;
 8005378:	687b      	ldr	r3, [r7, #4]
 800537a:	685b      	ldr	r3, [r3, #4]
 800537c:	613b      	str	r3, [r7, #16]

  /* Get the TIMx CCMR2 register value */
  tmpccmrx = TIMx->CCMR2;
 800537e:	687b      	ldr	r3, [r7, #4]
 8005380:	69db      	ldr	r3, [r3, #28]
 8005382:	60fb      	str	r3, [r7, #12]

  /* Reset the Output Compare mode and Capture/Compare selection Bits */
  tmpccmrx &= ~TIM_CCMR2_OC3M;
 8005384:	68fb      	ldr	r3, [r7, #12]
 8005386:	f023 0370 	bic.w	r3, r3, #112	@ 0x70
 800538a:	60fb      	str	r3, [r7, #12]
  tmpccmrx &= ~TIM_CCMR2_CC3S;
 800538c:	68fb      	ldr	r3, [r7, #12]
 800538e:	f023 0303 	bic.w	r3, r3, #3
 8005392:	60fb      	str	r3, [r7, #12]
  /* Select the Output Compare Mode */
  tmpccmrx |= OC_Config->OCMode;
 8005394:	683b      	ldr	r3, [r7, #0]
 8005396:	681b      	ldr	r3, [r3, #0]
 8005398:	68fa      	ldr	r2, [r7, #12]
 800539a:	4313      	orrs	r3, r2
 800539c:	60fb      	str	r3, [r7, #12]

  /* Reset the Output Polarity level */
  tmpccer &= ~TIM_CCER_CC3P;
 800539e:	697b      	ldr	r3, [r7, #20]
 80053a0:	f423 7300 	bic.w	r3, r3, #512	@ 0x200
 80053a4:	617b      	str	r3, [r7, #20]
  /* Set the Output Compare Polarity */
  tmpccer |= (OC_Config->OCPolarity << 8U);
 80053a6:	683b      	ldr	r3, [r7, #0]
 80053a8:	689b      	ldr	r3, [r3, #8]
 80053aa:	021b      	lsls	r3, r3, #8
 80053ac:	697a      	ldr	r2, [r7, #20]
 80053ae:	4313      	orrs	r3, r2
 80053b0:	617b      	str	r3, [r7, #20]

  if (IS_TIM_CCXN_INSTANCE(TIMx, TIM_CHANNEL_3))
 80053b2:	687b      	ldr	r3, [r7, #4]
 80053b4:	4a1d      	ldr	r2, [pc, #116]	@ (800542c <TIM_OC3_SetConfig+0xd0>)
 80053b6:	4293      	cmp	r3, r2
 80053b8:	d10d      	bne.n	80053d6 <TIM_OC3_SetConfig+0x7a>
  {
    assert_param(IS_TIM_OCN_POLARITY(OC_Config->OCNPolarity));

    /* Reset the Output N Polarity level */
    tmpccer &= ~TIM_CCER_CC3NP;
 80053ba:	697b      	ldr	r3, [r7, #20]
 80053bc:	f423 6300 	bic.w	r3, r3, #2048	@ 0x800
 80053c0:	617b      	str	r3, [r7, #20]
    /* Set the Output N Polarity */
    tmpccer |= (OC_Config->OCNPolarity << 8U);
 80053c2:	683b      	ldr	r3, [r7, #0]
 80053c4:	68db      	ldr	r3, [r3, #12]
 80053c6:	021b      	lsls	r3, r3, #8
 80053c8:	697a      	ldr	r2, [r7, #20]
 80053ca:	4313      	orrs	r3, r2
 80053cc:	617b      	str	r3, [r7, #20]
    /* Reset the Output N State */
    tmpccer &= ~TIM_CCER_CC3NE;
 80053ce:	697b      	ldr	r3, [r7, #20]
 80053d0:	f423 6380 	bic.w	r3, r3, #1024	@ 0x400
 80053d4:	617b      	str	r3, [r7, #20]
  }

  if (IS_TIM_BREAK_INSTANCE(TIMx))
 80053d6:	687b      	ldr	r3, [r7, #4]
 80053d8:	4a14      	ldr	r2, [pc, #80]	@ (800542c <TIM_OC3_SetConfig+0xd0>)
 80053da:	4293      	cmp	r3, r2
 80053dc:	d113      	bne.n	8005406 <TIM_OC3_SetConfig+0xaa>
    /* Check parameters */
    assert_param(IS_TIM_OCNIDLE_STATE(OC_Config->OCNIdleState));
    assert_param(IS_TIM_OCIDLE_STATE(OC_Config->OCIdleState));

    /* Reset the Output Compare and Output Compare N IDLE State */
    tmpcr2 &= ~TIM_CR2_OIS3;
 80053de:	693b      	ldr	r3, [r7, #16]
 80053e0:	f423 5380 	bic.w	r3, r3, #4096	@ 0x1000
 80053e4:	613b      	str	r3, [r7, #16]
    tmpcr2 &= ~TIM_CR2_OIS3N;
 80053e6:	693b      	ldr	r3, [r7, #16]
 80053e8:	f423 5300 	bic.w	r3, r3, #8192	@ 0x2000
 80053ec:	613b      	str	r3, [r7, #16]
    /* Set the Output Idle state */
    tmpcr2 |= (OC_Config->OCIdleState << 4U);
 80053ee:	683b      	ldr	r3, [r7, #0]
 80053f0:	695b      	ldr	r3, [r3, #20]
 80053f2:	011b      	lsls	r3, r3, #4
 80053f4:	693a      	ldr	r2, [r7, #16]
 80053f6:	4313      	orrs	r3, r2
 80053f8:	613b      	str	r3, [r7, #16]
    /* Set the Output N Idle state */
    tmpcr2 |= (OC_Config->OCNIdleState << 4U);
 80053fa:	683b      	ldr	r3, [r7, #0]
 80053fc:	699b      	ldr	r3, [r3, #24]
 80053fe:	011b      	lsls	r3, r3, #4
 8005400:	693a      	ldr	r2, [r7, #16]
 8005402:	4313      	orrs	r3, r2
 8005404:	613b      	str	r3, [r7, #16]
  }

  /* Write to TIMx CR2 */
  TIMx->CR2 = tmpcr2;
 8005406:	687b      	ldr	r3, [r7, #4]
 8005408:	693a      	ldr	r2, [r7, #16]
 800540a:	605a      	str	r2, [r3, #4]

  /* Write to TIMx CCMR2 */
  TIMx->CCMR2 = tmpccmrx;
 800540c:	687b      	ldr	r3, [r7, #4]
 800540e:	68fa      	ldr	r2, [r7, #12]
 8005410:	61da      	str	r2, [r3, #28]

  /* Set the Capture Compare Register value */
  TIMx->CCR3 = OC_Config->Pulse;
 8005412:	683b      	ldr	r3, [r7, #0]
 8005414:	685a      	ldr	r2, [r3, #4]
 8005416:	687b      	ldr	r3, [r7, #4]
 8005418:	63da      	str	r2, [r3, #60]	@ 0x3c

  /* Write to TIMx CCER */
  TIMx->CCER = tmpccer;
 800541a:	687b      	ldr	r3, [r7, #4]
 800541c:	697a      	ldr	r2, [r7, #20]
 800541e:	621a      	str	r2, [r3, #32]
}
 8005420:	bf00      	nop
 8005422:	371c      	adds	r7, #28
 8005424:	46bd      	mov	sp, r7
 8005426:	bc80      	pop	{r7}
 8005428:	4770      	bx	lr
 800542a:	bf00      	nop
 800542c:	40012c00 	.word	0x40012c00

08005430 <TIM_OC4_SetConfig>:
  * @param  TIMx to select the TIM peripheral
  * @param  OC_Config The output configuration structure
  * @retval None
  */
static void TIM_OC4_SetConfig(TIM_TypeDef *TIMx, const TIM_OC_InitTypeDef *OC_Config)
{
 8005430:	b480      	push	{r7}
 8005432:	b087      	sub	sp, #28
 8005434:	af00      	add	r7, sp, #0
 8005436:	6078      	str	r0, [r7, #4]
 8005438:	6039      	str	r1, [r7, #0]
  uint32_t tmpccmrx;
  uint32_t tmpccer;
  uint32_t tmpcr2;

  /* Get the TIMx CCER register value */
  tmpccer = TIMx->CCER;
 800543a:	687b      	ldr	r3, [r7, #4]
 800543c:	6a1b      	ldr	r3, [r3, #32]
 800543e:	613b      	str	r3, [r7, #16]

  /* Disable the Channel 4: Reset the CC4E Bit */
  TIMx->CCER &= ~TIM_CCER_CC4E;
 8005440:	687b      	ldr	r3, [r7, #4]
 8005442:	6a1b      	ldr	r3, [r3, #32]
 8005444:	f423 5280 	bic.w	r2, r3, #4096	@ 0x1000
 8005448:	687b      	ldr	r3, [r7, #4]
 800544a:	621a      	str	r2, [r3, #32]

  /* Get the TIMx CR2 register value */
  tmpcr2 =  TIMx->CR2;
 800544c:	687b      	ldr	r3, [r7, #4]
 800544e:	685b      	ldr	r3, [r3, #4]
 8005450:	617b      	str	r3, [r7, #20]

  /* Get the TIMx CCMR2 register value */
  tmpccmrx = TIMx->CCMR2;
 8005452:	687b      	ldr	r3, [r7, #4]
 8005454:	69db      	ldr	r3, [r3, #28]
 8005456:	60fb      	str	r3, [r7, #12]

  /* Reset the Output Compare mode and Capture/Compare selection Bits */
  tmpccmrx &= ~TIM_CCMR2_OC4M;
 8005458:	68fb      	ldr	r3, [r7, #12]
 800545a:	f423 43e0 	bic.w	r3, r3, #28672	@ 0x7000
 800545e:	60fb      	str	r3, [r7, #12]
  tmpccmrx &= ~TIM_CCMR2_CC4S;
 8005460:	68fb      	ldr	r3, [r7, #12]
 8005462:	f423 7340 	bic.w	r3, r3, #768	@ 0x300
 8005466:	60fb      	str	r3, [r7, #12]

  /* Select the Output Compare Mode */
  tmpccmrx |= (OC_Config->OCMode << 8U);
 8005468:	683b      	ldr	r3, [r7, #0]
 800546a:	681b      	ldr	r3, [r3, #0]
 800546c:	021b      	lsls	r3, r3, #8
 800546e:	68fa      	ldr	r2, [r7, #12]
 8005470:	4313      	orrs	r3, r2
 8005472:	60fb      	str	r3, [r7, #12]

  /* Reset the Output Polarity level */
  tmpccer &= ~TIM_CCER_CC4P;
 8005474:	693b      	ldr	r3, [r7, #16]
 8005476:	f423 5300 	bic.w	r3, r3, #8192	@ 0x2000
 800547a:	613b      	str	r3, [r7, #16]
  /* Set the Output Compare Polarity */
  tmpccer |= (OC_Config->OCPolarity << 12U);
 800547c:	683b      	ldr	r3, [r7, #0]
 800547e:	689b      	ldr	r3, [r3, #8]
 8005480:	031b      	lsls	r3, r3, #12
 8005482:	693a      	ldr	r2, [r7, #16]
 8005484:	4313      	orrs	r3, r2
 8005486:	613b      	str	r3, [r7, #16]

  if (IS_TIM_BREAK_INSTANCE(TIMx))
 8005488:	687b      	ldr	r3, [r7, #4]
 800548a:	4a0f      	ldr	r2, [pc, #60]	@ (80054c8 <TIM_OC4_SetConfig+0x98>)
 800548c:	4293      	cmp	r3, r2
 800548e:	d109      	bne.n	80054a4 <TIM_OC4_SetConfig+0x74>
  {
    /* Check parameters */
    assert_param(IS_TIM_OCIDLE_STATE(OC_Config->OCIdleState));

    /* Reset the Output Compare IDLE State */
    tmpcr2 &= ~TIM_CR2_OIS4;
 8005490:	697b      	ldr	r3, [r7, #20]
 8005492:	f423 4380 	bic.w	r3, r3, #16384	@ 0x4000
 8005496:	617b      	str	r3, [r7, #20]

    /* Set the Output Idle state */
    tmpcr2 |= (OC_Config->OCIdleState << 6U);
 8005498:	683b      	ldr	r3, [r7, #0]
 800549a:	695b      	ldr	r3, [r3, #20]
 800549c:	019b      	lsls	r3, r3, #6
 800549e:	697a      	ldr	r2, [r7, #20]
 80054a0:	4313      	orrs	r3, r2
 80054a2:	617b      	str	r3, [r7, #20]
  }

  /* Write to TIMx CR2 */
  TIMx->CR2 = tmpcr2;
 80054a4:	687b      	ldr	r3, [r7, #4]
 80054a6:	697a      	ldr	r2, [r7, #20]
 80054a8:	605a      	str	r2, [r3, #4]

  /* Write to TIMx CCMR2 */
  TIMx->CCMR2 = tmpccmrx;
 80054aa:	687b      	ldr	r3, [r7, #4]
 80054ac:	68fa      	ldr	r2, [r7, #12]
 80054ae:	61da      	str	r2, [r3, #28]

  /* Set the Capture Compare Register value */
  TIMx->CCR4 = OC_Config->Pulse;
 80054b0:	683b      	ldr	r3, [r7, #0]
 80054b2:	685a      	ldr	r2, [r3, #4]
 80054b4:	687b      	ldr	r3, [r7, #4]
 80054b6:	641a      	str	r2, [r3, #64]	@ 0x40

  /* Write to TIMx CCER */
  TIMx->CCER = tmpccer;
 80054b8:	687b      	ldr	r3, [r7, #4]
 80054ba:	693a      	ldr	r2, [r7, #16]
 80054bc:	621a      	str	r2, [r3, #32]
}
 80054be:	bf00      	nop
 80054c0:	371c      	adds	r7, #28
 80054c2:	46bd      	mov	sp, r7
 80054c4:	bc80      	pop	{r7}
 80054c6:	4770      	bx	lr
 80054c8:	40012c00 	.word	0x40012c00

080054cc <TIM_TI1_ConfigInputStage>:
  * @param  TIM_ICFilter Specifies the Input Capture Filter.
  *          This parameter must be a value between 0x00 and 0x0F.
  * @retval None
  */
static void TIM_TI1_ConfigInputStage(TIM_TypeDef *TIMx, uint32_t TIM_ICPolarity, uint32_t TIM_ICFilter)
{
 80054cc:	b480      	push	{r7}
 80054ce:	b087      	sub	sp, #28
 80054d0:	af00      	add	r7, sp, #0
 80054d2:	60f8      	str	r0, [r7, #12]
 80054d4:	60b9      	str	r1, [r7, #8]
 80054d6:	607a      	str	r2, [r7, #4]
  uint32_t tmpccmr1;
  uint32_t tmpccer;

  /* Disable the Channel 1: Reset the CC1E Bit */
  tmpccer = TIMx->CCER;
 80054d8:	68fb      	ldr	r3, [r7, #12]
 80054da:	6a1b      	ldr	r3, [r3, #32]
 80054dc:	617b      	str	r3, [r7, #20]
  TIMx->CCER &= ~TIM_CCER_CC1E;
 80054de:	68fb      	ldr	r3, [r7, #12]
 80054e0:	6a1b      	ldr	r3, [r3, #32]
 80054e2:	f023 0201 	bic.w	r2, r3, #1
 80054e6:	68fb      	ldr	r3, [r7, #12]
 80054e8:	621a      	str	r2, [r3, #32]
  tmpccmr1 = TIMx->CCMR1;
 80054ea:	68fb      	ldr	r3, [r7, #12]
 80054ec:	699b      	ldr	r3, [r3, #24]
 80054ee:	613b      	str	r3, [r7, #16]

  /* Set the filter */
  tmpccmr1 &= ~TIM_CCMR1_IC1F;
 80054f0:	693b      	ldr	r3, [r7, #16]
 80054f2:	f023 03f0 	bic.w	r3, r3, #240	@ 0xf0
 80054f6:	613b      	str	r3, [r7, #16]
  tmpccmr1 |= (TIM_ICFilter << 4U);
 80054f8:	687b      	ldr	r3, [r7, #4]
 80054fa:	011b      	lsls	r3, r3, #4
 80054fc:	693a      	ldr	r2, [r7, #16]
 80054fe:	4313      	orrs	r3, r2
 8005500:	613b      	str	r3, [r7, #16]

  /* Select the Polarity and set the CC1E Bit */
  tmpccer &= ~(TIM_CCER_CC1P | TIM_CCER_CC1NP);
 8005502:	697b      	ldr	r3, [r7, #20]
 8005504:	f023 030a 	bic.w	r3, r3, #10
 8005508:	617b      	str	r3, [r7, #20]
  tmpccer |= TIM_ICPolarity;
 800550a:	697a      	ldr	r2, [r7, #20]
 800550c:	68bb      	ldr	r3, [r7, #8]
 800550e:	4313      	orrs	r3, r2
 8005510:	617b      	str	r3, [r7, #20]

  /* Write to TIMx CCMR1 and CCER registers */
  TIMx->CCMR1 = tmpccmr1;
 8005512:	68fb      	ldr	r3, [r7, #12]
 8005514:	693a      	ldr	r2, [r7, #16]
 8005516:	619a      	str	r2, [r3, #24]
  TIMx->CCER = tmpccer;
 8005518:	68fb      	ldr	r3, [r7, #12]
 800551a:	697a      	ldr	r2, [r7, #20]
 800551c:	621a      	str	r2, [r3, #32]
}
 800551e:	bf00      	nop
 8005520:	371c      	adds	r7, #28
 8005522:	46bd      	mov	sp, r7
 8005524:	bc80      	pop	{r7}
 8005526:	4770      	bx	lr

08005528 <TIM_TI2_ConfigInputStage>:
  * @param  TIM_ICFilter Specifies the Input Capture Filter.
  *          This parameter must be a value between 0x00 and 0x0F.
  * @retval None
  */
static void TIM_TI2_ConfigInputStage(TIM_TypeDef *TIMx, uint32_t TIM_ICPolarity, uint32_t TIM_ICFilter)
{
 8005528:	b480      	push	{r7}
 800552a:	b087      	sub	sp, #28
 800552c:	af00      	add	r7, sp, #0
 800552e:	60f8      	str	r0, [r7, #12]
 8005530:	60b9      	str	r1, [r7, #8]
 8005532:	607a      	str	r2, [r7, #4]
  uint32_t tmpccmr1;
  uint32_t tmpccer;

  /* Disable the Channel 2: Reset the CC2E Bit */
  tmpccer = TIMx->CCER;
 8005534:	68fb      	ldr	r3, [r7, #12]
 8005536:	6a1b      	ldr	r3, [r3, #32]
 8005538:	617b      	str	r3, [r7, #20]
  TIMx->CCER &= ~TIM_CCER_CC2E;
 800553a:	68fb      	ldr	r3, [r7, #12]
 800553c:	6a1b      	ldr	r3, [r3, #32]
 800553e:	f023 0210 	bic.w	r2, r3, #16
 8005542:	68fb      	ldr	r3, [r7, #12]
 8005544:	621a      	str	r2, [r3, #32]
  tmpccmr1 = TIMx->CCMR1;
 8005546:	68fb      	ldr	r3, [r7, #12]
 8005548:	699b      	ldr	r3, [r3, #24]
 800554a:	613b      	str	r3, [r7, #16]

  /* Set the filter */
  tmpccmr1 &= ~TIM_CCMR1_IC2F;
 800554c:	693b      	ldr	r3, [r7, #16]
 800554e:	f423 4370 	bic.w	r3, r3, #61440	@ 0xf000
 8005552:	613b      	str	r3, [r7, #16]
  tmpccmr1 |= (TIM_ICFilter << 12U);
 8005554:	687b      	ldr	r3, [r7, #4]
 8005556:	031b      	lsls	r3, r3, #12
 8005558:	693a      	ldr	r2, [r7, #16]
 800555a:	4313      	orrs	r3, r2
 800555c:	613b      	str	r3, [r7, #16]

  /* Select the Polarity and set the CC2E Bit */
  tmpccer &= ~(TIM_CCER_CC2P | TIM_CCER_CC2NP);
 800555e:	697b      	ldr	r3, [r7, #20]
 8005560:	f023 03a0 	bic.w	r3, r3, #160	@ 0xa0
 8005564:	617b      	str	r3, [r7, #20]
  tmpccer |= (TIM_ICPolarity << 4U);
 8005566:	68bb      	ldr	r3, [r7, #8]
 8005568:	011b      	lsls	r3, r3, #4
 800556a:	697a      	ldr	r2, [r7, #20]
 800556c:	4313      	orrs	r3, r2
 800556e:	617b      	str	r3, [r7, #20]

  /* Write to TIMx CCMR1 and CCER registers */
  TIMx->CCMR1 = tmpccmr1 ;
 8005570:	68fb      	ldr	r3, [r7, #12]
 8005572:	693a      	ldr	r2, [r7, #16]
 8005574:	619a      	str	r2, [r3, #24]
  TIMx->CCER = tmpccer;
 8005576:	68fb      	ldr	r3, [r7, #12]
 8005578:	697a      	ldr	r2, [r7, #20]
 800557a:	621a      	str	r2, [r3, #32]
}
 800557c:	bf00      	nop
 800557e:	371c      	adds	r7, #28
 8005580:	46bd      	mov	sp, r7
 8005582:	bc80      	pop	{r7}
 8005584:	4770      	bx	lr

08005586 <TIM_ITRx_SetConfig>:
  *            @arg TIM_TS_TI2FP2: Filtered Timer Input 2
  *            @arg TIM_TS_ETRF: External Trigger input
  * @retval None
  */
static void TIM_ITRx_SetConfig(TIM_TypeDef *TIMx, uint32_t InputTriggerSource)
{
 8005586:	b480      	push	{r7}
 8005588:	b085      	sub	sp, #20
 800558a:	af00      	add	r7, sp, #0
 800558c:	6078      	str	r0, [r7, #4]
 800558e:	6039      	str	r1, [r7, #0]
  uint32_t tmpsmcr;

  /* Get the TIMx SMCR register value */
  tmpsmcr = TIMx->SMCR;
 8005590:	687b      	ldr	r3, [r7, #4]
 8005592:	689b      	ldr	r3, [r3, #8]
 8005594:	60fb      	str	r3, [r7, #12]
  /* Reset the TS Bits */
  tmpsmcr &= ~TIM_SMCR_TS;
 8005596:	68fb      	ldr	r3, [r7, #12]
 8005598:	f023 0370 	bic.w	r3, r3, #112	@ 0x70
 800559c:	60fb      	str	r3, [r7, #12]
  /* Set the Input Trigger source and the slave mode*/
  tmpsmcr |= (InputTriggerSource | TIM_SLAVEMODE_EXTERNAL1);
 800559e:	683a      	ldr	r2, [r7, #0]
 80055a0:	68fb      	ldr	r3, [r7, #12]
 80055a2:	4313      	orrs	r3, r2
 80055a4:	f043 0307 	orr.w	r3, r3, #7
 80055a8:	60fb      	str	r3, [r7, #12]
  /* Write to TIMx SMCR */
  TIMx->SMCR = tmpsmcr;
 80055aa:	687b      	ldr	r3, [r7, #4]
 80055ac:	68fa      	ldr	r2, [r7, #12]
 80055ae:	609a      	str	r2, [r3, #8]
}
 80055b0:	bf00      	nop
 80055b2:	3714      	adds	r7, #20
 80055b4:	46bd      	mov	sp, r7
 80055b6:	bc80      	pop	{r7}
 80055b8:	4770      	bx	lr

080055ba <TIM_ETR_SetConfig>:
  *          This parameter must be a value between 0x00 and 0x0F
  * @retval None
  */
void TIM_ETR_SetConfig(TIM_TypeDef *TIMx, uint32_t TIM_ExtTRGPrescaler,
                       uint32_t TIM_ExtTRGPolarity, uint32_t ExtTRGFilter)
{
 80055ba:	b480      	push	{r7}
 80055bc:	b087      	sub	sp, #28
 80055be:	af00      	add	r7, sp, #0
 80055c0:	60f8      	str	r0, [r7, #12]
 80055c2:	60b9      	str	r1, [r7, #8]
 80055c4:	607a      	str	r2, [r7, #4]
 80055c6:	603b      	str	r3, [r7, #0]
  uint32_t tmpsmcr;

  tmpsmcr = TIMx->SMCR;
 80055c8:	68fb      	ldr	r3, [r7, #12]
 80055ca:	689b      	ldr	r3, [r3, #8]
 80055cc:	617b      	str	r3, [r7, #20]

  /* Reset the ETR Bits */
  tmpsmcr &= ~(TIM_SMCR_ETF | TIM_SMCR_ETPS | TIM_SMCR_ECE | TIM_SMCR_ETP);
 80055ce:	697b      	ldr	r3, [r7, #20]
 80055d0:	f423 437f 	bic.w	r3, r3, #65280	@ 0xff00
 80055d4:	617b      	str	r3, [r7, #20]

  /* Set the Prescaler, the Filter value and the Polarity */
  tmpsmcr |= (uint32_t)(TIM_ExtTRGPrescaler | (TIM_ExtTRGPolarity | (ExtTRGFilter << 8U)));
 80055d6:	683b      	ldr	r3, [r7, #0]
 80055d8:	021a      	lsls	r2, r3, #8
 80055da:	687b      	ldr	r3, [r7, #4]
 80055dc:	431a      	orrs	r2, r3
 80055de:	68bb      	ldr	r3, [r7, #8]
 80055e0:	4313      	orrs	r3, r2
 80055e2:	697a      	ldr	r2, [r7, #20]
 80055e4:	4313      	orrs	r3, r2
 80055e6:	617b      	str	r3, [r7, #20]

  /* Write to TIMx SMCR */
  TIMx->SMCR = tmpsmcr;
 80055e8:	68fb      	ldr	r3, [r7, #12]
 80055ea:	697a      	ldr	r2, [r7, #20]
 80055ec:	609a      	str	r2, [r3, #8]
}
 80055ee:	bf00      	nop
 80055f0:	371c      	adds	r7, #28
 80055f2:	46bd      	mov	sp, r7
 80055f4:	bc80      	pop	{r7}
 80055f6:	4770      	bx	lr

080055f8 <TIM_CCxChannelCmd>:
  * @param  ChannelState specifies the TIM Channel CCxE bit new state.
  *          This parameter can be: TIM_CCx_ENABLE or TIM_CCx_DISABLE.
  * @retval None
  */
void TIM_CCxChannelCmd(TIM_TypeDef *TIMx, uint32_t Channel, uint32_t ChannelState)
{
 80055f8:	b480      	push	{r7}
 80055fa:	b087      	sub	sp, #28
 80055fc:	af00      	add	r7, sp, #0
 80055fe:	60f8      	str	r0, [r7, #12]
 8005600:	60b9      	str	r1, [r7, #8]
 8005602:	607a      	str	r2, [r7, #4]

  /* Check the parameters */
  assert_param(IS_TIM_CC1_INSTANCE(TIMx));
  assert_param(IS_TIM_CHANNELS(Channel));

  tmp = TIM_CCER_CC1E << (Channel & 0x1FU); /* 0x1FU = 31 bits max shift */
 8005604:	68bb      	ldr	r3, [r7, #8]
 8005606:	f003 031f 	and.w	r3, r3, #31
 800560a:	2201      	movs	r2, #1
 800560c:	fa02 f303 	lsl.w	r3, r2, r3
 8005610:	617b      	str	r3, [r7, #20]

  /* Reset the CCxE Bit */
  TIMx->CCER &= ~tmp;
 8005612:	68fb      	ldr	r3, [r7, #12]
 8005614:	6a1a      	ldr	r2, [r3, #32]
 8005616:	697b      	ldr	r3, [r7, #20]
 8005618:	43db      	mvns	r3, r3
 800561a:	401a      	ands	r2, r3
 800561c:	68fb      	ldr	r3, [r7, #12]
 800561e:	621a      	str	r2, [r3, #32]

  /* Set or reset the CCxE Bit */
  TIMx->CCER |= (uint32_t)(ChannelState << (Channel & 0x1FU)); /* 0x1FU = 31 bits max shift */
 8005620:	68fb      	ldr	r3, [r7, #12]
 8005622:	6a1a      	ldr	r2, [r3, #32]
 8005624:	68bb      	ldr	r3, [r7, #8]
 8005626:	f003 031f 	and.w	r3, r3, #31
 800562a:	6879      	ldr	r1, [r7, #4]
 800562c:	fa01 f303 	lsl.w	r3, r1, r3
 8005630:	431a      	orrs	r2, r3
 8005632:	68fb      	ldr	r3, [r7, #12]
 8005634:	621a      	str	r2, [r3, #32]
}
 8005636:	bf00      	nop
 8005638:	371c      	adds	r7, #28
 800563a:	46bd      	mov	sp, r7
 800563c:	bc80      	pop	{r7}
 800563e:	4770      	bx	lr

08005640 <HAL_TIMEx_MasterConfigSynchronization>:
  *         mode.
  * @retval HAL status
  */
HAL_StatusTypeDef HAL_TIMEx_MasterConfigSynchronization(TIM_HandleTypeDef *htim,
                                                        const TIM_MasterConfigTypeDef *sMasterConfig)
{
 8005640:	b480      	push	{r7}
 8005642:	b085      	sub	sp, #20
 8005644:	af00      	add	r7, sp, #0
 8005646:	6078      	str	r0, [r7, #4]
 8005648:	6039      	str	r1, [r7, #0]
  assert_param(IS_TIM_MASTER_INSTANCE(htim->Instance));
  assert_param(IS_TIM_TRGO_SOURCE(sMasterConfig->MasterOutputTrigger));
  assert_param(IS_TIM_MSM_STATE(sMasterConfig->MasterSlaveMode));

  /* Check input state */
  __HAL_LOCK(htim);
 800564a:	687b      	ldr	r3, [r7, #4]
 800564c:	f893 303c 	ldrb.w	r3, [r3, #60]	@ 0x3c
 8005650:	2b01      	cmp	r3, #1
 8005652:	d101      	bne.n	8005658 <HAL_TIMEx_MasterConfigSynchronization+0x18>
 8005654:	2302      	movs	r3, #2
 8005656:	e041      	b.n	80056dc <HAL_TIMEx_MasterConfigSynchronization+0x9c>
 8005658:	687b      	ldr	r3, [r7, #4]
 800565a:	2201      	movs	r2, #1
 800565c:	f883 203c 	strb.w	r2, [r3, #60]	@ 0x3c

  /* Change the handler state */
  htim->State = HAL_TIM_STATE_BUSY;
 8005660:	687b      	ldr	r3, [r7, #4]
 8005662:	2202      	movs	r2, #2
 8005664:	f883 203d 	strb.w	r2, [r3, #61]	@ 0x3d

  /* Get the TIMx CR2 register value */
  tmpcr2 = htim->Instance->CR2;
 8005668:	687b      	ldr	r3, [r7, #4]
 800566a:	681b      	ldr	r3, [r3, #0]
 800566c:	685b      	ldr	r3, [r3, #4]
 800566e:	60fb      	str	r3, [r7, #12]

  /* Get the TIMx SMCR register value */
  tmpsmcr = htim->Instance->SMCR;
 8005670:	687b      	ldr	r3, [r7, #4]
 8005672:	681b      	ldr	r3, [r3, #0]
 8005674:	689b      	ldr	r3, [r3, #8]
 8005676:	60bb      	str	r3, [r7, #8]

  /* Reset the MMS Bits */
  tmpcr2 &= ~TIM_CR2_MMS;
 8005678:	68fb      	ldr	r3, [r7, #12]
 800567a:	f023 0370 	bic.w	r3, r3, #112	@ 0x70
 800567e:	60fb      	str	r3, [r7, #12]
  /* Select the TRGO source */
  tmpcr2 |=  sMasterConfig->MasterOutputTrigger;
 8005680:	683b      	ldr	r3, [r7, #0]
 8005682:	681b      	ldr	r3, [r3, #0]
 8005684:	68fa      	ldr	r2, [r7, #12]
 8005686:	4313      	orrs	r3, r2
 8005688:	60fb      	str	r3, [r7, #12]

  /* Update TIMx CR2 */
  htim->Instance->CR2 = tmpcr2;
 800568a:	687b      	ldr	r3, [r7, #4]
 800568c:	681b      	ldr	r3, [r3, #0]
 800568e:	68fa      	ldr	r2, [r7, #12]
 8005690:	605a      	str	r2, [r3, #4]

  if (IS_TIM_SLAVE_INSTANCE(htim->Instance))
 8005692:	687b      	ldr	r3, [r7, #4]
 8005694:	681b      	ldr	r3, [r3, #0]
 8005696:	4a14      	ldr	r2, [pc, #80]	@ (80056e8 <HAL_TIMEx_MasterConfigSynchronization+0xa8>)
 8005698:	4293      	cmp	r3, r2
 800569a:	d009      	beq.n	80056b0 <HAL_TIMEx_MasterConfigSynchronization+0x70>
 800569c:	687b      	ldr	r3, [r7, #4]
 800569e:	681b      	ldr	r3, [r3, #0]
 80056a0:	f1b3 4f80 	cmp.w	r3, #1073741824	@ 0x40000000
 80056a4:	d004      	beq.n	80056b0 <HAL_TIMEx_MasterConfigSynchronization+0x70>
 80056a6:	687b      	ldr	r3, [r7, #4]
 80056a8:	681b      	ldr	r3, [r3, #0]
 80056aa:	4a10      	ldr	r2, [pc, #64]	@ (80056ec <HAL_TIMEx_MasterConfigSynchronization+0xac>)
 80056ac:	4293      	cmp	r3, r2
 80056ae:	d10c      	bne.n	80056ca <HAL_TIMEx_MasterConfigSynchronization+0x8a>
  {
    /* Reset the MSM Bit */
    tmpsmcr &= ~TIM_SMCR_MSM;
 80056b0:	68bb      	ldr	r3, [r7, #8]
 80056b2:	f023 0380 	bic.w	r3, r3, #128	@ 0x80
 80056b6:	60bb      	str	r3, [r7, #8]
    /* Set master mode */
    tmpsmcr |= sMasterConfig->MasterSlaveMode;
 80056b8:	683b      	ldr	r3, [r7, #0]
 80056ba:	685b      	ldr	r3, [r3, #4]
 80056bc:	68ba      	ldr	r2, [r7, #8]
 80056be:	4313      	orrs	r3, r2
 80056c0:	60bb      	str	r3, [r7, #8]

    /* Update TIMx SMCR */
    htim->Instance->SMCR = tmpsmcr;
 80056c2:	687b      	ldr	r3, [r7, #4]
 80056c4:	681b      	ldr	r3, [r3, #0]
 80056c6:	68ba      	ldr	r2, [r7, #8]
 80056c8:	609a      	str	r2, [r3, #8]
  }

  /* Change the htim state */
  htim->State = HAL_TIM_STATE_READY;
 80056ca:	687b      	ldr	r3, [r7, #4]
 80056cc:	2201      	movs	r2, #1
 80056ce:	f883 203d 	strb.w	r2, [r3, #61]	@ 0x3d

  __HAL_UNLOCK(htim);
 80056d2:	687b      	ldr	r3, [r7, #4]
 80056d4:	2200      	movs	r2, #0
 80056d6:	f883 203c 	strb.w	r2, [r3, #60]	@ 0x3c

  return HAL_OK;
 80056da:	2300      	movs	r3, #0
}
 80056dc:	4618      	mov	r0, r3
 80056de:	3714      	adds	r7, #20
 80056e0:	46bd      	mov	sp, r7
 80056e2:	bc80      	pop	{r7}
 80056e4:	4770      	bx	lr
 80056e6:	bf00      	nop
 80056e8:	40012c00 	.word	0x40012c00
 80056ec:	40000400 	.word	0x40000400

080056f0 <HAL_TIMEx_ConfigBreakDeadTime>:
  *         interrupt can be enabled by calling the @ref __HAL_TIM_ENABLE_IT macro.
  * @retval HAL status
  */
HAL_StatusTypeDef HAL_TIMEx_ConfigBreakDeadTime(TIM_HandleTypeDef *htim,
                                                const TIM_BreakDeadTimeConfigTypeDef *sBreakDeadTimeConfig)
{
 80056f0:	b480      	push	{r7}
 80056f2:	b085      	sub	sp, #20
 80056f4:	af00      	add	r7, sp, #0
 80056f6:	6078      	str	r0, [r7, #4]
 80056f8:	6039      	str	r1, [r7, #0]
  /* Keep this variable initialized to 0 as it is used to configure BDTR register */
  uint32_t tmpbdtr = 0U;
 80056fa:	2300      	movs	r3, #0
 80056fc:	60fb      	str	r3, [r7, #12]
  assert_param(IS_TIM_BREAK_STATE(sBreakDeadTimeConfig->BreakState));
  assert_param(IS_TIM_BREAK_POLARITY(sBreakDeadTimeConfig->BreakPolarity));
  assert_param(IS_TIM_AUTOMATIC_OUTPUT_STATE(sBreakDeadTimeConfig->AutomaticOutput));

  /* Check input state */
  __HAL_LOCK(htim);
 80056fe:	687b      	ldr	r3, [r7, #4]
 8005700:	f893 303c 	ldrb.w	r3, [r3, #60]	@ 0x3c
 8005704:	2b01      	cmp	r3, #1
 8005706:	d101      	bne.n	800570c <HAL_TIMEx_ConfigBreakDeadTime+0x1c>
 8005708:	2302      	movs	r3, #2
 800570a:	e03d      	b.n	8005788 <HAL_TIMEx_ConfigBreakDeadTime+0x98>
 800570c:	687b      	ldr	r3, [r7, #4]
 800570e:	2201      	movs	r2, #1
 8005710:	f883 203c 	strb.w	r2, [r3, #60]	@ 0x3c

  /* Set the Lock level, the Break enable Bit and the Polarity, the OSSR State,
     the OSSI State, the dead time value and the Automatic Output Enable Bit */

  /* Set the BDTR bits */
  MODIFY_REG(tmpbdtr, TIM_BDTR_DTG, sBreakDeadTimeConfig->DeadTime);
 8005714:	68fb      	ldr	r3, [r7, #12]
 8005716:	f023 02ff 	bic.w	r2, r3, #255	@ 0xff
 800571a:	683b      	ldr	r3, [r7, #0]
 800571c:	68db      	ldr	r3, [r3, #12]
 800571e:	4313      	orrs	r3, r2
 8005720:	60fb      	str	r3, [r7, #12]
  MODIFY_REG(tmpbdtr, TIM_BDTR_LOCK, sBreakDeadTimeConfig->LockLevel);
 8005722:	68fb      	ldr	r3, [r7, #12]
 8005724:	f423 7240 	bic.w	r2, r3, #768	@ 0x300
 8005728:	683b      	ldr	r3, [r7, #0]
 800572a:	689b      	ldr	r3, [r3, #8]
 800572c:	4313      	orrs	r3, r2
 800572e:	60fb      	str	r3, [r7, #12]
  MODIFY_REG(tmpbdtr, TIM_BDTR_OSSI, sBreakDeadTimeConfig->OffStateIDLEMode);
 8005730:	68fb      	ldr	r3, [r7, #12]
 8005732:	f423 6280 	bic.w	r2, r3, #1024	@ 0x400
 8005736:	683b      	ldr	r3, [r7, #0]
 8005738:	685b      	ldr	r3, [r3, #4]
 800573a:	4313      	orrs	r3, r2
 800573c:	60fb      	str	r3, [r7, #12]
  MODIFY_REG(tmpbdtr, TIM_BDTR_OSSR, sBreakDeadTimeConfig->OffStateRunMode);
 800573e:	68fb      	ldr	r3, [r7, #12]
 8005740:	f423 6200 	bic.w	r2, r3, #2048	@ 0x800
 8005744:	683b      	ldr	r3, [r7, #0]
 8005746:	681b      	ldr	r3, [r3, #0]
 8005748:	4313      	orrs	r3, r2
 800574a:	60fb      	str	r3, [r7, #12]
  MODIFY_REG(tmpbdtr, TIM_BDTR_BKE, sBreakDeadTimeConfig->BreakState);
 800574c:	68fb      	ldr	r3, [r7, #12]
 800574e:	f423 5280 	bic.w	r2, r3, #4096	@ 0x1000
 8005752:	683b      	ldr	r3, [r7, #0]
 8005754:	691b      	ldr	r3, [r3, #16]
 8005756:	4313      	orrs	r3, r2
 8005758:	60fb      	str	r3, [r7, #12]
  MODIFY_REG(tmpbdtr, TIM_BDTR_BKP, sBreakDeadTimeConfig->BreakPolarity);
 800575a:	68fb      	ldr	r3, [r7, #12]
 800575c:	f423 5200 	bic.w	r2, r3, #8192	@ 0x2000
 8005760:	683b      	ldr	r3, [r7, #0]
 8005762:	695b      	ldr	r3, [r3, #20]
 8005764:	4313      	orrs	r3, r2
 8005766:	60fb      	str	r3, [r7, #12]
  MODIFY_REG(tmpbdtr, TIM_BDTR_AOE, sBreakDeadTimeConfig->AutomaticOutput);
 8005768:	68fb      	ldr	r3, [r7, #12]
 800576a:	f423 4280 	bic.w	r2, r3, #16384	@ 0x4000
 800576e:	683b      	ldr	r3, [r7, #0]
 8005770:	69db      	ldr	r3, [r3, #28]
 8005772:	4313      	orrs	r3, r2
 8005774:	60fb      	str	r3, [r7, #12]


  /* Set TIMx_BDTR */
  htim->Instance->BDTR = tmpbdtr;
 8005776:	687b      	ldr	r3, [r7, #4]
 8005778:	681b      	ldr	r3, [r3, #0]
 800577a:	68fa      	ldr	r2, [r7, #12]
 800577c:	645a      	str	r2, [r3, #68]	@ 0x44

  __HAL_UNLOCK(htim);
 800577e:	687b      	ldr	r3, [r7, #4]
 8005780:	2200      	movs	r2, #0
 8005782:	f883 203c 	strb.w	r2, [r3, #60]	@ 0x3c

  return HAL_OK;
 8005786:	2300      	movs	r3, #0
}
 8005788:	4618      	mov	r0, r3
 800578a:	3714      	adds	r7, #20
 800578c:	46bd      	mov	sp, r7
 800578e:	bc80      	pop	{r7}
 8005790:	4770      	bx	lr

08005792 <HAL_TIMEx_CommutCallback>:
  * @brief  Commutation callback in non-blocking mode
  * @param  htim TIM handle
  * @retval None
  */
__weak void HAL_TIMEx_CommutCallback(TIM_HandleTypeDef *htim)
{
 8005792:	b480      	push	{r7}
 8005794:	b083      	sub	sp, #12
 8005796:	af00      	add	r7, sp, #0
 8005798:	6078      	str	r0, [r7, #4]
  UNUSED(htim);

  /* NOTE : This function should not be modified, when the callback is needed,
            the HAL_TIMEx_CommutCallback could be implemented in the user file
   */
}
 800579a:	bf00      	nop
 800579c:	370c      	adds	r7, #12
 800579e:	46bd      	mov	sp, r7
 80057a0:	bc80      	pop	{r7}
 80057a2:	4770      	bx	lr

080057a4 <HAL_TIMEx_BreakCallback>:
  * @brief  Break detection callback in non-blocking mode
  * @param  htim TIM handle
  * @retval None
  */
__weak void HAL_TIMEx_BreakCallback(TIM_HandleTypeDef *htim)
{
 80057a4:	b480      	push	{r7}
 80057a6:	b083      	sub	sp, #12
 80057a8:	af00      	add	r7, sp, #0
 80057aa:	6078      	str	r0, [r7, #4]
  UNUSED(htim);

  /* NOTE : This function should not be modified, when the callback is needed,
            the HAL_TIMEx_BreakCallback could be implemented in the user file
   */
}
 80057ac:	bf00      	nop
 80057ae:	370c      	adds	r7, #12
 80057b0:	46bd      	mov	sp, r7
 80057b2:	bc80      	pop	{r7}
 80057b4:	4770      	bx	lr

080057b6 <makeFreeRtosPriority>:

extern void xPortSysTickHandler(void);

/* Convert from CMSIS type osPriority to FreeRTOS priority number */
static unsigned portBASE_TYPE makeFreeRtosPriority (osPriority priority)
{
 80057b6:	b480      	push	{r7}
 80057b8:	b085      	sub	sp, #20
 80057ba:	af00      	add	r7, sp, #0
 80057bc:	4603      	mov	r3, r0
 80057be:	80fb      	strh	r3, [r7, #6]
  unsigned portBASE_TYPE fpriority = tskIDLE_PRIORITY;
 80057c0:	2300      	movs	r3, #0
 80057c2:	60fb      	str	r3, [r7, #12]
  
  if (priority != osPriorityError) {
 80057c4:	f9b7 3006 	ldrsh.w	r3, [r7, #6]
 80057c8:	2b84      	cmp	r3, #132	@ 0x84
 80057ca:	d005      	beq.n	80057d8 <makeFreeRtosPriority+0x22>
    fpriority += (priority - osPriorityIdle);
 80057cc:	f9b7 2006 	ldrsh.w	r2, [r7, #6]
 80057d0:	68fb      	ldr	r3, [r7, #12]
 80057d2:	4413      	add	r3, r2
 80057d4:	3303      	adds	r3, #3
 80057d6:	60fb      	str	r3, [r7, #12]
  }
  
  return fpriority;
 80057d8:	68fb      	ldr	r3, [r7, #12]
}
 80057da:	4618      	mov	r0, r3
 80057dc:	3714      	adds	r7, #20
 80057de:	46bd      	mov	sp, r7
 80057e0:	bc80      	pop	{r7}
 80057e2:	4770      	bx	lr

080057e4 <osKernelStart>:
* @param  argument      pointer that is passed to the thread function as start argument.
* @retval status code that indicates the execution status of the function
* @note   MUST REMAIN UNCHANGED: \b osKernelStart shall be consistent in every CMSIS-RTOS.
*/
osStatus osKernelStart (void)
{
 80057e4:	b580      	push	{r7, lr}
 80057e6:	af00      	add	r7, sp, #0
  vTaskStartScheduler();
 80057e8:	f000 faf8 	bl	8005ddc <vTaskStartScheduler>
  
  return osOK;
 80057ec:	2300      	movs	r3, #0
}
 80057ee:	4618      	mov	r0, r3
 80057f0:	bd80      	pop	{r7, pc}

080057f2 <osThreadCreate>:
* @param  argument      pointer that is passed to the thread function as start argument.
* @retval thread ID for reference by other functions or NULL in case of error.
* @note   MUST REMAIN UNCHANGED: \b osThreadCreate shall be consistent in every CMSIS-RTOS.
*/
osThreadId osThreadCreate (const osThreadDef_t *thread_def, void *argument)
{
 80057f2:	b5f0      	push	{r4, r5, r6, r7, lr}
 80057f4:	b089      	sub	sp, #36	@ 0x24
 80057f6:	af04      	add	r7, sp, #16
 80057f8:	6078      	str	r0, [r7, #4]
 80057fa:	6039      	str	r1, [r7, #0]
  TaskHandle_t handle;
  
#if( configSUPPORT_STATIC_ALLOCATION == 1 ) &&  ( configSUPPORT_DYNAMIC_ALLOCATION == 1 )
  if((thread_def->buffer != NULL) && (thread_def->controlblock != NULL)) {
 80057fc:	687b      	ldr	r3, [r7, #4]
 80057fe:	695b      	ldr	r3, [r3, #20]
 8005800:	2b00      	cmp	r3, #0
 8005802:	d020      	beq.n	8005846 <osThreadCreate+0x54>
 8005804:	687b      	ldr	r3, [r7, #4]
 8005806:	699b      	ldr	r3, [r3, #24]
 8005808:	2b00      	cmp	r3, #0
 800580a:	d01c      	beq.n	8005846 <osThreadCreate+0x54>
    handle = xTaskCreateStatic((TaskFunction_t)thread_def->pthread,(const portCHAR *)thread_def->name,
 800580c:	687b      	ldr	r3, [r7, #4]
 800580e:	685c      	ldr	r4, [r3, #4]
 8005810:	687b      	ldr	r3, [r7, #4]
 8005812:	681d      	ldr	r5, [r3, #0]
              thread_def->stacksize, argument, makeFreeRtosPriority(thread_def->tpriority),
 8005814:	687b      	ldr	r3, [r7, #4]
 8005816:	691e      	ldr	r6, [r3, #16]
 8005818:	687b      	ldr	r3, [r7, #4]
 800581a:	f9b3 3008 	ldrsh.w	r3, [r3, #8]
    handle = xTaskCreateStatic((TaskFunction_t)thread_def->pthread,(const portCHAR *)thread_def->name,
 800581e:	4618      	mov	r0, r3
 8005820:	f7ff ffc9 	bl	80057b6 <makeFreeRtosPriority>
 8005824:	4601      	mov	r1, r0
              thread_def->buffer, thread_def->controlblock);
 8005826:	687b      	ldr	r3, [r7, #4]
 8005828:	695b      	ldr	r3, [r3, #20]
 800582a:	687a      	ldr	r2, [r7, #4]
 800582c:	6992      	ldr	r2, [r2, #24]
    handle = xTaskCreateStatic((TaskFunction_t)thread_def->pthread,(const portCHAR *)thread_def->name,
 800582e:	9202      	str	r2, [sp, #8]
 8005830:	9301      	str	r3, [sp, #4]
 8005832:	9100      	str	r1, [sp, #0]
 8005834:	683b      	ldr	r3, [r7, #0]
 8005836:	4632      	mov	r2, r6
 8005838:	4629      	mov	r1, r5
 800583a:	4620      	mov	r0, r4
 800583c:	f000 f8e8 	bl	8005a10 <xTaskCreateStatic>
 8005840:	4603      	mov	r3, r0
 8005842:	60fb      	str	r3, [r7, #12]
 8005844:	e01c      	b.n	8005880 <osThreadCreate+0x8e>
  }
  else {
    if (xTaskCreate((TaskFunction_t)thread_def->pthread,(const portCHAR *)thread_def->name,
 8005846:	687b      	ldr	r3, [r7, #4]
 8005848:	685c      	ldr	r4, [r3, #4]
 800584a:	687b      	ldr	r3, [r7, #4]
 800584c:	681d      	ldr	r5, [r3, #0]
              thread_def->stacksize, argument, makeFreeRtosPriority(thread_def->tpriority),
 800584e:	687b      	ldr	r3, [r7, #4]
 8005850:	691b      	ldr	r3, [r3, #16]
    if (xTaskCreate((TaskFunction_t)thread_def->pthread,(const portCHAR *)thread_def->name,
 8005852:	b29e      	uxth	r6, r3
              thread_def->stacksize, argument, makeFreeRtosPriority(thread_def->tpriority),
 8005854:	687b      	ldr	r3, [r7, #4]
 8005856:	f9b3 3008 	ldrsh.w	r3, [r3, #8]
    if (xTaskCreate((TaskFunction_t)thread_def->pthread,(const portCHAR *)thread_def->name,
 800585a:	4618      	mov	r0, r3
 800585c:	f7ff ffab 	bl	80057b6 <makeFreeRtosPriority>
 8005860:	4602      	mov	r2, r0
 8005862:	f107 030c 	add.w	r3, r7, #12
 8005866:	9301      	str	r3, [sp, #4]
 8005868:	9200      	str	r2, [sp, #0]
 800586a:	683b      	ldr	r3, [r7, #0]
 800586c:	4632      	mov	r2, r6
 800586e:	4629      	mov	r1, r5
 8005870:	4620      	mov	r0, r4
 8005872:	f000 f92d 	bl	8005ad0 <xTaskCreate>
 8005876:	4603      	mov	r3, r0
 8005878:	2b01      	cmp	r3, #1
 800587a:	d001      	beq.n	8005880 <osThreadCreate+0x8e>
              &handle) != pdPASS)  {
      return NULL;
 800587c:	2300      	movs	r3, #0
 800587e:	e000      	b.n	8005882 <osThreadCreate+0x90>
                   &handle) != pdPASS)  {
    return NULL;
  }     
#endif
  
  return handle;
 8005880:	68fb      	ldr	r3, [r7, #12]
}
 8005882:	4618      	mov	r0, r3
 8005884:	3714      	adds	r7, #20
 8005886:	46bd      	mov	sp, r7
 8005888:	bdf0      	pop	{r4, r5, r6, r7, pc}

0800588a <osDelay>:
* @brief   Wait for Timeout (Time Delay)
* @param   millisec      time delay value
* @retval  status code that indicates the execution status of the function.
*/
osStatus osDelay (uint32_t millisec)
{
 800588a:	b580      	push	{r7, lr}
 800588c:	b084      	sub	sp, #16
 800588e:	af00      	add	r7, sp, #0
 8005890:	6078      	str	r0, [r7, #4]
#if INCLUDE_vTaskDelay
  TickType_t ticks = millisec / portTICK_PERIOD_MS;
 8005892:	687b      	ldr	r3, [r7, #4]
 8005894:	60fb      	str	r3, [r7, #12]
  
  vTaskDelay(ticks ? ticks : 1);          /* Minimum delay = 1 tick */
 8005896:	68fb      	ldr	r3, [r7, #12]
 8005898:	2b00      	cmp	r3, #0
 800589a:	d001      	beq.n	80058a0 <osDelay+0x16>
 800589c:	68fb      	ldr	r3, [r7, #12]
 800589e:	e000      	b.n	80058a2 <osDelay+0x18>
 80058a0:	2301      	movs	r3, #1
 80058a2:	4618      	mov	r0, r3
 80058a4:	f000 fa64 	bl	8005d70 <vTaskDelay>
  
  return osOK;
 80058a8:	2300      	movs	r3, #0
#else
  (void) millisec;
  
  return osErrorResource;
#endif
}
 80058aa:	4618      	mov	r0, r3
 80058ac:	3710      	adds	r7, #16
 80058ae:	46bd      	mov	sp, r7
 80058b0:	bd80      	pop	{r7, pc}

080058b2 <vListInitialise>:
/*-----------------------------------------------------------
 * PUBLIC LIST API documented in list.h
 *----------------------------------------------------------*/

void vListInitialise( List_t * const pxList )
{
 80058b2:	b480      	push	{r7}
 80058b4:	b083      	sub	sp, #12
 80058b6:	af00      	add	r7, sp, #0
 80058b8:	6078      	str	r0, [r7, #4]
	/* The list structure contains a list item which is used to mark the
	end of the list.  To initialise the list the list end is inserted
	as the only list entry. */
	pxList->pxIndex = ( ListItem_t * ) &( pxList->xListEnd );			/*lint !e826 !e740 !e9087 The mini list structure is used as the list end to save RAM.  This is checked and valid. */
 80058ba:	687b      	ldr	r3, [r7, #4]
 80058bc:	f103 0208 	add.w	r2, r3, #8
 80058c0:	687b      	ldr	r3, [r7, #4]
 80058c2:	605a      	str	r2, [r3, #4]

	/* The list end value is the highest possible value in the list to
	ensure it remains at the end of the list. */
	pxList->xListEnd.xItemValue = portMAX_DELAY;
 80058c4:	687b      	ldr	r3, [r7, #4]
 80058c6:	f04f 32ff 	mov.w	r2, #4294967295	@ 0xffffffff
 80058ca:	609a      	str	r2, [r3, #8]

	/* The list end next and previous pointers point to itself so we know
	when the list is empty. */
	pxList->xListEnd.pxNext = ( ListItem_t * ) &( pxList->xListEnd );	/*lint !e826 !e740 !e9087 The mini list structure is used as the list end to save RAM.  This is checked and valid. */
 80058cc:	687b      	ldr	r3, [r7, #4]
 80058ce:	f103 0208 	add.w	r2, r3, #8
 80058d2:	687b      	ldr	r3, [r7, #4]
 80058d4:	60da      	str	r2, [r3, #12]
	pxList->xListEnd.pxPrevious = ( ListItem_t * ) &( pxList->xListEnd );/*lint !e826 !e740 !e9087 The mini list structure is used as the list end to save RAM.  This is checked and valid. */
 80058d6:	687b      	ldr	r3, [r7, #4]
 80058d8:	f103 0208 	add.w	r2, r3, #8
 80058dc:	687b      	ldr	r3, [r7, #4]
 80058de:	611a      	str	r2, [r3, #16]

	pxList->uxNumberOfItems = ( UBaseType_t ) 0U;
 80058e0:	687b      	ldr	r3, [r7, #4]
 80058e2:	2200      	movs	r2, #0
 80058e4:	601a      	str	r2, [r3, #0]

	/* Write known values into the list if
	configUSE_LIST_DATA_INTEGRITY_CHECK_BYTES is set to 1. */
	listSET_LIST_INTEGRITY_CHECK_1_VALUE( pxList );
	listSET_LIST_INTEGRITY_CHECK_2_VALUE( pxList );
}
 80058e6:	bf00      	nop
 80058e8:	370c      	adds	r7, #12
 80058ea:	46bd      	mov	sp, r7
 80058ec:	bc80      	pop	{r7}
 80058ee:	4770      	bx	lr

080058f0 <vListInitialiseItem>:
/*-----------------------------------------------------------*/

void vListInitialiseItem( ListItem_t * const pxItem )
{
 80058f0:	b480      	push	{r7}
 80058f2:	b083      	sub	sp, #12
 80058f4:	af00      	add	r7, sp, #0
 80058f6:	6078      	str	r0, [r7, #4]
	/* Make sure the list item is not recorded as being on a list. */
	pxItem->pxContainer = NULL;
 80058f8:	687b      	ldr	r3, [r7, #4]
 80058fa:	2200      	movs	r2, #0
 80058fc:	611a      	str	r2, [r3, #16]

	/* Write known values into the list item if
	configUSE_LIST_DATA_INTEGRITY_CHECK_BYTES is set to 1. */
	listSET_FIRST_LIST_ITEM_INTEGRITY_CHECK_VALUE( pxItem );
	listSET_SECOND_LIST_ITEM_INTEGRITY_CHECK_VALUE( pxItem );
}
 80058fe:	bf00      	nop
 8005900:	370c      	adds	r7, #12
 8005902:	46bd      	mov	sp, r7
 8005904:	bc80      	pop	{r7}
 8005906:	4770      	bx	lr

08005908 <vListInsertEnd>:
/*-----------------------------------------------------------*/

void vListInsertEnd( List_t * const pxList, ListItem_t * const pxNewListItem )
{
 8005908:	b480      	push	{r7}
 800590a:	b085      	sub	sp, #20
 800590c:	af00      	add	r7, sp, #0
 800590e:	6078      	str	r0, [r7, #4]
 8005910:	6039      	str	r1, [r7, #0]
ListItem_t * const pxIndex = pxList->pxIndex;
 8005912:	687b      	ldr	r3, [r7, #4]
 8005914:	685b      	ldr	r3, [r3, #4]
 8005916:	60fb      	str	r3, [r7, #12]
	listTEST_LIST_ITEM_INTEGRITY( pxNewListItem );

	/* Insert a new list item into pxList, but rather than sort the list,
	makes the new list item the last item to be removed by a call to
	listGET_OWNER_OF_NEXT_ENTRY(). */
	pxNewListItem->pxNext = pxIndex;
 8005918:	683b      	ldr	r3, [r7, #0]
 800591a:	68fa      	ldr	r2, [r7, #12]
 800591c:	605a      	str	r2, [r3, #4]
	pxNewListItem->pxPrevious = pxIndex->pxPrevious;
 800591e:	68fb      	ldr	r3, [r7, #12]
 8005920:	689a      	ldr	r2, [r3, #8]
 8005922:	683b      	ldr	r3, [r7, #0]
 8005924:	609a      	str	r2, [r3, #8]

	/* Only used during decision coverage testing. */
	mtCOVERAGE_TEST_DELAY();

	pxIndex->pxPrevious->pxNext = pxNewListItem;
 8005926:	68fb      	ldr	r3, [r7, #12]
 8005928:	689b      	ldr	r3, [r3, #8]
 800592a:	683a      	ldr	r2, [r7, #0]
 800592c:	605a      	str	r2, [r3, #4]
	pxIndex->pxPrevious = pxNewListItem;
 800592e:	68fb      	ldr	r3, [r7, #12]
 8005930:	683a      	ldr	r2, [r7, #0]
 8005932:	609a      	str	r2, [r3, #8]

	/* Remember which list the item is in. */
	pxNewListItem->pxContainer = pxList;
 8005934:	683b      	ldr	r3, [r7, #0]
 8005936:	687a      	ldr	r2, [r7, #4]
 8005938:	611a      	str	r2, [r3, #16]

	( pxList->uxNumberOfItems )++;
 800593a:	687b      	ldr	r3, [r7, #4]
 800593c:	681b      	ldr	r3, [r3, #0]
 800593e:	1c5a      	adds	r2, r3, #1
 8005940:	687b      	ldr	r3, [r7, #4]
 8005942:	601a      	str	r2, [r3, #0]
}
 8005944:	bf00      	nop
 8005946:	3714      	adds	r7, #20
 8005948:	46bd      	mov	sp, r7
 800594a:	bc80      	pop	{r7}
 800594c:	4770      	bx	lr

0800594e <vListInsert>:
/*-----------------------------------------------------------*/

void vListInsert( List_t * const pxList, ListItem_t * const pxNewListItem )
{
 800594e:	b480      	push	{r7}
 8005950:	b085      	sub	sp, #20
 8005952:	af00      	add	r7, sp, #0
 8005954:	6078      	str	r0, [r7, #4]
 8005956:	6039      	str	r1, [r7, #0]
ListItem_t *pxIterator;
const TickType_t xValueOfInsertion = pxNewListItem->xItemValue;
 8005958:	683b      	ldr	r3, [r7, #0]
 800595a:	681b      	ldr	r3, [r3, #0]
 800595c:	60bb      	str	r3, [r7, #8]
	new list item should be placed after it.  This ensures that TCBs which are
	stored in ready lists (all of which have the same xItemValue value) get a
	share of the CPU.  However, if the xItemValue is the same as the back marker
	the iteration loop below will not end.  Therefore the value is checked
	first, and the algorithm slightly modified if necessary. */
	if( xValueOfInsertion == portMAX_DELAY )
 800595e:	68bb      	ldr	r3, [r7, #8]
 8005960:	f1b3 3fff 	cmp.w	r3, #4294967295	@ 0xffffffff
 8005964:	d103      	bne.n	800596e <vListInsert+0x20>
	{
		pxIterator = pxList->xListEnd.pxPrevious;
 8005966:	687b      	ldr	r3, [r7, #4]
 8005968:	691b      	ldr	r3, [r3, #16]
 800596a:	60fb      	str	r3, [r7, #12]
 800596c:	e00c      	b.n	8005988 <vListInsert+0x3a>
			4) Using a queue or semaphore before it has been initialised or
			   before the scheduler has been started (are interrupts firing
			   before vTaskStartScheduler() has been called?).
		**********************************************************************/

		for( pxIterator = ( ListItem_t * ) &( pxList->xListEnd ); pxIterator->pxNext->xItemValue <= xValueOfInsertion; pxIterator = pxIterator->pxNext ) /*lint !e826 !e740 !e9087 The mini list structure is used as the list end to save RAM.  This is checked and valid. *//*lint !e440 The iterator moves to a different value, not xValueOfInsertion. */
 800596e:	687b      	ldr	r3, [r7, #4]
 8005970:	3308      	adds	r3, #8
 8005972:	60fb      	str	r3, [r7, #12]
 8005974:	e002      	b.n	800597c <vListInsert+0x2e>
 8005976:	68fb      	ldr	r3, [r7, #12]
 8005978:	685b      	ldr	r3, [r3, #4]
 800597a:	60fb      	str	r3, [r7, #12]
 800597c:	68fb      	ldr	r3, [r7, #12]
 800597e:	685b      	ldr	r3, [r3, #4]
 8005980:	681b      	ldr	r3, [r3, #0]
 8005982:	68ba      	ldr	r2, [r7, #8]
 8005984:	429a      	cmp	r2, r3
 8005986:	d2f6      	bcs.n	8005976 <vListInsert+0x28>
			/* There is nothing to do here, just iterating to the wanted
			insertion position. */
		}
	}

	pxNewListItem->pxNext = pxIterator->pxNext;
 8005988:	68fb      	ldr	r3, [r7, #12]
 800598a:	685a      	ldr	r2, [r3, #4]
 800598c:	683b      	ldr	r3, [r7, #0]
 800598e:	605a      	str	r2, [r3, #4]
	pxNewListItem->pxNext->pxPrevious = pxNewListItem;
 8005990:	683b      	ldr	r3, [r7, #0]
 8005992:	685b      	ldr	r3, [r3, #4]
 8005994:	683a      	ldr	r2, [r7, #0]
 8005996:	609a      	str	r2, [r3, #8]
	pxNewListItem->pxPrevious = pxIterator;
 8005998:	683b      	ldr	r3, [r7, #0]
 800599a:	68fa      	ldr	r2, [r7, #12]
 800599c:	609a      	str	r2, [r3, #8]
	pxIterator->pxNext = pxNewListItem;
 800599e:	68fb      	ldr	r3, [r7, #12]
 80059a0:	683a      	ldr	r2, [r7, #0]
 80059a2:	605a      	str	r2, [r3, #4]

	/* Remember which list the item is in.  This allows fast removal of the
	item later. */
	pxNewListItem->pxContainer = pxList;
 80059a4:	683b      	ldr	r3, [r7, #0]
 80059a6:	687a      	ldr	r2, [r7, #4]
 80059a8:	611a      	str	r2, [r3, #16]

	( pxList->uxNumberOfItems )++;
 80059aa:	687b      	ldr	r3, [r7, #4]
 80059ac:	681b      	ldr	r3, [r3, #0]
 80059ae:	1c5a      	adds	r2, r3, #1
 80059b0:	687b      	ldr	r3, [r7, #4]
 80059b2:	601a      	str	r2, [r3, #0]
}
 80059b4:	bf00      	nop
 80059b6:	3714      	adds	r7, #20
 80059b8:	46bd      	mov	sp, r7
 80059ba:	bc80      	pop	{r7}
 80059bc:	4770      	bx	lr

080059be <uxListRemove>:
/*-----------------------------------------------------------*/

UBaseType_t uxListRemove( ListItem_t * const pxItemToRemove )
{
 80059be:	b480      	push	{r7}
 80059c0:	b085      	sub	sp, #20
 80059c2:	af00      	add	r7, sp, #0
 80059c4:	6078      	str	r0, [r7, #4]
/* The list item knows which list it is in.  Obtain the list from the list
item. */
List_t * const pxList = pxItemToRemove->pxContainer;
 80059c6:	687b      	ldr	r3, [r7, #4]
 80059c8:	691b      	ldr	r3, [r3, #16]
 80059ca:	60fb      	str	r3, [r7, #12]

	pxItemToRemove->pxNext->pxPrevious = pxItemToRemove->pxPrevious;
 80059cc:	687b      	ldr	r3, [r7, #4]
 80059ce:	685b      	ldr	r3, [r3, #4]
 80059d0:	687a      	ldr	r2, [r7, #4]
 80059d2:	6892      	ldr	r2, [r2, #8]
 80059d4:	609a      	str	r2, [r3, #8]
	pxItemToRemove->pxPrevious->pxNext = pxItemToRemove->pxNext;
 80059d6:	687b      	ldr	r3, [r7, #4]
 80059d8:	689b      	ldr	r3, [r3, #8]
 80059da:	687a      	ldr	r2, [r7, #4]
 80059dc:	6852      	ldr	r2, [r2, #4]
 80059de:	605a      	str	r2, [r3, #4]

	/* Only used during decision coverage testing. */
	mtCOVERAGE_TEST_DELAY();

	/* Make sure the index is left pointing to a valid item. */
	if( pxList->pxIndex == pxItemToRemove )
 80059e0:	68fb      	ldr	r3, [r7, #12]
 80059e2:	685b      	ldr	r3, [r3, #4]
 80059e4:	687a      	ldr	r2, [r7, #4]
 80059e6:	429a      	cmp	r2, r3
 80059e8:	d103      	bne.n	80059f2 <uxListRemove+0x34>
	{
		pxList->pxIndex = pxItemToRemove->pxPrevious;
 80059ea:	687b      	ldr	r3, [r7, #4]
 80059ec:	689a      	ldr	r2, [r3, #8]
 80059ee:	68fb      	ldr	r3, [r7, #12]
 80059f0:	605a      	str	r2, [r3, #4]
	else
	{
		mtCOVERAGE_TEST_MARKER();
	}

	pxItemToRemove->pxContainer = NULL;
 80059f2:	687b      	ldr	r3, [r7, #4]
 80059f4:	2200      	movs	r2, #0
 80059f6:	611a      	str	r2, [r3, #16]
	( pxList->uxNumberOfItems )--;
 80059f8:	68fb      	ldr	r3, [r7, #12]
 80059fa:	681b      	ldr	r3, [r3, #0]
 80059fc:	1e5a      	subs	r2, r3, #1
 80059fe:	68fb      	ldr	r3, [r7, #12]
 8005a00:	601a      	str	r2, [r3, #0]

	return pxList->uxNumberOfItems;
 8005a02:	68fb      	ldr	r3, [r7, #12]
 8005a04:	681b      	ldr	r3, [r3, #0]
}
 8005a06:	4618      	mov	r0, r3
 8005a08:	3714      	adds	r7, #20
 8005a0a:	46bd      	mov	sp, r7
 8005a0c:	bc80      	pop	{r7}
 8005a0e:	4770      	bx	lr

08005a10 <xTaskCreateStatic>:
									const uint32_t ulStackDepth,
									void * const pvParameters,
									UBaseType_t uxPriority,
									StackType_t * const puxStackBuffer,
									StaticTask_t * const pxTaskBuffer )
	{
 8005a10:	b580      	push	{r7, lr}
 8005a12:	b08e      	sub	sp, #56	@ 0x38
 8005a14:	af04      	add	r7, sp, #16
 8005a16:	60f8      	str	r0, [r7, #12]
 8005a18:	60b9      	str	r1, [r7, #8]
 8005a1a:	607a      	str	r2, [r7, #4]
 8005a1c:	603b      	str	r3, [r7, #0]
	TCB_t *pxNewTCB;
	TaskHandle_t xReturn;

		configASSERT( puxStackBuffer != NULL );
 8005a1e:	6b7b      	ldr	r3, [r7, #52]	@ 0x34
 8005a20:	2b00      	cmp	r3, #0
 8005a22:	d10b      	bne.n	8005a3c <xTaskCreateStatic+0x2c>

portFORCE_INLINE static void vPortRaiseBASEPRI( void )
{
uint32_t ulNewBASEPRI;

	__asm volatile
 8005a24:	f04f 0350 	mov.w	r3, #80	@ 0x50
 8005a28:	f383 8811 	msr	BASEPRI, r3
 8005a2c:	f3bf 8f6f 	isb	sy
 8005a30:	f3bf 8f4f 	dsb	sy
 8005a34:	623b      	str	r3, [r7, #32]
		"	msr basepri, %0											\n" \
		"	isb														\n" \
		"	dsb														\n" \
		:"=r" (ulNewBASEPRI) : "i" ( configMAX_SYSCALL_INTERRUPT_PRIORITY ) : "memory"
	);
}
 8005a36:	bf00      	nop
 8005a38:	bf00      	nop
 8005a3a:	e7fd      	b.n	8005a38 <xTaskCreateStatic+0x28>
		configASSERT( pxTaskBuffer != NULL );
 8005a3c:	6bbb      	ldr	r3, [r7, #56]	@ 0x38
 8005a3e:	2b00      	cmp	r3, #0
 8005a40:	d10b      	bne.n	8005a5a <xTaskCreateStatic+0x4a>
	__asm volatile
 8005a42:	f04f 0350 	mov.w	r3, #80	@ 0x50
 8005a46:	f383 8811 	msr	BASEPRI, r3
 8005a4a:	f3bf 8f6f 	isb	sy
 8005a4e:	f3bf 8f4f 	dsb	sy
 8005a52:	61fb      	str	r3, [r7, #28]
}
 8005a54:	bf00      	nop
 8005a56:	bf00      	nop
 8005a58:	e7fd      	b.n	8005a56 <xTaskCreateStatic+0x46>
		#if( configASSERT_DEFINED == 1 )
		{
			/* Sanity check that the size of the structure used to declare a
			variable of type StaticTask_t equals the size of the real task
			structure. */
			volatile size_t xSize = sizeof( StaticTask_t );
 8005a5a:	23a0      	movs	r3, #160	@ 0xa0
 8005a5c:	613b      	str	r3, [r7, #16]
			configASSERT( xSize == sizeof( TCB_t ) );
 8005a5e:	693b      	ldr	r3, [r7, #16]
 8005a60:	2ba0      	cmp	r3, #160	@ 0xa0
 8005a62:	d00b      	beq.n	8005a7c <xTaskCreateStatic+0x6c>
	__asm volatile
 8005a64:	f04f 0350 	mov.w	r3, #80	@ 0x50
 8005a68:	f383 8811 	msr	BASEPRI, r3
 8005a6c:	f3bf 8f6f 	isb	sy
 8005a70:	f3bf 8f4f 	dsb	sy
 8005a74:	61bb      	str	r3, [r7, #24]
}
 8005a76:	bf00      	nop
 8005a78:	bf00      	nop
 8005a7a:	e7fd      	b.n	8005a78 <xTaskCreateStatic+0x68>
			( void ) xSize; /* Prevent lint warning when configASSERT() is not used. */
 8005a7c:	693b      	ldr	r3, [r7, #16]
		}
		#endif /* configASSERT_DEFINED */


		if( ( pxTaskBuffer != NULL ) && ( puxStackBuffer != NULL ) )
 8005a7e:	6bbb      	ldr	r3, [r7, #56]	@ 0x38
 8005a80:	2b00      	cmp	r3, #0
 8005a82:	d01e      	beq.n	8005ac2 <xTaskCreateStatic+0xb2>
 8005a84:	6b7b      	ldr	r3, [r7, #52]	@ 0x34
 8005a86:	2b00      	cmp	r3, #0
 8005a88:	d01b      	beq.n	8005ac2 <xTaskCreateStatic+0xb2>
		{
			/* The memory used for the task's TCB and stack are passed into this
			function - use them. */
			pxNewTCB = ( TCB_t * ) pxTaskBuffer; /*lint !e740 !e9087 Unusual cast is ok as the structures are designed to have the same alignment, and the size is checked by an assert. */
 8005a8a:	6bbb      	ldr	r3, [r7, #56]	@ 0x38
 8005a8c:	627b      	str	r3, [r7, #36]	@ 0x24
			pxNewTCB->pxStack = ( StackType_t * ) puxStackBuffer;
 8005a8e:	6a7b      	ldr	r3, [r7, #36]	@ 0x24
 8005a90:	6b7a      	ldr	r2, [r7, #52]	@ 0x34
 8005a92:	631a      	str	r2, [r3, #48]	@ 0x30

			#if( tskSTATIC_AND_DYNAMIC_ALLOCATION_POSSIBLE != 0 ) /*lint !e731 !e9029 Macro has been consolidated for readability reasons. */
			{
				/* Tasks can be created statically or dynamically, so note this
				task was created statically in case the task is later deleted. */
				pxNewTCB->ucStaticallyAllocated = tskSTATICALLY_ALLOCATED_STACK_AND_TCB;
 8005a94:	6a7b      	ldr	r3, [r7, #36]	@ 0x24
 8005a96:	2202      	movs	r2, #2
 8005a98:	f883 209d 	strb.w	r2, [r3, #157]	@ 0x9d
			}
			#endif /* tskSTATIC_AND_DYNAMIC_ALLOCATION_POSSIBLE */

			prvInitialiseNewTask( pxTaskCode, pcName, ulStackDepth, pvParameters, uxPriority, &xReturn, pxNewTCB, NULL );
 8005a9c:	2300      	movs	r3, #0
 8005a9e:	9303      	str	r3, [sp, #12]
 8005aa0:	6a7b      	ldr	r3, [r7, #36]	@ 0x24
 8005aa2:	9302      	str	r3, [sp, #8]
 8005aa4:	f107 0314 	add.w	r3, r7, #20
 8005aa8:	9301      	str	r3, [sp, #4]
 8005aaa:	6b3b      	ldr	r3, [r7, #48]	@ 0x30
 8005aac:	9300      	str	r3, [sp, #0]
 8005aae:	683b      	ldr	r3, [r7, #0]
 8005ab0:	687a      	ldr	r2, [r7, #4]
 8005ab2:	68b9      	ldr	r1, [r7, #8]
 8005ab4:	68f8      	ldr	r0, [r7, #12]
 8005ab6:	f000 f851 	bl	8005b5c <prvInitialiseNewTask>
			prvAddNewTaskToReadyList( pxNewTCB );
 8005aba:	6a78      	ldr	r0, [r7, #36]	@ 0x24
 8005abc:	f000 f8ee 	bl	8005c9c <prvAddNewTaskToReadyList>
 8005ac0:	e001      	b.n	8005ac6 <xTaskCreateStatic+0xb6>
		}
		else
		{
			xReturn = NULL;
 8005ac2:	2300      	movs	r3, #0
 8005ac4:	617b      	str	r3, [r7, #20]
		}

		return xReturn;
 8005ac6:	697b      	ldr	r3, [r7, #20]
	}
 8005ac8:	4618      	mov	r0, r3
 8005aca:	3728      	adds	r7, #40	@ 0x28
 8005acc:	46bd      	mov	sp, r7
 8005ace:	bd80      	pop	{r7, pc}

08005ad0 <xTaskCreate>:
							const char * const pcName,		/*lint !e971 Unqualified char types are allowed for strings and single characters only. */
							const configSTACK_DEPTH_TYPE usStackDepth,
							void * const pvParameters,
							UBaseType_t uxPriority,
							TaskHandle_t * const pxCreatedTask )
	{
 8005ad0:	b580      	push	{r7, lr}
 8005ad2:	b08c      	sub	sp, #48	@ 0x30
 8005ad4:	af04      	add	r7, sp, #16
 8005ad6:	60f8      	str	r0, [r7, #12]
 8005ad8:	60b9      	str	r1, [r7, #8]
 8005ada:	603b      	str	r3, [r7, #0]
 8005adc:	4613      	mov	r3, r2
 8005ade:	80fb      	strh	r3, [r7, #6]
		#else /* portSTACK_GROWTH */
		{
		StackType_t *pxStack;

			/* Allocate space for the stack used by the task being created. */
			pxStack = pvPortMalloc( ( ( ( size_t ) usStackDepth ) * sizeof( StackType_t ) ) ); /*lint !e9079 All values returned by pvPortMalloc() have at least the alignment required by the MCU's stack and this allocation is the stack. */
 8005ae0:	88fb      	ldrh	r3, [r7, #6]
 8005ae2:	009b      	lsls	r3, r3, #2
 8005ae4:	4618      	mov	r0, r3
 8005ae6:	f000 fea3 	bl	8006830 <pvPortMalloc>
 8005aea:	6178      	str	r0, [r7, #20]

			if( pxStack != NULL )
 8005aec:	697b      	ldr	r3, [r7, #20]
 8005aee:	2b00      	cmp	r3, #0
 8005af0:	d00e      	beq.n	8005b10 <xTaskCreate+0x40>
			{
				/* Allocate space for the TCB. */
				pxNewTCB = ( TCB_t * ) pvPortMalloc( sizeof( TCB_t ) ); /*lint !e9087 !e9079 All values returned by pvPortMalloc() have at least the alignment required by the MCU's stack, and the first member of TCB_t is always a pointer to the task's stack. */
 8005af2:	20a0      	movs	r0, #160	@ 0xa0
 8005af4:	f000 fe9c 	bl	8006830 <pvPortMalloc>
 8005af8:	61f8      	str	r0, [r7, #28]

				if( pxNewTCB != NULL )
 8005afa:	69fb      	ldr	r3, [r7, #28]
 8005afc:	2b00      	cmp	r3, #0
 8005afe:	d003      	beq.n	8005b08 <xTaskCreate+0x38>
				{
					/* Store the stack location in the TCB. */
					pxNewTCB->pxStack = pxStack;
 8005b00:	69fb      	ldr	r3, [r7, #28]
 8005b02:	697a      	ldr	r2, [r7, #20]
 8005b04:	631a      	str	r2, [r3, #48]	@ 0x30
 8005b06:	e005      	b.n	8005b14 <xTaskCreate+0x44>
				}
				else
				{
					/* The stack cannot be used as the TCB was not created.  Free
					it again. */
					vPortFree( pxStack );
 8005b08:	6978      	ldr	r0, [r7, #20]
 8005b0a:	f000 ff5f 	bl	80069cc <vPortFree>
 8005b0e:	e001      	b.n	8005b14 <xTaskCreate+0x44>
				}
			}
			else
			{
				pxNewTCB = NULL;
 8005b10:	2300      	movs	r3, #0
 8005b12:	61fb      	str	r3, [r7, #28]
			}
		}
		#endif /* portSTACK_GROWTH */

		if( pxNewTCB != NULL )
 8005b14:	69fb      	ldr	r3, [r7, #28]
 8005b16:	2b00      	cmp	r3, #0
 8005b18:	d017      	beq.n	8005b4a <xTaskCreate+0x7a>
		{
			#if( tskSTATIC_AND_DYNAMIC_ALLOCATION_POSSIBLE != 0 ) /*lint !e9029 !e731 Macro has been consolidated for readability reasons. */
			{
				/* Tasks can be created statically or dynamically, so note this
				task was created dynamically in case it is later deleted. */
				pxNewTCB->ucStaticallyAllocated = tskDYNAMICALLY_ALLOCATED_STACK_AND_TCB;
 8005b1a:	69fb      	ldr	r3, [r7, #28]
 8005b1c:	2200      	movs	r2, #0
 8005b1e:	f883 209d 	strb.w	r2, [r3, #157]	@ 0x9d
			}
			#endif /* tskSTATIC_AND_DYNAMIC_ALLOCATION_POSSIBLE */

			prvInitialiseNewTask( pxTaskCode, pcName, ( uint32_t ) usStackDepth, pvParameters, uxPriority, pxCreatedTask, pxNewTCB, NULL );
 8005b22:	88fa      	ldrh	r2, [r7, #6]
 8005b24:	2300      	movs	r3, #0
 8005b26:	9303      	str	r3, [sp, #12]
 8005b28:	69fb      	ldr	r3, [r7, #28]
 8005b2a:	9302      	str	r3, [sp, #8]
 8005b2c:	6afb      	ldr	r3, [r7, #44]	@ 0x2c
 8005b2e:	9301      	str	r3, [sp, #4]
 8005b30:	6abb      	ldr	r3, [r7, #40]	@ 0x28
 8005b32:	9300      	str	r3, [sp, #0]
 8005b34:	683b      	ldr	r3, [r7, #0]
 8005b36:	68b9      	ldr	r1, [r7, #8]
 8005b38:	68f8      	ldr	r0, [r7, #12]
 8005b3a:	f000 f80f 	bl	8005b5c <prvInitialiseNewTask>
			prvAddNewTaskToReadyList( pxNewTCB );
 8005b3e:	69f8      	ldr	r0, [r7, #28]
 8005b40:	f000 f8ac 	bl	8005c9c <prvAddNewTaskToReadyList>
			xReturn = pdPASS;
 8005b44:	2301      	movs	r3, #1
 8005b46:	61bb      	str	r3, [r7, #24]
 8005b48:	e002      	b.n	8005b50 <xTaskCreate+0x80>
		}
		else
		{
			xReturn = errCOULD_NOT_ALLOCATE_REQUIRED_MEMORY;
 8005b4a:	f04f 33ff 	mov.w	r3, #4294967295	@ 0xffffffff
 8005b4e:	61bb      	str	r3, [r7, #24]
		}

		return xReturn;
 8005b50:	69bb      	ldr	r3, [r7, #24]
	}
 8005b52:	4618      	mov	r0, r3
 8005b54:	3720      	adds	r7, #32
 8005b56:	46bd      	mov	sp, r7
 8005b58:	bd80      	pop	{r7, pc}
	...

08005b5c <prvInitialiseNewTask>:
									void * const pvParameters,
									UBaseType_t uxPriority,
									TaskHandle_t * const pxCreatedTask,
									TCB_t *pxNewTCB,
									const MemoryRegion_t * const xRegions )
{
 8005b5c:	b580      	push	{r7, lr}
 8005b5e:	b088      	sub	sp, #32
 8005b60:	af00      	add	r7, sp, #0
 8005b62:	60f8      	str	r0, [r7, #12]
 8005b64:	60b9      	str	r1, [r7, #8]
 8005b66:	607a      	str	r2, [r7, #4]
 8005b68:	603b      	str	r3, [r7, #0]
	grows from high memory to low (as per the 80x86) or vice versa.
	portSTACK_GROWTH is used to make the result positive or negative as required
	by the port. */
	#if( portSTACK_GROWTH < 0 )
	{
		pxTopOfStack = &( pxNewTCB->pxStack[ ulStackDepth - ( uint32_t ) 1 ] );
 8005b6a:	6b3b      	ldr	r3, [r7, #48]	@ 0x30
 8005b6c:	6b1a      	ldr	r2, [r3, #48]	@ 0x30
 8005b6e:	687b      	ldr	r3, [r7, #4]
 8005b70:	f103 4380 	add.w	r3, r3, #1073741824	@ 0x40000000
 8005b74:	3b01      	subs	r3, #1
 8005b76:	009b      	lsls	r3, r3, #2
 8005b78:	4413      	add	r3, r2
 8005b7a:	61bb      	str	r3, [r7, #24]
		pxTopOfStack = ( StackType_t * ) ( ( ( portPOINTER_SIZE_TYPE ) pxTopOfStack ) & ( ~( ( portPOINTER_SIZE_TYPE ) portBYTE_ALIGNMENT_MASK ) ) ); /*lint !e923 !e9033 !e9078 MISRA exception.  Avoiding casts between pointers and integers is not practical.  Size differences accounted for using portPOINTER_SIZE_TYPE type.  Checked by assert(). */
 8005b7c:	69bb      	ldr	r3, [r7, #24]
 8005b7e:	f023 0307 	bic.w	r3, r3, #7
 8005b82:	61bb      	str	r3, [r7, #24]

		/* Check the alignment of the calculated top of stack is correct. */
		configASSERT( ( ( ( portPOINTER_SIZE_TYPE ) pxTopOfStack & ( portPOINTER_SIZE_TYPE ) portBYTE_ALIGNMENT_MASK ) == 0UL ) );
 8005b84:	69bb      	ldr	r3, [r7, #24]
 8005b86:	f003 0307 	and.w	r3, r3, #7
 8005b8a:	2b00      	cmp	r3, #0
 8005b8c:	d00b      	beq.n	8005ba6 <prvInitialiseNewTask+0x4a>
	__asm volatile
 8005b8e:	f04f 0350 	mov.w	r3, #80	@ 0x50
 8005b92:	f383 8811 	msr	BASEPRI, r3
 8005b96:	f3bf 8f6f 	isb	sy
 8005b9a:	f3bf 8f4f 	dsb	sy
 8005b9e:	617b      	str	r3, [r7, #20]
}
 8005ba0:	bf00      	nop
 8005ba2:	bf00      	nop
 8005ba4:	e7fd      	b.n	8005ba2 <prvInitialiseNewTask+0x46>
		pxNewTCB->pxEndOfStack = pxNewTCB->pxStack + ( ulStackDepth - ( uint32_t ) 1 );
	}
	#endif /* portSTACK_GROWTH */

	/* Store the task name in the TCB. */
	if( pcName != NULL )
 8005ba6:	68bb      	ldr	r3, [r7, #8]
 8005ba8:	2b00      	cmp	r3, #0
 8005baa:	d01f      	beq.n	8005bec <prvInitialiseNewTask+0x90>
	{
		for( x = ( UBaseType_t ) 0; x < ( UBaseType_t ) configMAX_TASK_NAME_LEN; x++ )
 8005bac:	2300      	movs	r3, #0
 8005bae:	61fb      	str	r3, [r7, #28]
 8005bb0:	e012      	b.n	8005bd8 <prvInitialiseNewTask+0x7c>
		{
			pxNewTCB->pcTaskName[ x ] = pcName[ x ];
 8005bb2:	68ba      	ldr	r2, [r7, #8]
 8005bb4:	69fb      	ldr	r3, [r7, #28]
 8005bb6:	4413      	add	r3, r2
 8005bb8:	7819      	ldrb	r1, [r3, #0]
 8005bba:	6b3a      	ldr	r2, [r7, #48]	@ 0x30
 8005bbc:	69fb      	ldr	r3, [r7, #28]
 8005bbe:	4413      	add	r3, r2
 8005bc0:	3334      	adds	r3, #52	@ 0x34
 8005bc2:	460a      	mov	r2, r1
 8005bc4:	701a      	strb	r2, [r3, #0]

			/* Don't copy all configMAX_TASK_NAME_LEN if the string is shorter than
			configMAX_TASK_NAME_LEN characters just in case the memory after the
			string is not accessible (extremely unlikely). */
			if( pcName[ x ] == ( char ) 0x00 )
 8005bc6:	68ba      	ldr	r2, [r7, #8]
 8005bc8:	69fb      	ldr	r3, [r7, #28]
 8005bca:	4413      	add	r3, r2
 8005bcc:	781b      	ldrb	r3, [r3, #0]
 8005bce:	2b00      	cmp	r3, #0
 8005bd0:	d006      	beq.n	8005be0 <prvInitialiseNewTask+0x84>
		for( x = ( UBaseType_t ) 0; x < ( UBaseType_t ) configMAX_TASK_NAME_LEN; x++ )
 8005bd2:	69fb      	ldr	r3, [r7, #28]
 8005bd4:	3301      	adds	r3, #1
 8005bd6:	61fb      	str	r3, [r7, #28]
 8005bd8:	69fb      	ldr	r3, [r7, #28]
 8005bda:	2b0f      	cmp	r3, #15
 8005bdc:	d9e9      	bls.n	8005bb2 <prvInitialiseNewTask+0x56>
 8005bde:	e000      	b.n	8005be2 <prvInitialiseNewTask+0x86>
			{
				break;
 8005be0:	bf00      	nop
			}
		}

		/* Ensure the name string is terminated in the case that the string length
		was greater or equal to configMAX_TASK_NAME_LEN. */
		pxNewTCB->pcTaskName[ configMAX_TASK_NAME_LEN - 1 ] = '\0';
 8005be2:	6b3b      	ldr	r3, [r7, #48]	@ 0x30
 8005be4:	2200      	movs	r2, #0
 8005be6:	f883 2043 	strb.w	r2, [r3, #67]	@ 0x43
 8005bea:	e003      	b.n	8005bf4 <prvInitialiseNewTask+0x98>
	}
	else
	{
		/* The task has not been given a name, so just ensure there is a NULL
		terminator when it is read out. */
		pxNewTCB->pcTaskName[ 0 ] = 0x00;
 8005bec:	6b3b      	ldr	r3, [r7, #48]	@ 0x30
 8005bee:	2200      	movs	r2, #0
 8005bf0:	f883 2034 	strb.w	r2, [r3, #52]	@ 0x34
	}

	/* This is used as an array index so must ensure it's not too large.  First
	remove the privilege bit if one is present. */
	if( uxPriority >= ( UBaseType_t ) configMAX_PRIORITIES )
 8005bf4:	6abb      	ldr	r3, [r7, #40]	@ 0x28
 8005bf6:	2b06      	cmp	r3, #6
 8005bf8:	d901      	bls.n	8005bfe <prvInitialiseNewTask+0xa2>
	{
		uxPriority = ( UBaseType_t ) configMAX_PRIORITIES - ( UBaseType_t ) 1U;
 8005bfa:	2306      	movs	r3, #6
 8005bfc:	62bb      	str	r3, [r7, #40]	@ 0x28
	else
	{
		mtCOVERAGE_TEST_MARKER();
	}

	pxNewTCB->uxPriority = uxPriority;
 8005bfe:	6b3b      	ldr	r3, [r7, #48]	@ 0x30
 8005c00:	6aba      	ldr	r2, [r7, #40]	@ 0x28
 8005c02:	62da      	str	r2, [r3, #44]	@ 0x2c
	#if ( configUSE_MUTEXES == 1 )
	{
		pxNewTCB->uxBasePriority = uxPriority;
 8005c04:	6b3b      	ldr	r3, [r7, #48]	@ 0x30
 8005c06:	6aba      	ldr	r2, [r7, #40]	@ 0x28
 8005c08:	645a      	str	r2, [r3, #68]	@ 0x44
		pxNewTCB->uxMutexesHeld = 0;
 8005c0a:	6b3b      	ldr	r3, [r7, #48]	@ 0x30
 8005c0c:	2200      	movs	r2, #0
 8005c0e:	649a      	str	r2, [r3, #72]	@ 0x48
	}
	#endif /* configUSE_MUTEXES */

	vListInitialiseItem( &( pxNewTCB->xStateListItem ) );
 8005c10:	6b3b      	ldr	r3, [r7, #48]	@ 0x30
 8005c12:	3304      	adds	r3, #4
 8005c14:	4618      	mov	r0, r3
 8005c16:	f7ff fe6b 	bl	80058f0 <vListInitialiseItem>
	vListInitialiseItem( &( pxNewTCB->xEventListItem ) );
 8005c1a:	6b3b      	ldr	r3, [r7, #48]	@ 0x30
 8005c1c:	3318      	adds	r3, #24
 8005c1e:	4618      	mov	r0, r3
 8005c20:	f7ff fe66 	bl	80058f0 <vListInitialiseItem>

	/* Set the pxNewTCB as a link back from the ListItem_t.  This is so we can get
	back to	the containing TCB from a generic item in a list. */
	listSET_LIST_ITEM_OWNER( &( pxNewTCB->xStateListItem ), pxNewTCB );
 8005c24:	6b3b      	ldr	r3, [r7, #48]	@ 0x30
 8005c26:	6b3a      	ldr	r2, [r7, #48]	@ 0x30
 8005c28:	611a      	str	r2, [r3, #16]

	/* Event lists are always in priority order. */
	listSET_LIST_ITEM_VALUE( &( pxNewTCB->xEventListItem ), ( TickType_t ) configMAX_PRIORITIES - ( TickType_t ) uxPriority ); /*lint !e961 MISRA exception as the casts are only redundant for some ports. */
 8005c2a:	6abb      	ldr	r3, [r7, #40]	@ 0x28
 8005c2c:	f1c3 0207 	rsb	r2, r3, #7
 8005c30:	6b3b      	ldr	r3, [r7, #48]	@ 0x30
 8005c32:	619a      	str	r2, [r3, #24]
	listSET_LIST_ITEM_OWNER( &( pxNewTCB->xEventListItem ), pxNewTCB );
 8005c34:	6b3b      	ldr	r3, [r7, #48]	@ 0x30
 8005c36:	6b3a      	ldr	r2, [r7, #48]	@ 0x30
 8005c38:	625a      	str	r2, [r3, #36]	@ 0x24
	}
	#endif

	#if ( configUSE_TASK_NOTIFICATIONS == 1 )
	{
		pxNewTCB->ulNotifiedValue = 0;
 8005c3a:	6b3b      	ldr	r3, [r7, #48]	@ 0x30
 8005c3c:	2200      	movs	r2, #0
 8005c3e:	f8c3 2098 	str.w	r2, [r3, #152]	@ 0x98
		pxNewTCB->ucNotifyState = taskNOT_WAITING_NOTIFICATION;
 8005c42:	6b3b      	ldr	r3, [r7, #48]	@ 0x30
 8005c44:	2200      	movs	r2, #0
 8005c46:	f883 209c 	strb.w	r2, [r3, #156]	@ 0x9c
	#if ( configUSE_NEWLIB_REENTRANT == 1 )
	{
		/* Initialise this task's Newlib reent structure.
		See the third party link http://www.nadler.com/embedded/newlibAndFreeRTOS.html
		for additional information. */
		_REENT_INIT_PTR( ( &( pxNewTCB->xNewLib_reent ) ) );
 8005c4a:	6b3b      	ldr	r3, [r7, #48]	@ 0x30
 8005c4c:	334c      	adds	r3, #76	@ 0x4c
 8005c4e:	224c      	movs	r2, #76	@ 0x4c
 8005c50:	2100      	movs	r1, #0
 8005c52:	4618      	mov	r0, r3
 8005c54:	f000 ffd8 	bl	8006c08 <memset>
 8005c58:	6b3b      	ldr	r3, [r7, #48]	@ 0x30
 8005c5a:	4a0d      	ldr	r2, [pc, #52]	@ (8005c90 <prvInitialiseNewTask+0x134>)
 8005c5c:	651a      	str	r2, [r3, #80]	@ 0x50
 8005c5e:	6b3b      	ldr	r3, [r7, #48]	@ 0x30
 8005c60:	4a0c      	ldr	r2, [pc, #48]	@ (8005c94 <prvInitialiseNewTask+0x138>)
 8005c62:	655a      	str	r2, [r3, #84]	@ 0x54
 8005c64:	6b3b      	ldr	r3, [r7, #48]	@ 0x30
 8005c66:	4a0c      	ldr	r2, [pc, #48]	@ (8005c98 <prvInitialiseNewTask+0x13c>)
 8005c68:	659a      	str	r2, [r3, #88]	@ 0x58
			}
			#endif /* portSTACK_GROWTH */
		}
		#else /* portHAS_STACK_OVERFLOW_CHECKING */
		{
			pxNewTCB->pxTopOfStack = pxPortInitialiseStack( pxTopOfStack, pxTaskCode, pvParameters );
 8005c6a:	683a      	ldr	r2, [r7, #0]
 8005c6c:	68f9      	ldr	r1, [r7, #12]
 8005c6e:	69b8      	ldr	r0, [r7, #24]
 8005c70:	f000 fc28 	bl	80064c4 <pxPortInitialiseStack>
 8005c74:	4602      	mov	r2, r0
 8005c76:	6b3b      	ldr	r3, [r7, #48]	@ 0x30
 8005c78:	601a      	str	r2, [r3, #0]
		}
		#endif /* portHAS_STACK_OVERFLOW_CHECKING */
	}
	#endif /* portUSING_MPU_WRAPPERS */

	if( pxCreatedTask != NULL )
 8005c7a:	6afb      	ldr	r3, [r7, #44]	@ 0x2c
 8005c7c:	2b00      	cmp	r3, #0
 8005c7e:	d002      	beq.n	8005c86 <prvInitialiseNewTask+0x12a>
	{
		/* Pass the handle out in an anonymous way.  The handle can be used to
		change the created task's priority, delete the created task, etc.*/
		*pxCreatedTask = ( TaskHandle_t ) pxNewTCB;
 8005c80:	6afb      	ldr	r3, [r7, #44]	@ 0x2c
 8005c82:	6b3a      	ldr	r2, [r7, #48]	@ 0x30
 8005c84:	601a      	str	r2, [r3, #0]
	}
	else
	{
		mtCOVERAGE_TEST_MARKER();
	}
}
 8005c86:	bf00      	nop
 8005c88:	3720      	adds	r7, #32
 8005c8a:	46bd      	mov	sp, r7
 8005c8c:	bd80      	pop	{r7, pc}
 8005c8e:	bf00      	nop
 8005c90:	20001258 	.word	0x20001258
 8005c94:	200012c0 	.word	0x200012c0
 8005c98:	20001328 	.word	0x20001328

08005c9c <prvAddNewTaskToReadyList>:
/*-----------------------------------------------------------*/

static void prvAddNewTaskToReadyList( TCB_t *pxNewTCB )
{
 8005c9c:	b580      	push	{r7, lr}
 8005c9e:	b082      	sub	sp, #8
 8005ca0:	af00      	add	r7, sp, #0
 8005ca2:	6078      	str	r0, [r7, #4]
	/* Ensure interrupts don't access the task lists while the lists are being
	updated. */
	taskENTER_CRITICAL();
 8005ca4:	f000 fd02 	bl	80066ac <vPortEnterCritical>
	{
		uxCurrentNumberOfTasks++;
 8005ca8:	4b2a      	ldr	r3, [pc, #168]	@ (8005d54 <prvAddNewTaskToReadyList+0xb8>)
 8005caa:	681b      	ldr	r3, [r3, #0]
 8005cac:	3301      	adds	r3, #1
 8005cae:	4a29      	ldr	r2, [pc, #164]	@ (8005d54 <prvAddNewTaskToReadyList+0xb8>)
 8005cb0:	6013      	str	r3, [r2, #0]
		if( pxCurrentTCB == NULL )
 8005cb2:	4b29      	ldr	r3, [pc, #164]	@ (8005d58 <prvAddNewTaskToReadyList+0xbc>)
 8005cb4:	681b      	ldr	r3, [r3, #0]
 8005cb6:	2b00      	cmp	r3, #0
 8005cb8:	d109      	bne.n	8005cce <prvAddNewTaskToReadyList+0x32>
		{
			/* There are no other tasks, or all the other tasks are in
			the suspended state - make this the current task. */
			pxCurrentTCB = pxNewTCB;
 8005cba:	4a27      	ldr	r2, [pc, #156]	@ (8005d58 <prvAddNewTaskToReadyList+0xbc>)
 8005cbc:	687b      	ldr	r3, [r7, #4]
 8005cbe:	6013      	str	r3, [r2, #0]

			if( uxCurrentNumberOfTasks == ( UBaseType_t ) 1 )
 8005cc0:	4b24      	ldr	r3, [pc, #144]	@ (8005d54 <prvAddNewTaskToReadyList+0xb8>)
 8005cc2:	681b      	ldr	r3, [r3, #0]
 8005cc4:	2b01      	cmp	r3, #1
 8005cc6:	d110      	bne.n	8005cea <prvAddNewTaskToReadyList+0x4e>
			{
				/* This is the first task to be created so do the preliminary
				initialisation required.  We will not recover if this call
				fails, but we will report the failure. */
				prvInitialiseTaskLists();
 8005cc8:	f000 fad2 	bl	8006270 <prvInitialiseTaskLists>
 8005ccc:	e00d      	b.n	8005cea <prvAddNewTaskToReadyList+0x4e>
		else
		{
			/* If the scheduler is not already running, make this task the
			current task if it is the highest priority task to be created
			so far. */
			if( xSchedulerRunning == pdFALSE )
 8005cce:	4b23      	ldr	r3, [pc, #140]	@ (8005d5c <prvAddNewTaskToReadyList+0xc0>)
 8005cd0:	681b      	ldr	r3, [r3, #0]
 8005cd2:	2b00      	cmp	r3, #0
 8005cd4:	d109      	bne.n	8005cea <prvAddNewTaskToReadyList+0x4e>
			{
				if( pxCurrentTCB->uxPriority <= pxNewTCB->uxPriority )
 8005cd6:	4b20      	ldr	r3, [pc, #128]	@ (8005d58 <prvAddNewTaskToReadyList+0xbc>)
 8005cd8:	681b      	ldr	r3, [r3, #0]
 8005cda:	6ada      	ldr	r2, [r3, #44]	@ 0x2c
 8005cdc:	687b      	ldr	r3, [r7, #4]
 8005cde:	6adb      	ldr	r3, [r3, #44]	@ 0x2c
 8005ce0:	429a      	cmp	r2, r3
 8005ce2:	d802      	bhi.n	8005cea <prvAddNewTaskToReadyList+0x4e>
				{
					pxCurrentTCB = pxNewTCB;
 8005ce4:	4a1c      	ldr	r2, [pc, #112]	@ (8005d58 <prvAddNewTaskToReadyList+0xbc>)
 8005ce6:	687b      	ldr	r3, [r7, #4]
 8005ce8:	6013      	str	r3, [r2, #0]
			{
				mtCOVERAGE_TEST_MARKER();
			}
		}

		uxTaskNumber++;
 8005cea:	4b1d      	ldr	r3, [pc, #116]	@ (8005d60 <prvAddNewTaskToReadyList+0xc4>)
 8005cec:	681b      	ldr	r3, [r3, #0]
 8005cee:	3301      	adds	r3, #1
 8005cf0:	4a1b      	ldr	r2, [pc, #108]	@ (8005d60 <prvAddNewTaskToReadyList+0xc4>)
 8005cf2:	6013      	str	r3, [r2, #0]
			pxNewTCB->uxTCBNumber = uxTaskNumber;
		}
		#endif /* configUSE_TRACE_FACILITY */
		traceTASK_CREATE( pxNewTCB );

		prvAddTaskToReadyList( pxNewTCB );
 8005cf4:	687b      	ldr	r3, [r7, #4]
 8005cf6:	6adb      	ldr	r3, [r3, #44]	@ 0x2c
 8005cf8:	2201      	movs	r2, #1
 8005cfa:	409a      	lsls	r2, r3
 8005cfc:	4b19      	ldr	r3, [pc, #100]	@ (8005d64 <prvAddNewTaskToReadyList+0xc8>)
 8005cfe:	681b      	ldr	r3, [r3, #0]
 8005d00:	4313      	orrs	r3, r2
 8005d02:	4a18      	ldr	r2, [pc, #96]	@ (8005d64 <prvAddNewTaskToReadyList+0xc8>)
 8005d04:	6013      	str	r3, [r2, #0]
 8005d06:	687b      	ldr	r3, [r7, #4]
 8005d08:	6ada      	ldr	r2, [r3, #44]	@ 0x2c
 8005d0a:	4613      	mov	r3, r2
 8005d0c:	009b      	lsls	r3, r3, #2
 8005d0e:	4413      	add	r3, r2
 8005d10:	009b      	lsls	r3, r3, #2
 8005d12:	4a15      	ldr	r2, [pc, #84]	@ (8005d68 <prvAddNewTaskToReadyList+0xcc>)
 8005d14:	441a      	add	r2, r3
 8005d16:	687b      	ldr	r3, [r7, #4]
 8005d18:	3304      	adds	r3, #4
 8005d1a:	4619      	mov	r1, r3
 8005d1c:	4610      	mov	r0, r2
 8005d1e:	f7ff fdf3 	bl	8005908 <vListInsertEnd>

		portSETUP_TCB( pxNewTCB );
	}
	taskEXIT_CRITICAL();
 8005d22:	f000 fcf3 	bl	800670c <vPortExitCritical>

	if( xSchedulerRunning != pdFALSE )
 8005d26:	4b0d      	ldr	r3, [pc, #52]	@ (8005d5c <prvAddNewTaskToReadyList+0xc0>)
 8005d28:	681b      	ldr	r3, [r3, #0]
 8005d2a:	2b00      	cmp	r3, #0
 8005d2c:	d00e      	beq.n	8005d4c <prvAddNewTaskToReadyList+0xb0>
	{
		/* If the created task is of a higher priority than the current task
		then it should run now. */
		if( pxCurrentTCB->uxPriority < pxNewTCB->uxPriority )
 8005d2e:	4b0a      	ldr	r3, [pc, #40]	@ (8005d58 <prvAddNewTaskToReadyList+0xbc>)
 8005d30:	681b      	ldr	r3, [r3, #0]
 8005d32:	6ada      	ldr	r2, [r3, #44]	@ 0x2c
 8005d34:	687b      	ldr	r3, [r7, #4]
 8005d36:	6adb      	ldr	r3, [r3, #44]	@ 0x2c
 8005d38:	429a      	cmp	r2, r3
 8005d3a:	d207      	bcs.n	8005d4c <prvAddNewTaskToReadyList+0xb0>
		{
			taskYIELD_IF_USING_PREEMPTION();
 8005d3c:	4b0b      	ldr	r3, [pc, #44]	@ (8005d6c <prvAddNewTaskToReadyList+0xd0>)
 8005d3e:	f04f 5280 	mov.w	r2, #268435456	@ 0x10000000
 8005d42:	601a      	str	r2, [r3, #0]
 8005d44:	f3bf 8f4f 	dsb	sy
 8005d48:	f3bf 8f6f 	isb	sy
	}
	else
	{
		mtCOVERAGE_TEST_MARKER();
	}
}
 8005d4c:	bf00      	nop
 8005d4e:	3708      	adds	r7, #8
 8005d50:	46bd      	mov	sp, r7
 8005d52:	bd80      	pop	{r7, pc}
 8005d54:	20000604 	.word	0x20000604
 8005d58:	20000504 	.word	0x20000504
 8005d5c:	20000610 	.word	0x20000610
 8005d60:	20000620 	.word	0x20000620
 8005d64:	2000060c 	.word	0x2000060c
 8005d68:	20000508 	.word	0x20000508
 8005d6c:	e000ed04 	.word	0xe000ed04

08005d70 <vTaskDelay>:
/*-----------------------------------------------------------*/

#if ( INCLUDE_vTaskDelay == 1 )

	void vTaskDelay( const TickType_t xTicksToDelay )
	{
 8005d70:	b580      	push	{r7, lr}
 8005d72:	b084      	sub	sp, #16
 8005d74:	af00      	add	r7, sp, #0
 8005d76:	6078      	str	r0, [r7, #4]
	BaseType_t xAlreadyYielded = pdFALSE;
 8005d78:	2300      	movs	r3, #0
 8005d7a:	60fb      	str	r3, [r7, #12]

		/* A delay time of zero just forces a reschedule. */
		if( xTicksToDelay > ( TickType_t ) 0U )
 8005d7c:	687b      	ldr	r3, [r7, #4]
 8005d7e:	2b00      	cmp	r3, #0
 8005d80:	d018      	beq.n	8005db4 <vTaskDelay+0x44>
		{
			configASSERT( uxSchedulerSuspended == 0 );
 8005d82:	4b14      	ldr	r3, [pc, #80]	@ (8005dd4 <vTaskDelay+0x64>)
 8005d84:	681b      	ldr	r3, [r3, #0]
 8005d86:	2b00      	cmp	r3, #0
 8005d88:	d00b      	beq.n	8005da2 <vTaskDelay+0x32>
	__asm volatile
 8005d8a:	f04f 0350 	mov.w	r3, #80	@ 0x50
 8005d8e:	f383 8811 	msr	BASEPRI, r3
 8005d92:	f3bf 8f6f 	isb	sy
 8005d96:	f3bf 8f4f 	dsb	sy
 8005d9a:	60bb      	str	r3, [r7, #8]
}
 8005d9c:	bf00      	nop
 8005d9e:	bf00      	nop
 8005da0:	e7fd      	b.n	8005d9e <vTaskDelay+0x2e>
			vTaskSuspendAll();
 8005da2:	f000 f885 	bl	8005eb0 <vTaskSuspendAll>
				list or removed from the blocked list until the scheduler
				is resumed.

				This task cannot be in an event list as it is the currently
				executing task. */
				prvAddCurrentTaskToDelayedList( xTicksToDelay, pdFALSE );
 8005da6:	2100      	movs	r1, #0
 8005da8:	6878      	ldr	r0, [r7, #4]
 8005daa:	f000 fb25 	bl	80063f8 <prvAddCurrentTaskToDelayedList>
			}
			xAlreadyYielded = xTaskResumeAll();
 8005dae:	f000 f88d 	bl	8005ecc <xTaskResumeAll>
 8005db2:	60f8      	str	r0, [r7, #12]
			mtCOVERAGE_TEST_MARKER();
		}

		/* Force a reschedule if xTaskResumeAll has not already done so, we may
		have put ourselves to sleep. */
		if( xAlreadyYielded == pdFALSE )
 8005db4:	68fb      	ldr	r3, [r7, #12]
 8005db6:	2b00      	cmp	r3, #0
 8005db8:	d107      	bne.n	8005dca <vTaskDelay+0x5a>
		{
			portYIELD_WITHIN_API();
 8005dba:	4b07      	ldr	r3, [pc, #28]	@ (8005dd8 <vTaskDelay+0x68>)
 8005dbc:	f04f 5280 	mov.w	r2, #268435456	@ 0x10000000
 8005dc0:	601a      	str	r2, [r3, #0]
 8005dc2:	f3bf 8f4f 	dsb	sy
 8005dc6:	f3bf 8f6f 	isb	sy
		}
		else
		{
			mtCOVERAGE_TEST_MARKER();
		}
	}
 8005dca:	bf00      	nop
 8005dcc:	3710      	adds	r7, #16
 8005dce:	46bd      	mov	sp, r7
 8005dd0:	bd80      	pop	{r7, pc}
 8005dd2:	bf00      	nop
 8005dd4:	2000062c 	.word	0x2000062c
 8005dd8:	e000ed04 	.word	0xe000ed04

08005ddc <vTaskStartScheduler>:

#endif /* ( ( INCLUDE_xTaskResumeFromISR == 1 ) && ( INCLUDE_vTaskSuspend == 1 ) ) */
/*-----------------------------------------------------------*/

void vTaskStartScheduler( void )
{
 8005ddc:	b580      	push	{r7, lr}
 8005dde:	b08a      	sub	sp, #40	@ 0x28
 8005de0:	af04      	add	r7, sp, #16
BaseType_t xReturn;

	/* Add the idle task at the lowest priority. */
	#if( configSUPPORT_STATIC_ALLOCATION == 1 )
	{
		StaticTask_t *pxIdleTaskTCBBuffer = NULL;
 8005de2:	2300      	movs	r3, #0
 8005de4:	60bb      	str	r3, [r7, #8]
		StackType_t *pxIdleTaskStackBuffer = NULL;
 8005de6:	2300      	movs	r3, #0
 8005de8:	607b      	str	r3, [r7, #4]
		uint32_t ulIdleTaskStackSize;

		/* The Idle task is created using user provided RAM - obtain the
		address of the RAM then create the idle task. */
		vApplicationGetIdleTaskMemory( &pxIdleTaskTCBBuffer, &pxIdleTaskStackBuffer, &ulIdleTaskStackSize );
 8005dea:	463a      	mov	r2, r7
 8005dec:	1d39      	adds	r1, r7, #4
 8005dee:	f107 0308 	add.w	r3, r7, #8
 8005df2:	4618      	mov	r0, r3
 8005df4:	f7fb fa78 	bl	80012e8 <vApplicationGetIdleTaskMemory>
		xIdleTaskHandle = xTaskCreateStatic(	prvIdleTask,
 8005df8:	6839      	ldr	r1, [r7, #0]
 8005dfa:	687b      	ldr	r3, [r7, #4]
 8005dfc:	68ba      	ldr	r2, [r7, #8]
 8005dfe:	9202      	str	r2, [sp, #8]
 8005e00:	9301      	str	r3, [sp, #4]
 8005e02:	2300      	movs	r3, #0
 8005e04:	9300      	str	r3, [sp, #0]
 8005e06:	2300      	movs	r3, #0
 8005e08:	460a      	mov	r2, r1
 8005e0a:	4921      	ldr	r1, [pc, #132]	@ (8005e90 <vTaskStartScheduler+0xb4>)
 8005e0c:	4821      	ldr	r0, [pc, #132]	@ (8005e94 <vTaskStartScheduler+0xb8>)
 8005e0e:	f7ff fdff 	bl	8005a10 <xTaskCreateStatic>
 8005e12:	4603      	mov	r3, r0
 8005e14:	4a20      	ldr	r2, [pc, #128]	@ (8005e98 <vTaskStartScheduler+0xbc>)
 8005e16:	6013      	str	r3, [r2, #0]
												( void * ) NULL, /*lint !e961.  The cast is not redundant for all compilers. */
												portPRIVILEGE_BIT, /* In effect ( tskIDLE_PRIORITY | portPRIVILEGE_BIT ), but tskIDLE_PRIORITY is zero. */
												pxIdleTaskStackBuffer,
												pxIdleTaskTCBBuffer ); /*lint !e961 MISRA exception, justified as it is not a redundant explicit cast to all supported compilers. */

		if( xIdleTaskHandle != NULL )
 8005e18:	4b1f      	ldr	r3, [pc, #124]	@ (8005e98 <vTaskStartScheduler+0xbc>)
 8005e1a:	681b      	ldr	r3, [r3, #0]
 8005e1c:	2b00      	cmp	r3, #0
 8005e1e:	d002      	beq.n	8005e26 <vTaskStartScheduler+0x4a>
		{
			xReturn = pdPASS;
 8005e20:	2301      	movs	r3, #1
 8005e22:	617b      	str	r3, [r7, #20]
 8005e24:	e001      	b.n	8005e2a <vTaskStartScheduler+0x4e>
		}
		else
		{
			xReturn = pdFAIL;
 8005e26:	2300      	movs	r3, #0
 8005e28:	617b      	str	r3, [r7, #20]
			mtCOVERAGE_TEST_MARKER();
		}
	}
	#endif /* configUSE_TIMERS */

	if( xReturn == pdPASS )
 8005e2a:	697b      	ldr	r3, [r7, #20]
 8005e2c:	2b01      	cmp	r3, #1
 8005e2e:	d11b      	bne.n	8005e68 <vTaskStartScheduler+0x8c>
	__asm volatile
 8005e30:	f04f 0350 	mov.w	r3, #80	@ 0x50
 8005e34:	f383 8811 	msr	BASEPRI, r3
 8005e38:	f3bf 8f6f 	isb	sy
 8005e3c:	f3bf 8f4f 	dsb	sy
 8005e40:	613b      	str	r3, [r7, #16]
}
 8005e42:	bf00      	nop
		{
			/* Switch Newlib's _impure_ptr variable to point to the _reent
			structure specific to the task that will run first.
			See the third party link http://www.nadler.com/embedded/newlibAndFreeRTOS.html
			for additional information. */
			_impure_ptr = &( pxCurrentTCB->xNewLib_reent );
 8005e44:	4b15      	ldr	r3, [pc, #84]	@ (8005e9c <vTaskStartScheduler+0xc0>)
 8005e46:	681b      	ldr	r3, [r3, #0]
 8005e48:	334c      	adds	r3, #76	@ 0x4c
 8005e4a:	4a15      	ldr	r2, [pc, #84]	@ (8005ea0 <vTaskStartScheduler+0xc4>)
 8005e4c:	6013      	str	r3, [r2, #0]
		}
		#endif /* configUSE_NEWLIB_REENTRANT */

		xNextTaskUnblockTime = portMAX_DELAY;
 8005e4e:	4b15      	ldr	r3, [pc, #84]	@ (8005ea4 <vTaskStartScheduler+0xc8>)
 8005e50:	f04f 32ff 	mov.w	r2, #4294967295	@ 0xffffffff
 8005e54:	601a      	str	r2, [r3, #0]
		xSchedulerRunning = pdTRUE;
 8005e56:	4b14      	ldr	r3, [pc, #80]	@ (8005ea8 <vTaskStartScheduler+0xcc>)
 8005e58:	2201      	movs	r2, #1
 8005e5a:	601a      	str	r2, [r3, #0]
		xTickCount = ( TickType_t ) configINITIAL_TICK_COUNT;
 8005e5c:	4b13      	ldr	r3, [pc, #76]	@ (8005eac <vTaskStartScheduler+0xd0>)
 8005e5e:	2200      	movs	r2, #0
 8005e60:	601a      	str	r2, [r3, #0]

		traceTASK_SWITCHED_IN();

		/* Setting up the timer tick is hardware specific and thus in the
		portable interface. */
		if( xPortStartScheduler() != pdFALSE )
 8005e62:	f000 fbb1 	bl	80065c8 <xPortStartScheduler>
	}

	/* Prevent compiler warnings if INCLUDE_xTaskGetIdleTaskHandle is set to 0,
	meaning xIdleTaskHandle is not used anywhere else. */
	( void ) xIdleTaskHandle;
}
 8005e66:	e00f      	b.n	8005e88 <vTaskStartScheduler+0xac>
		configASSERT( xReturn != errCOULD_NOT_ALLOCATE_REQUIRED_MEMORY );
 8005e68:	697b      	ldr	r3, [r7, #20]
 8005e6a:	f1b3 3fff 	cmp.w	r3, #4294967295	@ 0xffffffff
 8005e6e:	d10b      	bne.n	8005e88 <vTaskStartScheduler+0xac>
	__asm volatile
 8005e70:	f04f 0350 	mov.w	r3, #80	@ 0x50
 8005e74:	f383 8811 	msr	BASEPRI, r3
 8005e78:	f3bf 8f6f 	isb	sy
 8005e7c:	f3bf 8f4f 	dsb	sy
 8005e80:	60fb      	str	r3, [r7, #12]
}
 8005e82:	bf00      	nop
 8005e84:	bf00      	nop
 8005e86:	e7fd      	b.n	8005e84 <vTaskStartScheduler+0xa8>
}
 8005e88:	bf00      	nop
 8005e8a:	3718      	adds	r7, #24
 8005e8c:	46bd      	mov	sp, r7
 8005e8e:	bd80      	pop	{r7, pc}
 8005e90:	08007224 	.word	0x08007224
 8005e94:	08006241 	.word	0x08006241
 8005e98:	20000628 	.word	0x20000628
 8005e9c:	20000504 	.word	0x20000504
 8005ea0:	20000018 	.word	0x20000018
 8005ea4:	20000624 	.word	0x20000624
 8005ea8:	20000610 	.word	0x20000610
 8005eac:	20000608 	.word	0x20000608

08005eb0 <vTaskSuspendAll>:
	vPortEndScheduler();
}
/*----------------------------------------------------------*/

void vTaskSuspendAll( void )
{
 8005eb0:	b480      	push	{r7}
 8005eb2:	af00      	add	r7, sp, #0
	do not otherwise exhibit real time behaviour. */
	portSOFTWARE_BARRIER();

	/* The scheduler is suspended if uxSchedulerSuspended is non-zero.  An increment
	is used to allow calls to vTaskSuspendAll() to nest. */
	++uxSchedulerSuspended;
 8005eb4:	4b04      	ldr	r3, [pc, #16]	@ (8005ec8 <vTaskSuspendAll+0x18>)
 8005eb6:	681b      	ldr	r3, [r3, #0]
 8005eb8:	3301      	adds	r3, #1
 8005eba:	4a03      	ldr	r2, [pc, #12]	@ (8005ec8 <vTaskSuspendAll+0x18>)
 8005ebc:	6013      	str	r3, [r2, #0]

	/* Enforces ordering for ports and optimised compilers that may otherwise place
	the above increment elsewhere. */
	portMEMORY_BARRIER();
}
 8005ebe:	bf00      	nop
 8005ec0:	46bd      	mov	sp, r7
 8005ec2:	bc80      	pop	{r7}
 8005ec4:	4770      	bx	lr
 8005ec6:	bf00      	nop
 8005ec8:	2000062c 	.word	0x2000062c

08005ecc <xTaskResumeAll>:

#endif /* configUSE_TICKLESS_IDLE */
/*----------------------------------------------------------*/

BaseType_t xTaskResumeAll( void )
{
 8005ecc:	b580      	push	{r7, lr}
 8005ece:	b084      	sub	sp, #16
 8005ed0:	af00      	add	r7, sp, #0
TCB_t *pxTCB = NULL;
 8005ed2:	2300      	movs	r3, #0
 8005ed4:	60fb      	str	r3, [r7, #12]
BaseType_t xAlreadyYielded = pdFALSE;
 8005ed6:	2300      	movs	r3, #0
 8005ed8:	60bb      	str	r3, [r7, #8]

	/* If uxSchedulerSuspended is zero then this function does not match a
	previous call to vTaskSuspendAll(). */
	configASSERT( uxSchedulerSuspended );
 8005eda:	4b42      	ldr	r3, [pc, #264]	@ (8005fe4 <xTaskResumeAll+0x118>)
 8005edc:	681b      	ldr	r3, [r3, #0]
 8005ede:	2b00      	cmp	r3, #0
 8005ee0:	d10b      	bne.n	8005efa <xTaskResumeAll+0x2e>
	__asm volatile
 8005ee2:	f04f 0350 	mov.w	r3, #80	@ 0x50
 8005ee6:	f383 8811 	msr	BASEPRI, r3
 8005eea:	f3bf 8f6f 	isb	sy
 8005eee:	f3bf 8f4f 	dsb	sy
 8005ef2:	603b      	str	r3, [r7, #0]
}
 8005ef4:	bf00      	nop
 8005ef6:	bf00      	nop
 8005ef8:	e7fd      	b.n	8005ef6 <xTaskResumeAll+0x2a>
	/* It is possible that an ISR caused a task to be removed from an event
	list while the scheduler was suspended.  If this was the case then the
	removed task will have been added to the xPendingReadyList.  Once the
	scheduler has been resumed it is safe to move all the pending ready
	tasks from this list into their appropriate ready list. */
	taskENTER_CRITICAL();
 8005efa:	f000 fbd7 	bl	80066ac <vPortEnterCritical>
	{
		--uxSchedulerSuspended;
 8005efe:	4b39      	ldr	r3, [pc, #228]	@ (8005fe4 <xTaskResumeAll+0x118>)
 8005f00:	681b      	ldr	r3, [r3, #0]
 8005f02:	3b01      	subs	r3, #1
 8005f04:	4a37      	ldr	r2, [pc, #220]	@ (8005fe4 <xTaskResumeAll+0x118>)
 8005f06:	6013      	str	r3, [r2, #0]

		if( uxSchedulerSuspended == ( UBaseType_t ) pdFALSE )
 8005f08:	4b36      	ldr	r3, [pc, #216]	@ (8005fe4 <xTaskResumeAll+0x118>)
 8005f0a:	681b      	ldr	r3, [r3, #0]
 8005f0c:	2b00      	cmp	r3, #0
 8005f0e:	d161      	bne.n	8005fd4 <xTaskResumeAll+0x108>
		{
			if( uxCurrentNumberOfTasks > ( UBaseType_t ) 0U )
 8005f10:	4b35      	ldr	r3, [pc, #212]	@ (8005fe8 <xTaskResumeAll+0x11c>)
 8005f12:	681b      	ldr	r3, [r3, #0]
 8005f14:	2b00      	cmp	r3, #0
 8005f16:	d05d      	beq.n	8005fd4 <xTaskResumeAll+0x108>
			{
				/* Move any readied tasks from the pending list into the
				appropriate ready list. */
				while( listLIST_IS_EMPTY( &xPendingReadyList ) == pdFALSE )
 8005f18:	e02e      	b.n	8005f78 <xTaskResumeAll+0xac>
				{
					pxTCB = listGET_OWNER_OF_HEAD_ENTRY( ( &xPendingReadyList ) ); /*lint !e9079 void * is used as this macro is used with timers and co-routines too.  Alignment is known to be fine as the type of the pointer stored and retrieved is the same. */
 8005f1a:	4b34      	ldr	r3, [pc, #208]	@ (8005fec <xTaskResumeAll+0x120>)
 8005f1c:	68db      	ldr	r3, [r3, #12]
 8005f1e:	68db      	ldr	r3, [r3, #12]
 8005f20:	60fb      	str	r3, [r7, #12]
					( void ) uxListRemove( &( pxTCB->xEventListItem ) );
 8005f22:	68fb      	ldr	r3, [r7, #12]
 8005f24:	3318      	adds	r3, #24
 8005f26:	4618      	mov	r0, r3
 8005f28:	f7ff fd49 	bl	80059be <uxListRemove>
					( void ) uxListRemove( &( pxTCB->xStateListItem ) );
 8005f2c:	68fb      	ldr	r3, [r7, #12]
 8005f2e:	3304      	adds	r3, #4
 8005f30:	4618      	mov	r0, r3
 8005f32:	f7ff fd44 	bl	80059be <uxListRemove>
					prvAddTaskToReadyList( pxTCB );
 8005f36:	68fb      	ldr	r3, [r7, #12]
 8005f38:	6adb      	ldr	r3, [r3, #44]	@ 0x2c
 8005f3a:	2201      	movs	r2, #1
 8005f3c:	409a      	lsls	r2, r3
 8005f3e:	4b2c      	ldr	r3, [pc, #176]	@ (8005ff0 <xTaskResumeAll+0x124>)
 8005f40:	681b      	ldr	r3, [r3, #0]
 8005f42:	4313      	orrs	r3, r2
 8005f44:	4a2a      	ldr	r2, [pc, #168]	@ (8005ff0 <xTaskResumeAll+0x124>)
 8005f46:	6013      	str	r3, [r2, #0]
 8005f48:	68fb      	ldr	r3, [r7, #12]
 8005f4a:	6ada      	ldr	r2, [r3, #44]	@ 0x2c
 8005f4c:	4613      	mov	r3, r2
 8005f4e:	009b      	lsls	r3, r3, #2
 8005f50:	4413      	add	r3, r2
 8005f52:	009b      	lsls	r3, r3, #2
 8005f54:	4a27      	ldr	r2, [pc, #156]	@ (8005ff4 <xTaskResumeAll+0x128>)
 8005f56:	441a      	add	r2, r3
 8005f58:	68fb      	ldr	r3, [r7, #12]
 8005f5a:	3304      	adds	r3, #4
 8005f5c:	4619      	mov	r1, r3
 8005f5e:	4610      	mov	r0, r2
 8005f60:	f7ff fcd2 	bl	8005908 <vListInsertEnd>

					/* If the moved task has a priority higher than the current
					task then a yield must be performed. */
					if( pxTCB->uxPriority >= pxCurrentTCB->uxPriority )
 8005f64:	68fb      	ldr	r3, [r7, #12]
 8005f66:	6ada      	ldr	r2, [r3, #44]	@ 0x2c
 8005f68:	4b23      	ldr	r3, [pc, #140]	@ (8005ff8 <xTaskResumeAll+0x12c>)
 8005f6a:	681b      	ldr	r3, [r3, #0]
 8005f6c:	6adb      	ldr	r3, [r3, #44]	@ 0x2c
 8005f6e:	429a      	cmp	r2, r3
 8005f70:	d302      	bcc.n	8005f78 <xTaskResumeAll+0xac>
					{
						xYieldPending = pdTRUE;
 8005f72:	4b22      	ldr	r3, [pc, #136]	@ (8005ffc <xTaskResumeAll+0x130>)
 8005f74:	2201      	movs	r2, #1
 8005f76:	601a      	str	r2, [r3, #0]
				while( listLIST_IS_EMPTY( &xPendingReadyList ) == pdFALSE )
 8005f78:	4b1c      	ldr	r3, [pc, #112]	@ (8005fec <xTaskResumeAll+0x120>)
 8005f7a:	681b      	ldr	r3, [r3, #0]
 8005f7c:	2b00      	cmp	r3, #0
 8005f7e:	d1cc      	bne.n	8005f1a <xTaskResumeAll+0x4e>
					{
						mtCOVERAGE_TEST_MARKER();
					}
				}

				if( pxTCB != NULL )
 8005f80:	68fb      	ldr	r3, [r7, #12]
 8005f82:	2b00      	cmp	r3, #0
 8005f84:	d001      	beq.n	8005f8a <xTaskResumeAll+0xbe>
					which may have prevented the next unblock time from being
					re-calculated, in which case re-calculate it now.  Mainly
					important for low power tickless implementations, where
					this can prevent an unnecessary exit from low power
					state. */
					prvResetNextTaskUnblockTime();
 8005f86:	f000 fa17 	bl	80063b8 <prvResetNextTaskUnblockTime>
				/* If any ticks occurred while the scheduler was suspended then
				they should be processed now.  This ensures the tick count does
				not	slip, and that any delayed tasks are resumed at the correct
				time. */
				{
					TickType_t xPendedCounts = xPendedTicks; /* Non-volatile copy. */
 8005f8a:	4b1d      	ldr	r3, [pc, #116]	@ (8006000 <xTaskResumeAll+0x134>)
 8005f8c:	681b      	ldr	r3, [r3, #0]
 8005f8e:	607b      	str	r3, [r7, #4]

					if( xPendedCounts > ( TickType_t ) 0U )
 8005f90:	687b      	ldr	r3, [r7, #4]
 8005f92:	2b00      	cmp	r3, #0
 8005f94:	d010      	beq.n	8005fb8 <xTaskResumeAll+0xec>
					{
						do
						{
							if( xTaskIncrementTick() != pdFALSE )
 8005f96:	f000 f837 	bl	8006008 <xTaskIncrementTick>
 8005f9a:	4603      	mov	r3, r0
 8005f9c:	2b00      	cmp	r3, #0
 8005f9e:	d002      	beq.n	8005fa6 <xTaskResumeAll+0xda>
							{
								xYieldPending = pdTRUE;
 8005fa0:	4b16      	ldr	r3, [pc, #88]	@ (8005ffc <xTaskResumeAll+0x130>)
 8005fa2:	2201      	movs	r2, #1
 8005fa4:	601a      	str	r2, [r3, #0]
							}
							else
							{
								mtCOVERAGE_TEST_MARKER();
							}
							--xPendedCounts;
 8005fa6:	687b      	ldr	r3, [r7, #4]
 8005fa8:	3b01      	subs	r3, #1
 8005faa:	607b      	str	r3, [r7, #4]
						} while( xPendedCounts > ( TickType_t ) 0U );
 8005fac:	687b      	ldr	r3, [r7, #4]
 8005fae:	2b00      	cmp	r3, #0
 8005fb0:	d1f1      	bne.n	8005f96 <xTaskResumeAll+0xca>

						xPendedTicks = 0;
 8005fb2:	4b13      	ldr	r3, [pc, #76]	@ (8006000 <xTaskResumeAll+0x134>)
 8005fb4:	2200      	movs	r2, #0
 8005fb6:	601a      	str	r2, [r3, #0]
					{
						mtCOVERAGE_TEST_MARKER();
					}
				}

				if( xYieldPending != pdFALSE )
 8005fb8:	4b10      	ldr	r3, [pc, #64]	@ (8005ffc <xTaskResumeAll+0x130>)
 8005fba:	681b      	ldr	r3, [r3, #0]
 8005fbc:	2b00      	cmp	r3, #0
 8005fbe:	d009      	beq.n	8005fd4 <xTaskResumeAll+0x108>
				{
					#if( configUSE_PREEMPTION != 0 )
					{
						xAlreadyYielded = pdTRUE;
 8005fc0:	2301      	movs	r3, #1
 8005fc2:	60bb      	str	r3, [r7, #8]
					}
					#endif
					taskYIELD_IF_USING_PREEMPTION();
 8005fc4:	4b0f      	ldr	r3, [pc, #60]	@ (8006004 <xTaskResumeAll+0x138>)
 8005fc6:	f04f 5280 	mov.w	r2, #268435456	@ 0x10000000
 8005fca:	601a      	str	r2, [r3, #0]
 8005fcc:	f3bf 8f4f 	dsb	sy
 8005fd0:	f3bf 8f6f 	isb	sy
		else
		{
			mtCOVERAGE_TEST_MARKER();
		}
	}
	taskEXIT_CRITICAL();
 8005fd4:	f000 fb9a 	bl	800670c <vPortExitCritical>

	return xAlreadyYielded;
 8005fd8:	68bb      	ldr	r3, [r7, #8]
}
 8005fda:	4618      	mov	r0, r3
 8005fdc:	3710      	adds	r7, #16
 8005fde:	46bd      	mov	sp, r7
 8005fe0:	bd80      	pop	{r7, pc}
 8005fe2:	bf00      	nop
 8005fe4:	2000062c 	.word	0x2000062c
 8005fe8:	20000604 	.word	0x20000604
 8005fec:	200005c4 	.word	0x200005c4
 8005ff0:	2000060c 	.word	0x2000060c
 8005ff4:	20000508 	.word	0x20000508
 8005ff8:	20000504 	.word	0x20000504
 8005ffc:	20000618 	.word	0x20000618
 8006000:	20000614 	.word	0x20000614
 8006004:	e000ed04 	.word	0xe000ed04

08006008 <xTaskIncrementTick>:

#endif /* INCLUDE_xTaskAbortDelay */
/*----------------------------------------------------------*/

BaseType_t xTaskIncrementTick( void )
{
 8006008:	b580      	push	{r7, lr}
 800600a:	b086      	sub	sp, #24
 800600c:	af00      	add	r7, sp, #0
TCB_t * pxTCB;
TickType_t xItemValue;
BaseType_t xSwitchRequired = pdFALSE;
 800600e:	2300      	movs	r3, #0
 8006010:	617b      	str	r3, [r7, #20]

	/* Called by the portable layer each time a tick interrupt occurs.
	Increments the tick then checks to see if the new tick value will cause any
	tasks to be unblocked. */
	traceTASK_INCREMENT_TICK( xTickCount );
	if( uxSchedulerSuspended == ( UBaseType_t ) pdFALSE )
 8006012:	4b4f      	ldr	r3, [pc, #316]	@ (8006150 <xTaskIncrementTick+0x148>)
 8006014:	681b      	ldr	r3, [r3, #0]
 8006016:	2b00      	cmp	r3, #0
 8006018:	f040 808f 	bne.w	800613a <xTaskIncrementTick+0x132>
	{
		/* Minor optimisation.  The tick count cannot change in this
		block. */
		const TickType_t xConstTickCount = xTickCount + ( TickType_t ) 1;
 800601c:	4b4d      	ldr	r3, [pc, #308]	@ (8006154 <xTaskIncrementTick+0x14c>)
 800601e:	681b      	ldr	r3, [r3, #0]
 8006020:	3301      	adds	r3, #1
 8006022:	613b      	str	r3, [r7, #16]

		/* Increment the RTOS tick, switching the delayed and overflowed
		delayed lists if it wraps to 0. */
		xTickCount = xConstTickCount;
 8006024:	4a4b      	ldr	r2, [pc, #300]	@ (8006154 <xTaskIncrementTick+0x14c>)
 8006026:	693b      	ldr	r3, [r7, #16]
 8006028:	6013      	str	r3, [r2, #0]

		if( xConstTickCount == ( TickType_t ) 0U ) /*lint !e774 'if' does not always evaluate to false as it is looking for an overflow. */
 800602a:	693b      	ldr	r3, [r7, #16]
 800602c:	2b00      	cmp	r3, #0
 800602e:	d121      	bne.n	8006074 <xTaskIncrementTick+0x6c>
		{
			taskSWITCH_DELAYED_LISTS();
 8006030:	4b49      	ldr	r3, [pc, #292]	@ (8006158 <xTaskIncrementTick+0x150>)
 8006032:	681b      	ldr	r3, [r3, #0]
 8006034:	681b      	ldr	r3, [r3, #0]
 8006036:	2b00      	cmp	r3, #0
 8006038:	d00b      	beq.n	8006052 <xTaskIncrementTick+0x4a>
	__asm volatile
 800603a:	f04f 0350 	mov.w	r3, #80	@ 0x50
 800603e:	f383 8811 	msr	BASEPRI, r3
 8006042:	f3bf 8f6f 	isb	sy
 8006046:	f3bf 8f4f 	dsb	sy
 800604a:	603b      	str	r3, [r7, #0]
}
 800604c:	bf00      	nop
 800604e:	bf00      	nop
 8006050:	e7fd      	b.n	800604e <xTaskIncrementTick+0x46>
 8006052:	4b41      	ldr	r3, [pc, #260]	@ (8006158 <xTaskIncrementTick+0x150>)
 8006054:	681b      	ldr	r3, [r3, #0]
 8006056:	60fb      	str	r3, [r7, #12]
 8006058:	4b40      	ldr	r3, [pc, #256]	@ (800615c <xTaskIncrementTick+0x154>)
 800605a:	681b      	ldr	r3, [r3, #0]
 800605c:	4a3e      	ldr	r2, [pc, #248]	@ (8006158 <xTaskIncrementTick+0x150>)
 800605e:	6013      	str	r3, [r2, #0]
 8006060:	4a3e      	ldr	r2, [pc, #248]	@ (800615c <xTaskIncrementTick+0x154>)
 8006062:	68fb      	ldr	r3, [r7, #12]
 8006064:	6013      	str	r3, [r2, #0]
 8006066:	4b3e      	ldr	r3, [pc, #248]	@ (8006160 <xTaskIncrementTick+0x158>)
 8006068:	681b      	ldr	r3, [r3, #0]
 800606a:	3301      	adds	r3, #1
 800606c:	4a3c      	ldr	r2, [pc, #240]	@ (8006160 <xTaskIncrementTick+0x158>)
 800606e:	6013      	str	r3, [r2, #0]
 8006070:	f000 f9a2 	bl	80063b8 <prvResetNextTaskUnblockTime>

		/* See if this tick has made a timeout expire.  Tasks are stored in
		the	queue in the order of their wake time - meaning once one task
		has been found whose block time has not expired there is no need to
		look any further down the list. */
		if( xConstTickCount >= xNextTaskUnblockTime )
 8006074:	4b3b      	ldr	r3, [pc, #236]	@ (8006164 <xTaskIncrementTick+0x15c>)
 8006076:	681b      	ldr	r3, [r3, #0]
 8006078:	693a      	ldr	r2, [r7, #16]
 800607a:	429a      	cmp	r2, r3
 800607c:	d348      	bcc.n	8006110 <xTaskIncrementTick+0x108>
		{
			for( ;; )
			{
				if( listLIST_IS_EMPTY( pxDelayedTaskList ) != pdFALSE )
 800607e:	4b36      	ldr	r3, [pc, #216]	@ (8006158 <xTaskIncrementTick+0x150>)
 8006080:	681b      	ldr	r3, [r3, #0]
 8006082:	681b      	ldr	r3, [r3, #0]
 8006084:	2b00      	cmp	r3, #0
 8006086:	d104      	bne.n	8006092 <xTaskIncrementTick+0x8a>
					/* The delayed list is empty.  Set xNextTaskUnblockTime
					to the maximum possible value so it is extremely
					unlikely that the
					if( xTickCount >= xNextTaskUnblockTime ) test will pass
					next time through. */
					xNextTaskUnblockTime = portMAX_DELAY; /*lint !e961 MISRA exception as the casts are only redundant for some ports. */
 8006088:	4b36      	ldr	r3, [pc, #216]	@ (8006164 <xTaskIncrementTick+0x15c>)
 800608a:	f04f 32ff 	mov.w	r2, #4294967295	@ 0xffffffff
 800608e:	601a      	str	r2, [r3, #0]
					break;
 8006090:	e03e      	b.n	8006110 <xTaskIncrementTick+0x108>
				{
					/* The delayed list is not empty, get the value of the
					item at the head of the delayed list.  This is the time
					at which the task at the head of the delayed list must
					be removed from the Blocked state. */
					pxTCB = listGET_OWNER_OF_HEAD_ENTRY( pxDelayedTaskList ); /*lint !e9079 void * is used as this macro is used with timers and co-routines too.  Alignment is known to be fine as the type of the pointer stored and retrieved is the same. */
 8006092:	4b31      	ldr	r3, [pc, #196]	@ (8006158 <xTaskIncrementTick+0x150>)
 8006094:	681b      	ldr	r3, [r3, #0]
 8006096:	68db      	ldr	r3, [r3, #12]
 8006098:	68db      	ldr	r3, [r3, #12]
 800609a:	60bb      	str	r3, [r7, #8]
					xItemValue = listGET_LIST_ITEM_VALUE( &( pxTCB->xStateListItem ) );
 800609c:	68bb      	ldr	r3, [r7, #8]
 800609e:	685b      	ldr	r3, [r3, #4]
 80060a0:	607b      	str	r3, [r7, #4]

					if( xConstTickCount < xItemValue )
 80060a2:	693a      	ldr	r2, [r7, #16]
 80060a4:	687b      	ldr	r3, [r7, #4]
 80060a6:	429a      	cmp	r2, r3
 80060a8:	d203      	bcs.n	80060b2 <xTaskIncrementTick+0xaa>
						/* It is not time to unblock this item yet, but the
						item value is the time at which the task at the head
						of the blocked list must be removed from the Blocked
						state -	so record the item value in
						xNextTaskUnblockTime. */
						xNextTaskUnblockTime = xItemValue;
 80060aa:	4a2e      	ldr	r2, [pc, #184]	@ (8006164 <xTaskIncrementTick+0x15c>)
 80060ac:	687b      	ldr	r3, [r7, #4]
 80060ae:	6013      	str	r3, [r2, #0]
						break; /*lint !e9011 Code structure here is deedmed easier to understand with multiple breaks. */
 80060b0:	e02e      	b.n	8006110 <xTaskIncrementTick+0x108>
					{
						mtCOVERAGE_TEST_MARKER();
					}

					/* It is time to remove the item from the Blocked state. */
					( void ) uxListRemove( &( pxTCB->xStateListItem ) );
 80060b2:	68bb      	ldr	r3, [r7, #8]
 80060b4:	3304      	adds	r3, #4
 80060b6:	4618      	mov	r0, r3
 80060b8:	f7ff fc81 	bl	80059be <uxListRemove>

					/* Is the task waiting on an event also?  If so remove
					it from the event list. */
					if( listLIST_ITEM_CONTAINER( &( pxTCB->xEventListItem ) ) != NULL )
 80060bc:	68bb      	ldr	r3, [r7, #8]
 80060be:	6a9b      	ldr	r3, [r3, #40]	@ 0x28
 80060c0:	2b00      	cmp	r3, #0
 80060c2:	d004      	beq.n	80060ce <xTaskIncrementTick+0xc6>
					{
						( void ) uxListRemove( &( pxTCB->xEventListItem ) );
 80060c4:	68bb      	ldr	r3, [r7, #8]
 80060c6:	3318      	adds	r3, #24
 80060c8:	4618      	mov	r0, r3
 80060ca:	f7ff fc78 	bl	80059be <uxListRemove>
						mtCOVERAGE_TEST_MARKER();
					}

					/* Place the unblocked task into the appropriate ready
					list. */
					prvAddTaskToReadyList( pxTCB );
 80060ce:	68bb      	ldr	r3, [r7, #8]
 80060d0:	6adb      	ldr	r3, [r3, #44]	@ 0x2c
 80060d2:	2201      	movs	r2, #1
 80060d4:	409a      	lsls	r2, r3
 80060d6:	4b24      	ldr	r3, [pc, #144]	@ (8006168 <xTaskIncrementTick+0x160>)
 80060d8:	681b      	ldr	r3, [r3, #0]
 80060da:	4313      	orrs	r3, r2
 80060dc:	4a22      	ldr	r2, [pc, #136]	@ (8006168 <xTaskIncrementTick+0x160>)
 80060de:	6013      	str	r3, [r2, #0]
 80060e0:	68bb      	ldr	r3, [r7, #8]
 80060e2:	6ada      	ldr	r2, [r3, #44]	@ 0x2c
 80060e4:	4613      	mov	r3, r2
 80060e6:	009b      	lsls	r3, r3, #2
 80060e8:	4413      	add	r3, r2
 80060ea:	009b      	lsls	r3, r3, #2
 80060ec:	4a1f      	ldr	r2, [pc, #124]	@ (800616c <xTaskIncrementTick+0x164>)
 80060ee:	441a      	add	r2, r3
 80060f0:	68bb      	ldr	r3, [r7, #8]
 80060f2:	3304      	adds	r3, #4
 80060f4:	4619      	mov	r1, r3
 80060f6:	4610      	mov	r0, r2
 80060f8:	f7ff fc06 	bl	8005908 <vListInsertEnd>
					{
						/* Preemption is on, but a context switch should
						only be performed if the unblocked task has a
						priority that is equal to or higher than the
						currently executing task. */
						if( pxTCB->uxPriority >= pxCurrentTCB->uxPriority )
 80060fc:	68bb      	ldr	r3, [r7, #8]
 80060fe:	6ada      	ldr	r2, [r3, #44]	@ 0x2c
 8006100:	4b1b      	ldr	r3, [pc, #108]	@ (8006170 <xTaskIncrementTick+0x168>)
 8006102:	681b      	ldr	r3, [r3, #0]
 8006104:	6adb      	ldr	r3, [r3, #44]	@ 0x2c
 8006106:	429a      	cmp	r2, r3
 8006108:	d3b9      	bcc.n	800607e <xTaskIncrementTick+0x76>
						{
							xSwitchRequired = pdTRUE;
 800610a:	2301      	movs	r3, #1
 800610c:	617b      	str	r3, [r7, #20]
				if( listLIST_IS_EMPTY( pxDelayedTaskList ) != pdFALSE )
 800610e:	e7b6      	b.n	800607e <xTaskIncrementTick+0x76>
		/* Tasks of equal priority to the currently running task will share
		processing time (time slice) if preemption is on, and the application
		writer has not explicitly turned time slicing off. */
		#if ( ( configUSE_PREEMPTION == 1 ) && ( configUSE_TIME_SLICING == 1 ) )
		{
			if( listCURRENT_LIST_LENGTH( &( pxReadyTasksLists[ pxCurrentTCB->uxPriority ] ) ) > ( UBaseType_t ) 1 )
 8006110:	4b17      	ldr	r3, [pc, #92]	@ (8006170 <xTaskIncrementTick+0x168>)
 8006112:	681b      	ldr	r3, [r3, #0]
 8006114:	6ada      	ldr	r2, [r3, #44]	@ 0x2c
 8006116:	4915      	ldr	r1, [pc, #84]	@ (800616c <xTaskIncrementTick+0x164>)
 8006118:	4613      	mov	r3, r2
 800611a:	009b      	lsls	r3, r3, #2
 800611c:	4413      	add	r3, r2
 800611e:	009b      	lsls	r3, r3, #2
 8006120:	440b      	add	r3, r1
 8006122:	681b      	ldr	r3, [r3, #0]
 8006124:	2b01      	cmp	r3, #1
 8006126:	d901      	bls.n	800612c <xTaskIncrementTick+0x124>
			{
				xSwitchRequired = pdTRUE;
 8006128:	2301      	movs	r3, #1
 800612a:	617b      	str	r3, [r7, #20]
		}
		#endif /* configUSE_TICK_HOOK */

		#if ( configUSE_PREEMPTION == 1 )
		{
			if( xYieldPending != pdFALSE )
 800612c:	4b11      	ldr	r3, [pc, #68]	@ (8006174 <xTaskIncrementTick+0x16c>)
 800612e:	681b      	ldr	r3, [r3, #0]
 8006130:	2b00      	cmp	r3, #0
 8006132:	d007      	beq.n	8006144 <xTaskIncrementTick+0x13c>
			{
				xSwitchRequired = pdTRUE;
 8006134:	2301      	movs	r3, #1
 8006136:	617b      	str	r3, [r7, #20]
 8006138:	e004      	b.n	8006144 <xTaskIncrementTick+0x13c>
		}
		#endif /* configUSE_PREEMPTION */
	}
	else
	{
		++xPendedTicks;
 800613a:	4b0f      	ldr	r3, [pc, #60]	@ (8006178 <xTaskIncrementTick+0x170>)
 800613c:	681b      	ldr	r3, [r3, #0]
 800613e:	3301      	adds	r3, #1
 8006140:	4a0d      	ldr	r2, [pc, #52]	@ (8006178 <xTaskIncrementTick+0x170>)
 8006142:	6013      	str	r3, [r2, #0]
			vApplicationTickHook();
		}
		#endif
	}

	return xSwitchRequired;
 8006144:	697b      	ldr	r3, [r7, #20]
}
 8006146:	4618      	mov	r0, r3
 8006148:	3718      	adds	r7, #24
 800614a:	46bd      	mov	sp, r7
 800614c:	bd80      	pop	{r7, pc}
 800614e:	bf00      	nop
 8006150:	2000062c 	.word	0x2000062c
 8006154:	20000608 	.word	0x20000608
 8006158:	200005bc 	.word	0x200005bc
 800615c:	200005c0 	.word	0x200005c0
 8006160:	2000061c 	.word	0x2000061c
 8006164:	20000624 	.word	0x20000624
 8006168:	2000060c 	.word	0x2000060c
 800616c:	20000508 	.word	0x20000508
 8006170:	20000504 	.word	0x20000504
 8006174:	20000618 	.word	0x20000618
 8006178:	20000614 	.word	0x20000614

0800617c <vTaskSwitchContext>:

#endif /* configUSE_APPLICATION_TASK_TAG */
/*-----------------------------------------------------------*/

void vTaskSwitchContext( void )
{
 800617c:	b480      	push	{r7}
 800617e:	b087      	sub	sp, #28
 8006180:	af00      	add	r7, sp, #0
	if( uxSchedulerSuspended != ( UBaseType_t ) pdFALSE )
 8006182:	4b29      	ldr	r3, [pc, #164]	@ (8006228 <vTaskSwitchContext+0xac>)
 8006184:	681b      	ldr	r3, [r3, #0]
 8006186:	2b00      	cmp	r3, #0
 8006188:	d003      	beq.n	8006192 <vTaskSwitchContext+0x16>
	{
		/* The scheduler is currently suspended - do not allow a context
		switch. */
		xYieldPending = pdTRUE;
 800618a:	4b28      	ldr	r3, [pc, #160]	@ (800622c <vTaskSwitchContext+0xb0>)
 800618c:	2201      	movs	r2, #1
 800618e:	601a      	str	r2, [r3, #0]
			for additional information. */
			_impure_ptr = &( pxCurrentTCB->xNewLib_reent );
		}
		#endif /* configUSE_NEWLIB_REENTRANT */
	}
}
 8006190:	e045      	b.n	800621e <vTaskSwitchContext+0xa2>
		xYieldPending = pdFALSE;
 8006192:	4b26      	ldr	r3, [pc, #152]	@ (800622c <vTaskSwitchContext+0xb0>)
 8006194:	2200      	movs	r2, #0
 8006196:	601a      	str	r2, [r3, #0]
		taskSELECT_HIGHEST_PRIORITY_TASK(); /*lint !e9079 void * is used as this macro is used with timers and co-routines too.  Alignment is known to be fine as the type of the pointer stored and retrieved is the same. */
 8006198:	4b25      	ldr	r3, [pc, #148]	@ (8006230 <vTaskSwitchContext+0xb4>)
 800619a:	681b      	ldr	r3, [r3, #0]
 800619c:	60fb      	str	r3, [r7, #12]
		__asm volatile ( "clz %0, %1" : "=r" ( ucReturn ) : "r" ( ulBitmap ) : "memory" );
 800619e:	68fb      	ldr	r3, [r7, #12]
 80061a0:	fab3 f383 	clz	r3, r3
 80061a4:	72fb      	strb	r3, [r7, #11]
		return ucReturn;
 80061a6:	7afb      	ldrb	r3, [r7, #11]
 80061a8:	f1c3 031f 	rsb	r3, r3, #31
 80061ac:	617b      	str	r3, [r7, #20]
 80061ae:	4921      	ldr	r1, [pc, #132]	@ (8006234 <vTaskSwitchContext+0xb8>)
 80061b0:	697a      	ldr	r2, [r7, #20]
 80061b2:	4613      	mov	r3, r2
 80061b4:	009b      	lsls	r3, r3, #2
 80061b6:	4413      	add	r3, r2
 80061b8:	009b      	lsls	r3, r3, #2
 80061ba:	440b      	add	r3, r1
 80061bc:	681b      	ldr	r3, [r3, #0]
 80061be:	2b00      	cmp	r3, #0
 80061c0:	d10b      	bne.n	80061da <vTaskSwitchContext+0x5e>
	__asm volatile
 80061c2:	f04f 0350 	mov.w	r3, #80	@ 0x50
 80061c6:	f383 8811 	msr	BASEPRI, r3
 80061ca:	f3bf 8f6f 	isb	sy
 80061ce:	f3bf 8f4f 	dsb	sy
 80061d2:	607b      	str	r3, [r7, #4]
}
 80061d4:	bf00      	nop
 80061d6:	bf00      	nop
 80061d8:	e7fd      	b.n	80061d6 <vTaskSwitchContext+0x5a>
 80061da:	697a      	ldr	r2, [r7, #20]
 80061dc:	4613      	mov	r3, r2
 80061de:	009b      	lsls	r3, r3, #2
 80061e0:	4413      	add	r3, r2
 80061e2:	009b      	lsls	r3, r3, #2
 80061e4:	4a13      	ldr	r2, [pc, #76]	@ (8006234 <vTaskSwitchContext+0xb8>)
 80061e6:	4413      	add	r3, r2
 80061e8:	613b      	str	r3, [r7, #16]
 80061ea:	693b      	ldr	r3, [r7, #16]
 80061ec:	685b      	ldr	r3, [r3, #4]
 80061ee:	685a      	ldr	r2, [r3, #4]
 80061f0:	693b      	ldr	r3, [r7, #16]
 80061f2:	605a      	str	r2, [r3, #4]
 80061f4:	693b      	ldr	r3, [r7, #16]
 80061f6:	685a      	ldr	r2, [r3, #4]
 80061f8:	693b      	ldr	r3, [r7, #16]
 80061fa:	3308      	adds	r3, #8
 80061fc:	429a      	cmp	r2, r3
 80061fe:	d104      	bne.n	800620a <vTaskSwitchContext+0x8e>
 8006200:	693b      	ldr	r3, [r7, #16]
 8006202:	685b      	ldr	r3, [r3, #4]
 8006204:	685a      	ldr	r2, [r3, #4]
 8006206:	693b      	ldr	r3, [r7, #16]
 8006208:	605a      	str	r2, [r3, #4]
 800620a:	693b      	ldr	r3, [r7, #16]
 800620c:	685b      	ldr	r3, [r3, #4]
 800620e:	68db      	ldr	r3, [r3, #12]
 8006210:	4a09      	ldr	r2, [pc, #36]	@ (8006238 <vTaskSwitchContext+0xbc>)
 8006212:	6013      	str	r3, [r2, #0]
			_impure_ptr = &( pxCurrentTCB->xNewLib_reent );
 8006214:	4b08      	ldr	r3, [pc, #32]	@ (8006238 <vTaskSwitchContext+0xbc>)
 8006216:	681b      	ldr	r3, [r3, #0]
 8006218:	334c      	adds	r3, #76	@ 0x4c
 800621a:	4a08      	ldr	r2, [pc, #32]	@ (800623c <vTaskSwitchContext+0xc0>)
 800621c:	6013      	str	r3, [r2, #0]
}
 800621e:	bf00      	nop
 8006220:	371c      	adds	r7, #28
 8006222:	46bd      	mov	sp, r7
 8006224:	bc80      	pop	{r7}
 8006226:	4770      	bx	lr
 8006228:	2000062c 	.word	0x2000062c
 800622c:	20000618 	.word	0x20000618
 8006230:	2000060c 	.word	0x2000060c
 8006234:	20000508 	.word	0x20000508
 8006238:	20000504 	.word	0x20000504
 800623c:	20000018 	.word	0x20000018

08006240 <prvIdleTask>:
 *
 * void prvIdleTask( void *pvParameters );
 *
 */
static portTASK_FUNCTION( prvIdleTask, pvParameters )
{
 8006240:	b580      	push	{r7, lr}
 8006242:	b082      	sub	sp, #8
 8006244:	af00      	add	r7, sp, #0
 8006246:	6078      	str	r0, [r7, #4]

	for( ;; )
	{
		/* See if any tasks have deleted themselves - if so then the idle task
		is responsible for freeing the deleted task's TCB and stack. */
		prvCheckTasksWaitingTermination();
 8006248:	f000 f852 	bl	80062f0 <prvCheckTasksWaitingTermination>

			A critical region is not required here as we are just reading from
			the list, and an occasional incorrect value will not matter.  If
			the ready list at the idle priority contains more than one task
			then a task other than the idle task is ready to execute. */
			if( listCURRENT_LIST_LENGTH( &( pxReadyTasksLists[ tskIDLE_PRIORITY ] ) ) > ( UBaseType_t ) 1 )
 800624c:	4b06      	ldr	r3, [pc, #24]	@ (8006268 <prvIdleTask+0x28>)
 800624e:	681b      	ldr	r3, [r3, #0]
 8006250:	2b01      	cmp	r3, #1
 8006252:	d9f9      	bls.n	8006248 <prvIdleTask+0x8>
			{
				taskYIELD();
 8006254:	4b05      	ldr	r3, [pc, #20]	@ (800626c <prvIdleTask+0x2c>)
 8006256:	f04f 5280 	mov.w	r2, #268435456	@ 0x10000000
 800625a:	601a      	str	r2, [r3, #0]
 800625c:	f3bf 8f4f 	dsb	sy
 8006260:	f3bf 8f6f 	isb	sy
		prvCheckTasksWaitingTermination();
 8006264:	e7f0      	b.n	8006248 <prvIdleTask+0x8>
 8006266:	bf00      	nop
 8006268:	20000508 	.word	0x20000508
 800626c:	e000ed04 	.word	0xe000ed04

08006270 <prvInitialiseTaskLists>:

#endif /* portUSING_MPU_WRAPPERS */
/*-----------------------------------------------------------*/

static void prvInitialiseTaskLists( void )
{
 8006270:	b580      	push	{r7, lr}
 8006272:	b082      	sub	sp, #8
 8006274:	af00      	add	r7, sp, #0
UBaseType_t uxPriority;

	for( uxPriority = ( UBaseType_t ) 0U; uxPriority < ( UBaseType_t ) configMAX_PRIORITIES; uxPriority++ )
 8006276:	2300      	movs	r3, #0
 8006278:	607b      	str	r3, [r7, #4]
 800627a:	e00c      	b.n	8006296 <prvInitialiseTaskLists+0x26>
	{
		vListInitialise( &( pxReadyTasksLists[ uxPriority ] ) );
 800627c:	687a      	ldr	r2, [r7, #4]
 800627e:	4613      	mov	r3, r2
 8006280:	009b      	lsls	r3, r3, #2
 8006282:	4413      	add	r3, r2
 8006284:	009b      	lsls	r3, r3, #2
 8006286:	4a12      	ldr	r2, [pc, #72]	@ (80062d0 <prvInitialiseTaskLists+0x60>)
 8006288:	4413      	add	r3, r2
 800628a:	4618      	mov	r0, r3
 800628c:	f7ff fb11 	bl	80058b2 <vListInitialise>
	for( uxPriority = ( UBaseType_t ) 0U; uxPriority < ( UBaseType_t ) configMAX_PRIORITIES; uxPriority++ )
 8006290:	687b      	ldr	r3, [r7, #4]
 8006292:	3301      	adds	r3, #1
 8006294:	607b      	str	r3, [r7, #4]
 8006296:	687b      	ldr	r3, [r7, #4]
 8006298:	2b06      	cmp	r3, #6
 800629a:	d9ef      	bls.n	800627c <prvInitialiseTaskLists+0xc>
	}

	vListInitialise( &xDelayedTaskList1 );
 800629c:	480d      	ldr	r0, [pc, #52]	@ (80062d4 <prvInitialiseTaskLists+0x64>)
 800629e:	f7ff fb08 	bl	80058b2 <vListInitialise>
	vListInitialise( &xDelayedTaskList2 );
 80062a2:	480d      	ldr	r0, [pc, #52]	@ (80062d8 <prvInitialiseTaskLists+0x68>)
 80062a4:	f7ff fb05 	bl	80058b2 <vListInitialise>
	vListInitialise( &xPendingReadyList );
 80062a8:	480c      	ldr	r0, [pc, #48]	@ (80062dc <prvInitialiseTaskLists+0x6c>)
 80062aa:	f7ff fb02 	bl	80058b2 <vListInitialise>

	#if ( INCLUDE_vTaskDelete == 1 )
	{
		vListInitialise( &xTasksWaitingTermination );
 80062ae:	480c      	ldr	r0, [pc, #48]	@ (80062e0 <prvInitialiseTaskLists+0x70>)
 80062b0:	f7ff faff 	bl	80058b2 <vListInitialise>
	}
	#endif /* INCLUDE_vTaskDelete */

	#if ( INCLUDE_vTaskSuspend == 1 )
	{
		vListInitialise( &xSuspendedTaskList );
 80062b4:	480b      	ldr	r0, [pc, #44]	@ (80062e4 <prvInitialiseTaskLists+0x74>)
 80062b6:	f7ff fafc 	bl	80058b2 <vListInitialise>
	}
	#endif /* INCLUDE_vTaskSuspend */

	/* Start with pxDelayedTaskList using list1 and the pxOverflowDelayedTaskList
	using list2. */
	pxDelayedTaskList = &xDelayedTaskList1;
 80062ba:	4b0b      	ldr	r3, [pc, #44]	@ (80062e8 <prvInitialiseTaskLists+0x78>)
 80062bc:	4a05      	ldr	r2, [pc, #20]	@ (80062d4 <prvInitialiseTaskLists+0x64>)
 80062be:	601a      	str	r2, [r3, #0]
	pxOverflowDelayedTaskList = &xDelayedTaskList2;
 80062c0:	4b0a      	ldr	r3, [pc, #40]	@ (80062ec <prvInitialiseTaskLists+0x7c>)
 80062c2:	4a05      	ldr	r2, [pc, #20]	@ (80062d8 <prvInitialiseTaskLists+0x68>)
 80062c4:	601a      	str	r2, [r3, #0]
}
 80062c6:	bf00      	nop
 80062c8:	3708      	adds	r7, #8
 80062ca:	46bd      	mov	sp, r7
 80062cc:	bd80      	pop	{r7, pc}
 80062ce:	bf00      	nop
 80062d0:	20000508 	.word	0x20000508
 80062d4:	20000594 	.word	0x20000594
 80062d8:	200005a8 	.word	0x200005a8
 80062dc:	200005c4 	.word	0x200005c4
 80062e0:	200005d8 	.word	0x200005d8
 80062e4:	200005f0 	.word	0x200005f0
 80062e8:	200005bc 	.word	0x200005bc
 80062ec:	200005c0 	.word	0x200005c0

080062f0 <prvCheckTasksWaitingTermination>:
/*-----------------------------------------------------------*/

static void prvCheckTasksWaitingTermination( void )
{
 80062f0:	b580      	push	{r7, lr}
 80062f2:	b082      	sub	sp, #8
 80062f4:	af00      	add	r7, sp, #0
	{
		TCB_t *pxTCB;

		/* uxDeletedTasksWaitingCleanUp is used to prevent taskENTER_CRITICAL()
		being called too often in the idle task. */
		while( uxDeletedTasksWaitingCleanUp > ( UBaseType_t ) 0U )
 80062f6:	e019      	b.n	800632c <prvCheckTasksWaitingTermination+0x3c>
		{
			taskENTER_CRITICAL();
 80062f8:	f000 f9d8 	bl	80066ac <vPortEnterCritical>
			{
				pxTCB = listGET_OWNER_OF_HEAD_ENTRY( ( &xTasksWaitingTermination ) ); /*lint !e9079 void * is used as this macro is used with timers and co-routines too.  Alignment is known to be fine as the type of the pointer stored and retrieved is the same. */
 80062fc:	4b10      	ldr	r3, [pc, #64]	@ (8006340 <prvCheckTasksWaitingTermination+0x50>)
 80062fe:	68db      	ldr	r3, [r3, #12]
 8006300:	68db      	ldr	r3, [r3, #12]
 8006302:	607b      	str	r3, [r7, #4]
				( void ) uxListRemove( &( pxTCB->xStateListItem ) );
 8006304:	687b      	ldr	r3, [r7, #4]
 8006306:	3304      	adds	r3, #4
 8006308:	4618      	mov	r0, r3
 800630a:	f7ff fb58 	bl	80059be <uxListRemove>
				--uxCurrentNumberOfTasks;
 800630e:	4b0d      	ldr	r3, [pc, #52]	@ (8006344 <prvCheckTasksWaitingTermination+0x54>)
 8006310:	681b      	ldr	r3, [r3, #0]
 8006312:	3b01      	subs	r3, #1
 8006314:	4a0b      	ldr	r2, [pc, #44]	@ (8006344 <prvCheckTasksWaitingTermination+0x54>)
 8006316:	6013      	str	r3, [r2, #0]
				--uxDeletedTasksWaitingCleanUp;
 8006318:	4b0b      	ldr	r3, [pc, #44]	@ (8006348 <prvCheckTasksWaitingTermination+0x58>)
 800631a:	681b      	ldr	r3, [r3, #0]
 800631c:	3b01      	subs	r3, #1
 800631e:	4a0a      	ldr	r2, [pc, #40]	@ (8006348 <prvCheckTasksWaitingTermination+0x58>)
 8006320:	6013      	str	r3, [r2, #0]
			}
			taskEXIT_CRITICAL();
 8006322:	f000 f9f3 	bl	800670c <vPortExitCritical>

			prvDeleteTCB( pxTCB );
 8006326:	6878      	ldr	r0, [r7, #4]
 8006328:	f000 f810 	bl	800634c <prvDeleteTCB>
		while( uxDeletedTasksWaitingCleanUp > ( UBaseType_t ) 0U )
 800632c:	4b06      	ldr	r3, [pc, #24]	@ (8006348 <prvCheckTasksWaitingTermination+0x58>)
 800632e:	681b      	ldr	r3, [r3, #0]
 8006330:	2b00      	cmp	r3, #0
 8006332:	d1e1      	bne.n	80062f8 <prvCheckTasksWaitingTermination+0x8>
		}
	}
	#endif /* INCLUDE_vTaskDelete */
}
 8006334:	bf00      	nop
 8006336:	bf00      	nop
 8006338:	3708      	adds	r7, #8
 800633a:	46bd      	mov	sp, r7
 800633c:	bd80      	pop	{r7, pc}
 800633e:	bf00      	nop
 8006340:	200005d8 	.word	0x200005d8
 8006344:	20000604 	.word	0x20000604
 8006348:	200005ec 	.word	0x200005ec

0800634c <prvDeleteTCB>:
/*-----------------------------------------------------------*/

#if ( INCLUDE_vTaskDelete == 1 )

	static void prvDeleteTCB( TCB_t *pxTCB )
	{
 800634c:	b580      	push	{r7, lr}
 800634e:	b084      	sub	sp, #16
 8006350:	af00      	add	r7, sp, #0
 8006352:	6078      	str	r0, [r7, #4]
		to the task to free any memory allocated at the application level.
		See the third party link http://www.nadler.com/embedded/newlibAndFreeRTOS.html
		for additional information. */
		#if ( configUSE_NEWLIB_REENTRANT == 1 )
		{
			_reclaim_reent( &( pxTCB->xNewLib_reent ) );
 8006354:	687b      	ldr	r3, [r7, #4]
 8006356:	334c      	adds	r3, #76	@ 0x4c
 8006358:	4618      	mov	r0, r3
 800635a:	f000 fc5d 	bl	8006c18 <_reclaim_reent>
		#elif( tskSTATIC_AND_DYNAMIC_ALLOCATION_POSSIBLE != 0 ) /*lint !e731 !e9029 Macro has been consolidated for readability reasons. */
		{
			/* The task could have been allocated statically or dynamically, so
			check what was statically allocated before trying to free the
			memory. */
			if( pxTCB->ucStaticallyAllocated == tskDYNAMICALLY_ALLOCATED_STACK_AND_TCB )
 800635e:	687b      	ldr	r3, [r7, #4]
 8006360:	f893 309d 	ldrb.w	r3, [r3, #157]	@ 0x9d
 8006364:	2b00      	cmp	r3, #0
 8006366:	d108      	bne.n	800637a <prvDeleteTCB+0x2e>
			{
				/* Both the stack and TCB were allocated dynamically, so both
				must be freed. */
				vPortFree( pxTCB->pxStack );
 8006368:	687b      	ldr	r3, [r7, #4]
 800636a:	6b1b      	ldr	r3, [r3, #48]	@ 0x30
 800636c:	4618      	mov	r0, r3
 800636e:	f000 fb2d 	bl	80069cc <vPortFree>
				vPortFree( pxTCB );
 8006372:	6878      	ldr	r0, [r7, #4]
 8006374:	f000 fb2a 	bl	80069cc <vPortFree>
				configASSERT( pxTCB->ucStaticallyAllocated == tskSTATICALLY_ALLOCATED_STACK_AND_TCB	);
				mtCOVERAGE_TEST_MARKER();
			}
		}
		#endif /* configSUPPORT_DYNAMIC_ALLOCATION */
	}
 8006378:	e019      	b.n	80063ae <prvDeleteTCB+0x62>
			else if( pxTCB->ucStaticallyAllocated == tskSTATICALLY_ALLOCATED_STACK_ONLY )
 800637a:	687b      	ldr	r3, [r7, #4]
 800637c:	f893 309d 	ldrb.w	r3, [r3, #157]	@ 0x9d
 8006380:	2b01      	cmp	r3, #1
 8006382:	d103      	bne.n	800638c <prvDeleteTCB+0x40>
				vPortFree( pxTCB );
 8006384:	6878      	ldr	r0, [r7, #4]
 8006386:	f000 fb21 	bl	80069cc <vPortFree>
	}
 800638a:	e010      	b.n	80063ae <prvDeleteTCB+0x62>
				configASSERT( pxTCB->ucStaticallyAllocated == tskSTATICALLY_ALLOCATED_STACK_AND_TCB	);
 800638c:	687b      	ldr	r3, [r7, #4]
 800638e:	f893 309d 	ldrb.w	r3, [r3, #157]	@ 0x9d
 8006392:	2b02      	cmp	r3, #2
 8006394:	d00b      	beq.n	80063ae <prvDeleteTCB+0x62>
	__asm volatile
 8006396:	f04f 0350 	mov.w	r3, #80	@ 0x50
 800639a:	f383 8811 	msr	BASEPRI, r3
 800639e:	f3bf 8f6f 	isb	sy
 80063a2:	f3bf 8f4f 	dsb	sy
 80063a6:	60fb      	str	r3, [r7, #12]
}
 80063a8:	bf00      	nop
 80063aa:	bf00      	nop
 80063ac:	e7fd      	b.n	80063aa <prvDeleteTCB+0x5e>
	}
 80063ae:	bf00      	nop
 80063b0:	3710      	adds	r7, #16
 80063b2:	46bd      	mov	sp, r7
 80063b4:	bd80      	pop	{r7, pc}
	...

080063b8 <prvResetNextTaskUnblockTime>:

#endif /* INCLUDE_vTaskDelete */
/*-----------------------------------------------------------*/

static void prvResetNextTaskUnblockTime( void )
{
 80063b8:	b480      	push	{r7}
 80063ba:	b083      	sub	sp, #12
 80063bc:	af00      	add	r7, sp, #0
TCB_t *pxTCB;

	if( listLIST_IS_EMPTY( pxDelayedTaskList ) != pdFALSE )
 80063be:	4b0c      	ldr	r3, [pc, #48]	@ (80063f0 <prvResetNextTaskUnblockTime+0x38>)
 80063c0:	681b      	ldr	r3, [r3, #0]
 80063c2:	681b      	ldr	r3, [r3, #0]
 80063c4:	2b00      	cmp	r3, #0
 80063c6:	d104      	bne.n	80063d2 <prvResetNextTaskUnblockTime+0x1a>
	{
		/* The new current delayed list is empty.  Set xNextTaskUnblockTime to
		the maximum possible value so it is	extremely unlikely that the
		if( xTickCount >= xNextTaskUnblockTime ) test will pass until
		there is an item in the delayed list. */
		xNextTaskUnblockTime = portMAX_DELAY;
 80063c8:	4b0a      	ldr	r3, [pc, #40]	@ (80063f4 <prvResetNextTaskUnblockTime+0x3c>)
 80063ca:	f04f 32ff 	mov.w	r2, #4294967295	@ 0xffffffff
 80063ce:	601a      	str	r2, [r3, #0]
		which the task at the head of the delayed list should be removed
		from the Blocked state. */
		( pxTCB ) = listGET_OWNER_OF_HEAD_ENTRY( pxDelayedTaskList ); /*lint !e9079 void * is used as this macro is used with timers and co-routines too.  Alignment is known to be fine as the type of the pointer stored and retrieved is the same. */
		xNextTaskUnblockTime = listGET_LIST_ITEM_VALUE( &( ( pxTCB )->xStateListItem ) );
	}
}
 80063d0:	e008      	b.n	80063e4 <prvResetNextTaskUnblockTime+0x2c>
		( pxTCB ) = listGET_OWNER_OF_HEAD_ENTRY( pxDelayedTaskList ); /*lint !e9079 void * is used as this macro is used with timers and co-routines too.  Alignment is known to be fine as the type of the pointer stored and retrieved is the same. */
 80063d2:	4b07      	ldr	r3, [pc, #28]	@ (80063f0 <prvResetNextTaskUnblockTime+0x38>)
 80063d4:	681b      	ldr	r3, [r3, #0]
 80063d6:	68db      	ldr	r3, [r3, #12]
 80063d8:	68db      	ldr	r3, [r3, #12]
 80063da:	607b      	str	r3, [r7, #4]
		xNextTaskUnblockTime = listGET_LIST_ITEM_VALUE( &( ( pxTCB )->xStateListItem ) );
 80063dc:	687b      	ldr	r3, [r7, #4]
 80063de:	685b      	ldr	r3, [r3, #4]
 80063e0:	4a04      	ldr	r2, [pc, #16]	@ (80063f4 <prvResetNextTaskUnblockTime+0x3c>)
 80063e2:	6013      	str	r3, [r2, #0]
}
 80063e4:	bf00      	nop
 80063e6:	370c      	adds	r7, #12
 80063e8:	46bd      	mov	sp, r7
 80063ea:	bc80      	pop	{r7}
 80063ec:	4770      	bx	lr
 80063ee:	bf00      	nop
 80063f0:	200005bc 	.word	0x200005bc
 80063f4:	20000624 	.word	0x20000624

080063f8 <prvAddCurrentTaskToDelayedList>:

#endif
/*-----------------------------------------------------------*/

static void prvAddCurrentTaskToDelayedList( TickType_t xTicksToWait, const BaseType_t xCanBlockIndefinitely )
{
 80063f8:	b580      	push	{r7, lr}
 80063fa:	b084      	sub	sp, #16
 80063fc:	af00      	add	r7, sp, #0
 80063fe:	6078      	str	r0, [r7, #4]
 8006400:	6039      	str	r1, [r7, #0]
TickType_t xTimeToWake;
const TickType_t xConstTickCount = xTickCount;
 8006402:	4b29      	ldr	r3, [pc, #164]	@ (80064a8 <prvAddCurrentTaskToDelayedList+0xb0>)
 8006404:	681b      	ldr	r3, [r3, #0]
 8006406:	60fb      	str	r3, [r7, #12]
	}
	#endif

	/* Remove the task from the ready list before adding it to the blocked list
	as the same list item is used for both lists. */
	if( uxListRemove( &( pxCurrentTCB->xStateListItem ) ) == ( UBaseType_t ) 0 )
 8006408:	4b28      	ldr	r3, [pc, #160]	@ (80064ac <prvAddCurrentTaskToDelayedList+0xb4>)
 800640a:	681b      	ldr	r3, [r3, #0]
 800640c:	3304      	adds	r3, #4
 800640e:	4618      	mov	r0, r3
 8006410:	f7ff fad5 	bl	80059be <uxListRemove>
 8006414:	4603      	mov	r3, r0
 8006416:	2b00      	cmp	r3, #0
 8006418:	d10b      	bne.n	8006432 <prvAddCurrentTaskToDelayedList+0x3a>
	{
		/* The current task must be in a ready list, so there is no need to
		check, and the port reset macro can be called directly. */
		portRESET_READY_PRIORITY( pxCurrentTCB->uxPriority, uxTopReadyPriority ); /*lint !e931 pxCurrentTCB cannot change as it is the calling task.  pxCurrentTCB->uxPriority and uxTopReadyPriority cannot change as called with scheduler suspended or in a critical section. */
 800641a:	4b24      	ldr	r3, [pc, #144]	@ (80064ac <prvAddCurrentTaskToDelayedList+0xb4>)
 800641c:	681b      	ldr	r3, [r3, #0]
 800641e:	6adb      	ldr	r3, [r3, #44]	@ 0x2c
 8006420:	2201      	movs	r2, #1
 8006422:	fa02 f303 	lsl.w	r3, r2, r3
 8006426:	43da      	mvns	r2, r3
 8006428:	4b21      	ldr	r3, [pc, #132]	@ (80064b0 <prvAddCurrentTaskToDelayedList+0xb8>)
 800642a:	681b      	ldr	r3, [r3, #0]
 800642c:	4013      	ands	r3, r2
 800642e:	4a20      	ldr	r2, [pc, #128]	@ (80064b0 <prvAddCurrentTaskToDelayedList+0xb8>)
 8006430:	6013      	str	r3, [r2, #0]
		mtCOVERAGE_TEST_MARKER();
	}

	#if ( INCLUDE_vTaskSuspend == 1 )
	{
		if( ( xTicksToWait == portMAX_DELAY ) && ( xCanBlockIndefinitely != pdFALSE ) )
 8006432:	687b      	ldr	r3, [r7, #4]
 8006434:	f1b3 3fff 	cmp.w	r3, #4294967295	@ 0xffffffff
 8006438:	d10a      	bne.n	8006450 <prvAddCurrentTaskToDelayedList+0x58>
 800643a:	683b      	ldr	r3, [r7, #0]
 800643c:	2b00      	cmp	r3, #0
 800643e:	d007      	beq.n	8006450 <prvAddCurrentTaskToDelayedList+0x58>
		{
			/* Add the task to the suspended task list instead of a delayed task
			list to ensure it is not woken by a timing event.  It will block
			indefinitely. */
			vListInsertEnd( &xSuspendedTaskList, &( pxCurrentTCB->xStateListItem ) );
 8006440:	4b1a      	ldr	r3, [pc, #104]	@ (80064ac <prvAddCurrentTaskToDelayedList+0xb4>)
 8006442:	681b      	ldr	r3, [r3, #0]
 8006444:	3304      	adds	r3, #4
 8006446:	4619      	mov	r1, r3
 8006448:	481a      	ldr	r0, [pc, #104]	@ (80064b4 <prvAddCurrentTaskToDelayedList+0xbc>)
 800644a:	f7ff fa5d 	bl	8005908 <vListInsertEnd>

		/* Avoid compiler warning when INCLUDE_vTaskSuspend is not 1. */
		( void ) xCanBlockIndefinitely;
	}
	#endif /* INCLUDE_vTaskSuspend */
}
 800644e:	e026      	b.n	800649e <prvAddCurrentTaskToDelayedList+0xa6>
			xTimeToWake = xConstTickCount + xTicksToWait;
 8006450:	68fa      	ldr	r2, [r7, #12]
 8006452:	687b      	ldr	r3, [r7, #4]
 8006454:	4413      	add	r3, r2
 8006456:	60bb      	str	r3, [r7, #8]
			listSET_LIST_ITEM_VALUE( &( pxCurrentTCB->xStateListItem ), xTimeToWake );
 8006458:	4b14      	ldr	r3, [pc, #80]	@ (80064ac <prvAddCurrentTaskToDelayedList+0xb4>)
 800645a:	681b      	ldr	r3, [r3, #0]
 800645c:	68ba      	ldr	r2, [r7, #8]
 800645e:	605a      	str	r2, [r3, #4]
			if( xTimeToWake < xConstTickCount )
 8006460:	68ba      	ldr	r2, [r7, #8]
 8006462:	68fb      	ldr	r3, [r7, #12]
 8006464:	429a      	cmp	r2, r3
 8006466:	d209      	bcs.n	800647c <prvAddCurrentTaskToDelayedList+0x84>
				vListInsert( pxOverflowDelayedTaskList, &( pxCurrentTCB->xStateListItem ) );
 8006468:	4b13      	ldr	r3, [pc, #76]	@ (80064b8 <prvAddCurrentTaskToDelayedList+0xc0>)
 800646a:	681a      	ldr	r2, [r3, #0]
 800646c:	4b0f      	ldr	r3, [pc, #60]	@ (80064ac <prvAddCurrentTaskToDelayedList+0xb4>)
 800646e:	681b      	ldr	r3, [r3, #0]
 8006470:	3304      	adds	r3, #4
 8006472:	4619      	mov	r1, r3
 8006474:	4610      	mov	r0, r2
 8006476:	f7ff fa6a 	bl	800594e <vListInsert>
}
 800647a:	e010      	b.n	800649e <prvAddCurrentTaskToDelayedList+0xa6>
				vListInsert( pxDelayedTaskList, &( pxCurrentTCB->xStateListItem ) );
 800647c:	4b0f      	ldr	r3, [pc, #60]	@ (80064bc <prvAddCurrentTaskToDelayedList+0xc4>)
 800647e:	681a      	ldr	r2, [r3, #0]
 8006480:	4b0a      	ldr	r3, [pc, #40]	@ (80064ac <prvAddCurrentTaskToDelayedList+0xb4>)
 8006482:	681b      	ldr	r3, [r3, #0]
 8006484:	3304      	adds	r3, #4
 8006486:	4619      	mov	r1, r3
 8006488:	4610      	mov	r0, r2
 800648a:	f7ff fa60 	bl	800594e <vListInsert>
				if( xTimeToWake < xNextTaskUnblockTime )
 800648e:	4b0c      	ldr	r3, [pc, #48]	@ (80064c0 <prvAddCurrentTaskToDelayedList+0xc8>)
 8006490:	681b      	ldr	r3, [r3, #0]
 8006492:	68ba      	ldr	r2, [r7, #8]
 8006494:	429a      	cmp	r2, r3
 8006496:	d202      	bcs.n	800649e <prvAddCurrentTaskToDelayedList+0xa6>
					xNextTaskUnblockTime = xTimeToWake;
 8006498:	4a09      	ldr	r2, [pc, #36]	@ (80064c0 <prvAddCurrentTaskToDelayedList+0xc8>)
 800649a:	68bb      	ldr	r3, [r7, #8]
 800649c:	6013      	str	r3, [r2, #0]
}
 800649e:	bf00      	nop
 80064a0:	3710      	adds	r7, #16
 80064a2:	46bd      	mov	sp, r7
 80064a4:	bd80      	pop	{r7, pc}
 80064a6:	bf00      	nop
 80064a8:	20000608 	.word	0x20000608
 80064ac:	20000504 	.word	0x20000504
 80064b0:	2000060c 	.word	0x2000060c
 80064b4:	200005f0 	.word	0x200005f0
 80064b8:	200005c0 	.word	0x200005c0
 80064bc:	200005bc 	.word	0x200005bc
 80064c0:	20000624 	.word	0x20000624

080064c4 <pxPortInitialiseStack>:

/*
 * See header file for description.
 */
StackType_t *pxPortInitialiseStack( StackType_t *pxTopOfStack, TaskFunction_t pxCode, void *pvParameters )
{
 80064c4:	b480      	push	{r7}
 80064c6:	b085      	sub	sp, #20
 80064c8:	af00      	add	r7, sp, #0
 80064ca:	60f8      	str	r0, [r7, #12]
 80064cc:	60b9      	str	r1, [r7, #8]
 80064ce:	607a      	str	r2, [r7, #4]
	/* Simulate the stack frame as it would be created by a context switch
	interrupt. */
	pxTopOfStack--; /* Offset added to account for the way the MCU uses the stack on entry/exit of interrupts. */
 80064d0:	68fb      	ldr	r3, [r7, #12]
 80064d2:	3b04      	subs	r3, #4
 80064d4:	60fb      	str	r3, [r7, #12]
	*pxTopOfStack = portINITIAL_XPSR;	/* xPSR */
 80064d6:	68fb      	ldr	r3, [r7, #12]
 80064d8:	f04f 7280 	mov.w	r2, #16777216	@ 0x1000000
 80064dc:	601a      	str	r2, [r3, #0]
	pxTopOfStack--;
 80064de:	68fb      	ldr	r3, [r7, #12]
 80064e0:	3b04      	subs	r3, #4
 80064e2:	60fb      	str	r3, [r7, #12]
	*pxTopOfStack = ( ( StackType_t ) pxCode ) & portSTART_ADDRESS_MASK;	/* PC */
 80064e4:	68bb      	ldr	r3, [r7, #8]
 80064e6:	f023 0201 	bic.w	r2, r3, #1
 80064ea:	68fb      	ldr	r3, [r7, #12]
 80064ec:	601a      	str	r2, [r3, #0]
	pxTopOfStack--;
 80064ee:	68fb      	ldr	r3, [r7, #12]
 80064f0:	3b04      	subs	r3, #4
 80064f2:	60fb      	str	r3, [r7, #12]
	*pxTopOfStack = ( StackType_t ) portTASK_RETURN_ADDRESS;	/* LR */
 80064f4:	4a08      	ldr	r2, [pc, #32]	@ (8006518 <pxPortInitialiseStack+0x54>)
 80064f6:	68fb      	ldr	r3, [r7, #12]
 80064f8:	601a      	str	r2, [r3, #0]
	pxTopOfStack -= 5;	/* R12, R3, R2 and R1. */
 80064fa:	68fb      	ldr	r3, [r7, #12]
 80064fc:	3b14      	subs	r3, #20
 80064fe:	60fb      	str	r3, [r7, #12]
	*pxTopOfStack = ( StackType_t ) pvParameters;	/* R0 */
 8006500:	687a      	ldr	r2, [r7, #4]
 8006502:	68fb      	ldr	r3, [r7, #12]
 8006504:	601a      	str	r2, [r3, #0]
	pxTopOfStack -= 8;	/* R11, R10, R9, R8, R7, R6, R5 and R4. */
 8006506:	68fb      	ldr	r3, [r7, #12]
 8006508:	3b20      	subs	r3, #32
 800650a:	60fb      	str	r3, [r7, #12]

	return pxTopOfStack;
 800650c:	68fb      	ldr	r3, [r7, #12]
}
 800650e:	4618      	mov	r0, r3
 8006510:	3714      	adds	r7, #20
 8006512:	46bd      	mov	sp, r7
 8006514:	bc80      	pop	{r7}
 8006516:	4770      	bx	lr
 8006518:	0800651d 	.word	0x0800651d

0800651c <prvTaskExitError>:
/*-----------------------------------------------------------*/

static void prvTaskExitError( void )
{
 800651c:	b480      	push	{r7}
 800651e:	b085      	sub	sp, #20
 8006520:	af00      	add	r7, sp, #0
volatile uint32_t ulDummy = 0UL;
 8006522:	2300      	movs	r3, #0
 8006524:	607b      	str	r3, [r7, #4]
	its caller as there is nothing to return to.  If a task wants to exit it
	should instead call vTaskDelete( NULL ).

	Artificially force an assert() to be triggered if configASSERT() is
	defined, then stop here so application writers can catch the error. */
	configASSERT( uxCriticalNesting == ~0UL );
 8006526:	4b12      	ldr	r3, [pc, #72]	@ (8006570 <prvTaskExitError+0x54>)
 8006528:	681b      	ldr	r3, [r3, #0]
 800652a:	f1b3 3fff 	cmp.w	r3, #4294967295	@ 0xffffffff
 800652e:	d00b      	beq.n	8006548 <prvTaskExitError+0x2c>
	__asm volatile
 8006530:	f04f 0350 	mov.w	r3, #80	@ 0x50
 8006534:	f383 8811 	msr	BASEPRI, r3
 8006538:	f3bf 8f6f 	isb	sy
 800653c:	f3bf 8f4f 	dsb	sy
 8006540:	60fb      	str	r3, [r7, #12]
}
 8006542:	bf00      	nop
 8006544:	bf00      	nop
 8006546:	e7fd      	b.n	8006544 <prvTaskExitError+0x28>
	__asm volatile
 8006548:	f04f 0350 	mov.w	r3, #80	@ 0x50
 800654c:	f383 8811 	msr	BASEPRI, r3
 8006550:	f3bf 8f6f 	isb	sy
 8006554:	f3bf 8f4f 	dsb	sy
 8006558:	60bb      	str	r3, [r7, #8]
}
 800655a:	bf00      	nop
	portDISABLE_INTERRUPTS();
	while( ulDummy == 0 )
 800655c:	bf00      	nop
 800655e:	687b      	ldr	r3, [r7, #4]
 8006560:	2b00      	cmp	r3, #0
 8006562:	d0fc      	beq.n	800655e <prvTaskExitError+0x42>
		about code appearing after this function is called - making ulDummy
		volatile makes the compiler think the function could return and
		therefore not output an 'unreachable code' warning for code that appears
		after it. */
	}
}
 8006564:	bf00      	nop
 8006566:	bf00      	nop
 8006568:	3714      	adds	r7, #20
 800656a:	46bd      	mov	sp, r7
 800656c:	bc80      	pop	{r7}
 800656e:	4770      	bx	lr
 8006570:	20000014 	.word	0x20000014
	...

08006580 <SVC_Handler>:
/*-----------------------------------------------------------*/

void vPortSVCHandler( void )
{
	__asm volatile (
 8006580:	4b07      	ldr	r3, [pc, #28]	@ (80065a0 <pxCurrentTCBConst2>)
 8006582:	6819      	ldr	r1, [r3, #0]
 8006584:	6808      	ldr	r0, [r1, #0]
 8006586:	e8b0 0ff0 	ldmia.w	r0!, {r4, r5, r6, r7, r8, r9, sl, fp}
 800658a:	f380 8809 	msr	PSP, r0
 800658e:	f3bf 8f6f 	isb	sy
 8006592:	f04f 0000 	mov.w	r0, #0
 8006596:	f380 8811 	msr	BASEPRI, r0
 800659a:	f04e 0e0d 	orr.w	lr, lr, #13
 800659e:	4770      	bx	lr

080065a0 <pxCurrentTCBConst2>:
 80065a0:	20000504 	.word	0x20000504
					"	bx r14							\n"
					"									\n"
					"	.align 4						\n"
					"pxCurrentTCBConst2: .word pxCurrentTCB				\n"
				);
}
 80065a4:	bf00      	nop
 80065a6:	bf00      	nop

080065a8 <prvPortStartFirstTask>:
/*-----------------------------------------------------------*/

static void prvPortStartFirstTask( void )
{
	__asm volatile(
 80065a8:	4806      	ldr	r0, [pc, #24]	@ (80065c4 <prvPortStartFirstTask+0x1c>)
 80065aa:	6800      	ldr	r0, [r0, #0]
 80065ac:	6800      	ldr	r0, [r0, #0]
 80065ae:	f380 8808 	msr	MSP, r0
 80065b2:	b662      	cpsie	i
 80065b4:	b661      	cpsie	f
 80065b6:	f3bf 8f4f 	dsb	sy
 80065ba:	f3bf 8f6f 	isb	sy
 80065be:	df00      	svc	0
 80065c0:	bf00      	nop
					" dsb					\n"
					" isb					\n"
					" svc 0					\n" /* System call to start first task. */
					" nop					\n"
				);
}
 80065c2:	bf00      	nop
 80065c4:	e000ed08 	.word	0xe000ed08

080065c8 <xPortStartScheduler>:

/*
 * See header file for description.
 */
BaseType_t xPortStartScheduler( void )
{
 80065c8:	b580      	push	{r7, lr}
 80065ca:	b084      	sub	sp, #16
 80065cc:	af00      	add	r7, sp, #0
	configASSERT( configMAX_SYSCALL_INTERRUPT_PRIORITY );

	#if( configASSERT_DEFINED == 1 )
	{
		volatile uint32_t ulOriginalPriority;
		volatile uint8_t * const pucFirstUserPriorityRegister = ( volatile uint8_t * const ) ( portNVIC_IP_REGISTERS_OFFSET_16 + portFIRST_USER_INTERRUPT_NUMBER );
 80065ce:	4b32      	ldr	r3, [pc, #200]	@ (8006698 <xPortStartScheduler+0xd0>)
 80065d0:	60fb      	str	r3, [r7, #12]
		functions can be called.  ISR safe functions are those that end in
		"FromISR".  FreeRTOS maintains separate thread and ISR API functions to
		ensure interrupt entry is as fast and simple as possible.

		Save the interrupt priority value that is about to be clobbered. */
		ulOriginalPriority = *pucFirstUserPriorityRegister;
 80065d2:	68fb      	ldr	r3, [r7, #12]
 80065d4:	781b      	ldrb	r3, [r3, #0]
 80065d6:	b2db      	uxtb	r3, r3
 80065d8:	607b      	str	r3, [r7, #4]

		/* Determine the number of priority bits available.  First write to all
		possible bits. */
		*pucFirstUserPriorityRegister = portMAX_8_BIT_VALUE;
 80065da:	68fb      	ldr	r3, [r7, #12]
 80065dc:	22ff      	movs	r2, #255	@ 0xff
 80065de:	701a      	strb	r2, [r3, #0]

		/* Read the value back to see how many bits stuck. */
		ucMaxPriorityValue = *pucFirstUserPriorityRegister;
 80065e0:	68fb      	ldr	r3, [r7, #12]
 80065e2:	781b      	ldrb	r3, [r3, #0]
 80065e4:	b2db      	uxtb	r3, r3
 80065e6:	70fb      	strb	r3, [r7, #3]

		/* Use the same mask on the maximum system call priority. */
		ucMaxSysCallPriority = configMAX_SYSCALL_INTERRUPT_PRIORITY & ucMaxPriorityValue;
 80065e8:	78fb      	ldrb	r3, [r7, #3]
 80065ea:	b2db      	uxtb	r3, r3
 80065ec:	f003 0350 	and.w	r3, r3, #80	@ 0x50
 80065f0:	b2da      	uxtb	r2, r3
 80065f2:	4b2a      	ldr	r3, [pc, #168]	@ (800669c <xPortStartScheduler+0xd4>)
 80065f4:	701a      	strb	r2, [r3, #0]

		/* Calculate the maximum acceptable priority group value for the number
		of bits read back. */
		ulMaxPRIGROUPValue = portMAX_PRIGROUP_BITS;
 80065f6:	4b2a      	ldr	r3, [pc, #168]	@ (80066a0 <xPortStartScheduler+0xd8>)
 80065f8:	2207      	movs	r2, #7
 80065fa:	601a      	str	r2, [r3, #0]
		while( ( ucMaxPriorityValue & portTOP_BIT_OF_BYTE ) == portTOP_BIT_OF_BYTE )
 80065fc:	e009      	b.n	8006612 <xPortStartScheduler+0x4a>
		{
			ulMaxPRIGROUPValue--;
 80065fe:	4b28      	ldr	r3, [pc, #160]	@ (80066a0 <xPortStartScheduler+0xd8>)
 8006600:	681b      	ldr	r3, [r3, #0]
 8006602:	3b01      	subs	r3, #1
 8006604:	4a26      	ldr	r2, [pc, #152]	@ (80066a0 <xPortStartScheduler+0xd8>)
 8006606:	6013      	str	r3, [r2, #0]
			ucMaxPriorityValue <<= ( uint8_t ) 0x01;
 8006608:	78fb      	ldrb	r3, [r7, #3]
 800660a:	b2db      	uxtb	r3, r3
 800660c:	005b      	lsls	r3, r3, #1
 800660e:	b2db      	uxtb	r3, r3
 8006610:	70fb      	strb	r3, [r7, #3]
		while( ( ucMaxPriorityValue & portTOP_BIT_OF_BYTE ) == portTOP_BIT_OF_BYTE )
 8006612:	78fb      	ldrb	r3, [r7, #3]
 8006614:	b2db      	uxtb	r3, r3
 8006616:	f003 0380 	and.w	r3, r3, #128	@ 0x80
 800661a:	2b80      	cmp	r3, #128	@ 0x80
 800661c:	d0ef      	beq.n	80065fe <xPortStartScheduler+0x36>
		#ifdef configPRIO_BITS
		{
			/* Check the FreeRTOS configuration that defines the number of
			priority bits matches the number of priority bits actually queried
			from the hardware. */
			configASSERT( ( portMAX_PRIGROUP_BITS - ulMaxPRIGROUPValue ) == configPRIO_BITS );
 800661e:	4b20      	ldr	r3, [pc, #128]	@ (80066a0 <xPortStartScheduler+0xd8>)
 8006620:	681b      	ldr	r3, [r3, #0]
 8006622:	f1c3 0307 	rsb	r3, r3, #7
 8006626:	2b04      	cmp	r3, #4
 8006628:	d00b      	beq.n	8006642 <xPortStartScheduler+0x7a>
	__asm volatile
 800662a:	f04f 0350 	mov.w	r3, #80	@ 0x50
 800662e:	f383 8811 	msr	BASEPRI, r3
 8006632:	f3bf 8f6f 	isb	sy
 8006636:	f3bf 8f4f 	dsb	sy
 800663a:	60bb      	str	r3, [r7, #8]
}
 800663c:	bf00      	nop
 800663e:	bf00      	nop
 8006640:	e7fd      	b.n	800663e <xPortStartScheduler+0x76>
		}
		#endif

		/* Shift the priority group value back to its position within the AIRCR
		register. */
		ulMaxPRIGROUPValue <<= portPRIGROUP_SHIFT;
 8006642:	4b17      	ldr	r3, [pc, #92]	@ (80066a0 <xPortStartScheduler+0xd8>)
 8006644:	681b      	ldr	r3, [r3, #0]
 8006646:	021b      	lsls	r3, r3, #8
 8006648:	4a15      	ldr	r2, [pc, #84]	@ (80066a0 <xPortStartScheduler+0xd8>)
 800664a:	6013      	str	r3, [r2, #0]
		ulMaxPRIGROUPValue &= portPRIORITY_GROUP_MASK;
 800664c:	4b14      	ldr	r3, [pc, #80]	@ (80066a0 <xPortStartScheduler+0xd8>)
 800664e:	681b      	ldr	r3, [r3, #0]
 8006650:	f403 63e0 	and.w	r3, r3, #1792	@ 0x700
 8006654:	4a12      	ldr	r2, [pc, #72]	@ (80066a0 <xPortStartScheduler+0xd8>)
 8006656:	6013      	str	r3, [r2, #0]

		/* Restore the clobbered interrupt priority register to its original
		value. */
		*pucFirstUserPriorityRegister = ulOriginalPriority;
 8006658:	687b      	ldr	r3, [r7, #4]
 800665a:	b2da      	uxtb	r2, r3
 800665c:	68fb      	ldr	r3, [r7, #12]
 800665e:	701a      	strb	r2, [r3, #0]
	}
	#endif /* conifgASSERT_DEFINED */

	/* Make PendSV and SysTick the lowest priority interrupts. */
	portNVIC_SYSPRI2_REG |= portNVIC_PENDSV_PRI;
 8006660:	4b10      	ldr	r3, [pc, #64]	@ (80066a4 <xPortStartScheduler+0xdc>)
 8006662:	681b      	ldr	r3, [r3, #0]
 8006664:	4a0f      	ldr	r2, [pc, #60]	@ (80066a4 <xPortStartScheduler+0xdc>)
 8006666:	f443 0370 	orr.w	r3, r3, #15728640	@ 0xf00000
 800666a:	6013      	str	r3, [r2, #0]
	portNVIC_SYSPRI2_REG |= portNVIC_SYSTICK_PRI;
 800666c:	4b0d      	ldr	r3, [pc, #52]	@ (80066a4 <xPortStartScheduler+0xdc>)
 800666e:	681b      	ldr	r3, [r3, #0]
 8006670:	4a0c      	ldr	r2, [pc, #48]	@ (80066a4 <xPortStartScheduler+0xdc>)
 8006672:	f043 4370 	orr.w	r3, r3, #4026531840	@ 0xf0000000
 8006676:	6013      	str	r3, [r2, #0]

	/* Start the timer that generates the tick ISR.  Interrupts are disabled
	here already. */
	vPortSetupTimerInterrupt();
 8006678:	f000 f8b8 	bl	80067ec <vPortSetupTimerInterrupt>

	/* Initialise the critical nesting count ready for the first task. */
	uxCriticalNesting = 0;
 800667c:	4b0a      	ldr	r3, [pc, #40]	@ (80066a8 <xPortStartScheduler+0xe0>)
 800667e:	2200      	movs	r2, #0
 8006680:	601a      	str	r2, [r3, #0]

	/* Start the first task. */
	prvPortStartFirstTask();
 8006682:	f7ff ff91 	bl	80065a8 <prvPortStartFirstTask>
	exit error function to prevent compiler warnings about a static function
	not being called in the case that the application writer overrides this
	functionality by defining configTASK_RETURN_ADDRESS.  Call
	vTaskSwitchContext() so link time optimisation does not remove the
	symbol. */
	vTaskSwitchContext();
 8006686:	f7ff fd79 	bl	800617c <vTaskSwitchContext>
	prvTaskExitError();
 800668a:	f7ff ff47 	bl	800651c <prvTaskExitError>

	/* Should not get here! */
	return 0;
 800668e:	2300      	movs	r3, #0
}
 8006690:	4618      	mov	r0, r3
 8006692:	3710      	adds	r7, #16
 8006694:	46bd      	mov	sp, r7
 8006696:	bd80      	pop	{r7, pc}
 8006698:	e000e400 	.word	0xe000e400
 800669c:	20000630 	.word	0x20000630
 80066a0:	20000634 	.word	0x20000634
 80066a4:	e000ed20 	.word	0xe000ed20
 80066a8:	20000014 	.word	0x20000014

080066ac <vPortEnterCritical>:
	configASSERT( uxCriticalNesting == 1000UL );
}
/*-----------------------------------------------------------*/

void vPortEnterCritical( void )
{
 80066ac:	b480      	push	{r7}
 80066ae:	b083      	sub	sp, #12
 80066b0:	af00      	add	r7, sp, #0
	__asm volatile
 80066b2:	f04f 0350 	mov.w	r3, #80	@ 0x50
 80066b6:	f383 8811 	msr	BASEPRI, r3
 80066ba:	f3bf 8f6f 	isb	sy
 80066be:	f3bf 8f4f 	dsb	sy
 80066c2:	607b      	str	r3, [r7, #4]
}
 80066c4:	bf00      	nop
	portDISABLE_INTERRUPTS();
	uxCriticalNesting++;
 80066c6:	4b0f      	ldr	r3, [pc, #60]	@ (8006704 <vPortEnterCritical+0x58>)
 80066c8:	681b      	ldr	r3, [r3, #0]
 80066ca:	3301      	adds	r3, #1
 80066cc:	4a0d      	ldr	r2, [pc, #52]	@ (8006704 <vPortEnterCritical+0x58>)
 80066ce:	6013      	str	r3, [r2, #0]
	/* This is not the interrupt safe version of the enter critical function so
	assert() if it is being called from an interrupt context.  Only API
	functions that end in "FromISR" can be used in an interrupt.  Only assert if
	the critical nesting count is 1 to protect against recursive calls if the
	assert function also uses a critical section. */
	if( uxCriticalNesting == 1 )
 80066d0:	4b0c      	ldr	r3, [pc, #48]	@ (8006704 <vPortEnterCritical+0x58>)
 80066d2:	681b      	ldr	r3, [r3, #0]
 80066d4:	2b01      	cmp	r3, #1
 80066d6:	d110      	bne.n	80066fa <vPortEnterCritical+0x4e>
	{
		configASSERT( ( portNVIC_INT_CTRL_REG & portVECTACTIVE_MASK ) == 0 );
 80066d8:	4b0b      	ldr	r3, [pc, #44]	@ (8006708 <vPortEnterCritical+0x5c>)
 80066da:	681b      	ldr	r3, [r3, #0]
 80066dc:	b2db      	uxtb	r3, r3
 80066de:	2b00      	cmp	r3, #0
 80066e0:	d00b      	beq.n	80066fa <vPortEnterCritical+0x4e>
	__asm volatile
 80066e2:	f04f 0350 	mov.w	r3, #80	@ 0x50
 80066e6:	f383 8811 	msr	BASEPRI, r3
 80066ea:	f3bf 8f6f 	isb	sy
 80066ee:	f3bf 8f4f 	dsb	sy
 80066f2:	603b      	str	r3, [r7, #0]
}
 80066f4:	bf00      	nop
 80066f6:	bf00      	nop
 80066f8:	e7fd      	b.n	80066f6 <vPortEnterCritical+0x4a>
	}
}
 80066fa:	bf00      	nop
 80066fc:	370c      	adds	r7, #12
 80066fe:	46bd      	mov	sp, r7
 8006700:	bc80      	pop	{r7}
 8006702:	4770      	bx	lr
 8006704:	20000014 	.word	0x20000014
 8006708:	e000ed04 	.word	0xe000ed04

0800670c <vPortExitCritical>:
/*-----------------------------------------------------------*/

void vPortExitCritical( void )
{
 800670c:	b480      	push	{r7}
 800670e:	b083      	sub	sp, #12
 8006710:	af00      	add	r7, sp, #0
	configASSERT( uxCriticalNesting );
 8006712:	4b12      	ldr	r3, [pc, #72]	@ (800675c <vPortExitCritical+0x50>)
 8006714:	681b      	ldr	r3, [r3, #0]
 8006716:	2b00      	cmp	r3, #0
 8006718:	d10b      	bne.n	8006732 <vPortExitCritical+0x26>
	__asm volatile
 800671a:	f04f 0350 	mov.w	r3, #80	@ 0x50
 800671e:	f383 8811 	msr	BASEPRI, r3
 8006722:	f3bf 8f6f 	isb	sy
 8006726:	f3bf 8f4f 	dsb	sy
 800672a:	607b      	str	r3, [r7, #4]
}
 800672c:	bf00      	nop
 800672e:	bf00      	nop
 8006730:	e7fd      	b.n	800672e <vPortExitCritical+0x22>
	uxCriticalNesting--;
 8006732:	4b0a      	ldr	r3, [pc, #40]	@ (800675c <vPortExitCritical+0x50>)
 8006734:	681b      	ldr	r3, [r3, #0]
 8006736:	3b01      	subs	r3, #1
 8006738:	4a08      	ldr	r2, [pc, #32]	@ (800675c <vPortExitCritical+0x50>)
 800673a:	6013      	str	r3, [r2, #0]
	if( uxCriticalNesting == 0 )
 800673c:	4b07      	ldr	r3, [pc, #28]	@ (800675c <vPortExitCritical+0x50>)
 800673e:	681b      	ldr	r3, [r3, #0]
 8006740:	2b00      	cmp	r3, #0
 8006742:	d105      	bne.n	8006750 <vPortExitCritical+0x44>
 8006744:	2300      	movs	r3, #0
 8006746:	603b      	str	r3, [r7, #0]
}
/*-----------------------------------------------------------*/

portFORCE_INLINE static void vPortSetBASEPRI( uint32_t ulNewMaskValue )
{
	__asm volatile
 8006748:	683b      	ldr	r3, [r7, #0]
 800674a:	f383 8811 	msr	BASEPRI, r3
	(
		"	msr basepri, %0	" :: "r" ( ulNewMaskValue ) : "memory"
	);
}
 800674e:	bf00      	nop
	{
		portENABLE_INTERRUPTS();
	}
}
 8006750:	bf00      	nop
 8006752:	370c      	adds	r7, #12
 8006754:	46bd      	mov	sp, r7
 8006756:	bc80      	pop	{r7}
 8006758:	4770      	bx	lr
 800675a:	bf00      	nop
 800675c:	20000014 	.word	0x20000014

08006760 <PendSV_Handler>:

void xPortPendSVHandler( void )
{
	/* This is a naked function. */

	__asm volatile
 8006760:	f3ef 8009 	mrs	r0, PSP
 8006764:	f3bf 8f6f 	isb	sy
 8006768:	4b0d      	ldr	r3, [pc, #52]	@ (80067a0 <pxCurrentTCBConst>)
 800676a:	681a      	ldr	r2, [r3, #0]
 800676c:	e920 0ff0 	stmdb	r0!, {r4, r5, r6, r7, r8, r9, sl, fp}
 8006770:	6010      	str	r0, [r2, #0]
 8006772:	e92d 4008 	stmdb	sp!, {r3, lr}
 8006776:	f04f 0050 	mov.w	r0, #80	@ 0x50
 800677a:	f380 8811 	msr	BASEPRI, r0
 800677e:	f7ff fcfd 	bl	800617c <vTaskSwitchContext>
 8006782:	f04f 0000 	mov.w	r0, #0
 8006786:	f380 8811 	msr	BASEPRI, r0
 800678a:	e8bd 4008 	ldmia.w	sp!, {r3, lr}
 800678e:	6819      	ldr	r1, [r3, #0]
 8006790:	6808      	ldr	r0, [r1, #0]
 8006792:	e8b0 0ff0 	ldmia.w	r0!, {r4, r5, r6, r7, r8, r9, sl, fp}
 8006796:	f380 8809 	msr	PSP, r0
 800679a:	f3bf 8f6f 	isb	sy
 800679e:	4770      	bx	lr

080067a0 <pxCurrentTCBConst>:
 80067a0:	20000504 	.word	0x20000504
	"										\n"
	"	.align 4							\n"
	"pxCurrentTCBConst: .word pxCurrentTCB	\n"
	::"i"(configMAX_SYSCALL_INTERRUPT_PRIORITY)
	);
}
 80067a4:	bf00      	nop
 80067a6:	bf00      	nop

080067a8 <SysTick_Handler>:
/*-----------------------------------------------------------*/

void xPortSysTickHandler( void )
{
 80067a8:	b580      	push	{r7, lr}
 80067aa:	b082      	sub	sp, #8
 80067ac:	af00      	add	r7, sp, #0
	__asm volatile
 80067ae:	f04f 0350 	mov.w	r3, #80	@ 0x50
 80067b2:	f383 8811 	msr	BASEPRI, r3
 80067b6:	f3bf 8f6f 	isb	sy
 80067ba:	f3bf 8f4f 	dsb	sy
 80067be:	607b      	str	r3, [r7, #4]
}
 80067c0:	bf00      	nop
	save and then restore the interrupt mask value as its value is already
	known. */
	portDISABLE_INTERRUPTS();
	{
		/* Increment the RTOS tick. */
		if( xTaskIncrementTick() != pdFALSE )
 80067c2:	f7ff fc21 	bl	8006008 <xTaskIncrementTick>
 80067c6:	4603      	mov	r3, r0
 80067c8:	2b00      	cmp	r3, #0
 80067ca:	d003      	beq.n	80067d4 <SysTick_Handler+0x2c>
		{
			/* A context switch is required.  Context switching is performed in
			the PendSV interrupt.  Pend the PendSV interrupt. */
			portNVIC_INT_CTRL_REG = portNVIC_PENDSVSET_BIT;
 80067cc:	4b06      	ldr	r3, [pc, #24]	@ (80067e8 <SysTick_Handler+0x40>)
 80067ce:	f04f 5280 	mov.w	r2, #268435456	@ 0x10000000
 80067d2:	601a      	str	r2, [r3, #0]
 80067d4:	2300      	movs	r3, #0
 80067d6:	603b      	str	r3, [r7, #0]
	__asm volatile
 80067d8:	683b      	ldr	r3, [r7, #0]
 80067da:	f383 8811 	msr	BASEPRI, r3
}
 80067de:	bf00      	nop
		}
	}
	portENABLE_INTERRUPTS();
}
 80067e0:	bf00      	nop
 80067e2:	3708      	adds	r7, #8
 80067e4:	46bd      	mov	sp, r7
 80067e6:	bd80      	pop	{r7, pc}
 80067e8:	e000ed04 	.word	0xe000ed04

080067ec <vPortSetupTimerInterrupt>:
/*
 * Setup the systick timer to generate the tick interrupts at the required
 * frequency.
 */
__attribute__(( weak )) void vPortSetupTimerInterrupt( void )
{
 80067ec:	b480      	push	{r7}
 80067ee:	af00      	add	r7, sp, #0
		ulStoppedTimerCompensation = portMISSED_COUNTS_FACTOR / ( configCPU_CLOCK_HZ / configSYSTICK_CLOCK_HZ );
	}
	#endif /* configUSE_TICKLESS_IDLE */

	/* Stop and clear the SysTick. */
	portNVIC_SYSTICK_CTRL_REG = 0UL;
 80067f0:	4b0a      	ldr	r3, [pc, #40]	@ (800681c <vPortSetupTimerInterrupt+0x30>)
 80067f2:	2200      	movs	r2, #0
 80067f4:	601a      	str	r2, [r3, #0]
	portNVIC_SYSTICK_CURRENT_VALUE_REG = 0UL;
 80067f6:	4b0a      	ldr	r3, [pc, #40]	@ (8006820 <vPortSetupTimerInterrupt+0x34>)
 80067f8:	2200      	movs	r2, #0
 80067fa:	601a      	str	r2, [r3, #0]

	/* Configure SysTick to interrupt at the requested rate. */
	portNVIC_SYSTICK_LOAD_REG = ( configSYSTICK_CLOCK_HZ / configTICK_RATE_HZ ) - 1UL;
 80067fc:	4b09      	ldr	r3, [pc, #36]	@ (8006824 <vPortSetupTimerInterrupt+0x38>)
 80067fe:	681b      	ldr	r3, [r3, #0]
 8006800:	4a09      	ldr	r2, [pc, #36]	@ (8006828 <vPortSetupTimerInterrupt+0x3c>)
 8006802:	fba2 2303 	umull	r2, r3, r2, r3
 8006806:	099b      	lsrs	r3, r3, #6
 8006808:	4a08      	ldr	r2, [pc, #32]	@ (800682c <vPortSetupTimerInterrupt+0x40>)
 800680a:	3b01      	subs	r3, #1
 800680c:	6013      	str	r3, [r2, #0]
	portNVIC_SYSTICK_CTRL_REG = ( portNVIC_SYSTICK_CLK_BIT | portNVIC_SYSTICK_INT_BIT | portNVIC_SYSTICK_ENABLE_BIT );
 800680e:	4b03      	ldr	r3, [pc, #12]	@ (800681c <vPortSetupTimerInterrupt+0x30>)
 8006810:	2207      	movs	r2, #7
 8006812:	601a      	str	r2, [r3, #0]
}
 8006814:	bf00      	nop
 8006816:	46bd      	mov	sp, r7
 8006818:	bc80      	pop	{r7}
 800681a:	4770      	bx	lr
 800681c:	e000e010 	.word	0xe000e010
 8006820:	e000e018 	.word	0xe000e018
 8006824:	20000008 	.word	0x20000008
 8006828:	10624dd3 	.word	0x10624dd3
 800682c:	e000e014 	.word	0xe000e014

08006830 <pvPortMalloc>:
static size_t xBlockAllocatedBit = 0;

/*-----------------------------------------------------------*/

void *pvPortMalloc( size_t xWantedSize )
{
 8006830:	b580      	push	{r7, lr}
 8006832:	b08a      	sub	sp, #40	@ 0x28
 8006834:	af00      	add	r7, sp, #0
 8006836:	6078      	str	r0, [r7, #4]
BlockLink_t *pxBlock, *pxPreviousBlock, *pxNewBlockLink;
void *pvReturn = NULL;
 8006838:	2300      	movs	r3, #0
 800683a:	61fb      	str	r3, [r7, #28]

	vTaskSuspendAll();
 800683c:	f7ff fb38 	bl	8005eb0 <vTaskSuspendAll>
	{
		/* If this is the first call to malloc then the heap will require
		initialisation to setup the list of free blocks. */
		if( pxEnd == NULL )
 8006840:	4b5c      	ldr	r3, [pc, #368]	@ (80069b4 <pvPortMalloc+0x184>)
 8006842:	681b      	ldr	r3, [r3, #0]
 8006844:	2b00      	cmp	r3, #0
 8006846:	d101      	bne.n	800684c <pvPortMalloc+0x1c>
		{
			prvHeapInit();
 8006848:	f000 f924 	bl	8006a94 <prvHeapInit>

		/* Check the requested block size is not so large that the top bit is
		set.  The top bit of the block size member of the BlockLink_t structure
		is used to determine who owns the block - the application or the
		kernel, so it must be free. */
		if( ( xWantedSize & xBlockAllocatedBit ) == 0 )
 800684c:	4b5a      	ldr	r3, [pc, #360]	@ (80069b8 <pvPortMalloc+0x188>)
 800684e:	681a      	ldr	r2, [r3, #0]
 8006850:	687b      	ldr	r3, [r7, #4]
 8006852:	4013      	ands	r3, r2
 8006854:	2b00      	cmp	r3, #0
 8006856:	f040 8095 	bne.w	8006984 <pvPortMalloc+0x154>
		{
			/* The wanted size is increased so it can contain a BlockLink_t
			structure in addition to the requested amount of bytes. */
			if( xWantedSize > 0 )
 800685a:	687b      	ldr	r3, [r7, #4]
 800685c:	2b00      	cmp	r3, #0
 800685e:	d01e      	beq.n	800689e <pvPortMalloc+0x6e>
			{
				xWantedSize += xHeapStructSize;
 8006860:	2208      	movs	r2, #8
 8006862:	687b      	ldr	r3, [r7, #4]
 8006864:	4413      	add	r3, r2
 8006866:	607b      	str	r3, [r7, #4]

				/* Ensure that blocks are always aligned to the required number
				of bytes. */
				if( ( xWantedSize & portBYTE_ALIGNMENT_MASK ) != 0x00 )
 8006868:	687b      	ldr	r3, [r7, #4]
 800686a:	f003 0307 	and.w	r3, r3, #7
 800686e:	2b00      	cmp	r3, #0
 8006870:	d015      	beq.n	800689e <pvPortMalloc+0x6e>
				{
					/* Byte alignment required. */
					xWantedSize += ( portBYTE_ALIGNMENT - ( xWantedSize & portBYTE_ALIGNMENT_MASK ) );
 8006872:	687b      	ldr	r3, [r7, #4]
 8006874:	f023 0307 	bic.w	r3, r3, #7
 8006878:	3308      	adds	r3, #8
 800687a:	607b      	str	r3, [r7, #4]
					configASSERT( ( xWantedSize & portBYTE_ALIGNMENT_MASK ) == 0 );
 800687c:	687b      	ldr	r3, [r7, #4]
 800687e:	f003 0307 	and.w	r3, r3, #7
 8006882:	2b00      	cmp	r3, #0
 8006884:	d00b      	beq.n	800689e <pvPortMalloc+0x6e>
	__asm volatile
 8006886:	f04f 0350 	mov.w	r3, #80	@ 0x50
 800688a:	f383 8811 	msr	BASEPRI, r3
 800688e:	f3bf 8f6f 	isb	sy
 8006892:	f3bf 8f4f 	dsb	sy
 8006896:	617b      	str	r3, [r7, #20]
}
 8006898:	bf00      	nop
 800689a:	bf00      	nop
 800689c:	e7fd      	b.n	800689a <pvPortMalloc+0x6a>
			else
			{
				mtCOVERAGE_TEST_MARKER();
			}

			if( ( xWantedSize > 0 ) && ( xWantedSize <= xFreeBytesRemaining ) )
 800689e:	687b      	ldr	r3, [r7, #4]
 80068a0:	2b00      	cmp	r3, #0
 80068a2:	d06f      	beq.n	8006984 <pvPortMalloc+0x154>
 80068a4:	4b45      	ldr	r3, [pc, #276]	@ (80069bc <pvPortMalloc+0x18c>)
 80068a6:	681b      	ldr	r3, [r3, #0]
 80068a8:	687a      	ldr	r2, [r7, #4]
 80068aa:	429a      	cmp	r2, r3
 80068ac:	d86a      	bhi.n	8006984 <pvPortMalloc+0x154>
			{
				/* Traverse the list from the start	(lowest address) block until
				one	of adequate size is found. */
				pxPreviousBlock = &xStart;
 80068ae:	4b44      	ldr	r3, [pc, #272]	@ (80069c0 <pvPortMalloc+0x190>)
 80068b0:	623b      	str	r3, [r7, #32]
				pxBlock = xStart.pxNextFreeBlock;
 80068b2:	4b43      	ldr	r3, [pc, #268]	@ (80069c0 <pvPortMalloc+0x190>)
 80068b4:	681b      	ldr	r3, [r3, #0]
 80068b6:	627b      	str	r3, [r7, #36]	@ 0x24
				while( ( pxBlock->xBlockSize < xWantedSize ) && ( pxBlock->pxNextFreeBlock != NULL ) )
 80068b8:	e004      	b.n	80068c4 <pvPortMalloc+0x94>
				{
					pxPreviousBlock = pxBlock;
 80068ba:	6a7b      	ldr	r3, [r7, #36]	@ 0x24
 80068bc:	623b      	str	r3, [r7, #32]
					pxBlock = pxBlock->pxNextFreeBlock;
 80068be:	6a7b      	ldr	r3, [r7, #36]	@ 0x24
 80068c0:	681b      	ldr	r3, [r3, #0]
 80068c2:	627b      	str	r3, [r7, #36]	@ 0x24
				while( ( pxBlock->xBlockSize < xWantedSize ) && ( pxBlock->pxNextFreeBlock != NULL ) )
 80068c4:	6a7b      	ldr	r3, [r7, #36]	@ 0x24
 80068c6:	685b      	ldr	r3, [r3, #4]
 80068c8:	687a      	ldr	r2, [r7, #4]
 80068ca:	429a      	cmp	r2, r3
 80068cc:	d903      	bls.n	80068d6 <pvPortMalloc+0xa6>
 80068ce:	6a7b      	ldr	r3, [r7, #36]	@ 0x24
 80068d0:	681b      	ldr	r3, [r3, #0]
 80068d2:	2b00      	cmp	r3, #0
 80068d4:	d1f1      	bne.n	80068ba <pvPortMalloc+0x8a>
				}

				/* If the end marker was reached then a block of adequate size
				was	not found. */
				if( pxBlock != pxEnd )
 80068d6:	4b37      	ldr	r3, [pc, #220]	@ (80069b4 <pvPortMalloc+0x184>)
 80068d8:	681b      	ldr	r3, [r3, #0]
 80068da:	6a7a      	ldr	r2, [r7, #36]	@ 0x24
 80068dc:	429a      	cmp	r2, r3
 80068de:	d051      	beq.n	8006984 <pvPortMalloc+0x154>
				{
					/* Return the memory space pointed to - jumping over the
					BlockLink_t structure at its start. */
					pvReturn = ( void * ) ( ( ( uint8_t * ) pxPreviousBlock->pxNextFreeBlock ) + xHeapStructSize );
 80068e0:	6a3b      	ldr	r3, [r7, #32]
 80068e2:	681b      	ldr	r3, [r3, #0]
 80068e4:	2208      	movs	r2, #8
 80068e6:	4413      	add	r3, r2
 80068e8:	61fb      	str	r3, [r7, #28]

					/* This block is being returned for use so must be taken out
					of the list of free blocks. */
					pxPreviousBlock->pxNextFreeBlock = pxBlock->pxNextFreeBlock;
 80068ea:	6a7b      	ldr	r3, [r7, #36]	@ 0x24
 80068ec:	681a      	ldr	r2, [r3, #0]
 80068ee:	6a3b      	ldr	r3, [r7, #32]
 80068f0:	601a      	str	r2, [r3, #0]

					/* If the block is larger than required it can be split into
					two. */
					if( ( pxBlock->xBlockSize - xWantedSize ) > heapMINIMUM_BLOCK_SIZE )
 80068f2:	6a7b      	ldr	r3, [r7, #36]	@ 0x24
 80068f4:	685a      	ldr	r2, [r3, #4]
 80068f6:	687b      	ldr	r3, [r7, #4]
 80068f8:	1ad2      	subs	r2, r2, r3
 80068fa:	2308      	movs	r3, #8
 80068fc:	005b      	lsls	r3, r3, #1
 80068fe:	429a      	cmp	r2, r3
 8006900:	d920      	bls.n	8006944 <pvPortMalloc+0x114>
					{
						/* This block is to be split into two.  Create a new
						block following the number of bytes requested. The void
						cast is used to prevent byte alignment warnings from the
						compiler. */
						pxNewBlockLink = ( void * ) ( ( ( uint8_t * ) pxBlock ) + xWantedSize );
 8006902:	6a7a      	ldr	r2, [r7, #36]	@ 0x24
 8006904:	687b      	ldr	r3, [r7, #4]
 8006906:	4413      	add	r3, r2
 8006908:	61bb      	str	r3, [r7, #24]
						configASSERT( ( ( ( size_t ) pxNewBlockLink ) & portBYTE_ALIGNMENT_MASK ) == 0 );
 800690a:	69bb      	ldr	r3, [r7, #24]
 800690c:	f003 0307 	and.w	r3, r3, #7
 8006910:	2b00      	cmp	r3, #0
 8006912:	d00b      	beq.n	800692c <pvPortMalloc+0xfc>
	__asm volatile
 8006914:	f04f 0350 	mov.w	r3, #80	@ 0x50
 8006918:	f383 8811 	msr	BASEPRI, r3
 800691c:	f3bf 8f6f 	isb	sy
 8006920:	f3bf 8f4f 	dsb	sy
 8006924:	613b      	str	r3, [r7, #16]
}
 8006926:	bf00      	nop
 8006928:	bf00      	nop
 800692a:	e7fd      	b.n	8006928 <pvPortMalloc+0xf8>

						/* Calculate the sizes of two blocks split from the
						single block. */
						pxNewBlockLink->xBlockSize = pxBlock->xBlockSize - xWantedSize;
 800692c:	6a7b      	ldr	r3, [r7, #36]	@ 0x24
 800692e:	685a      	ldr	r2, [r3, #4]
 8006930:	687b      	ldr	r3, [r7, #4]
 8006932:	1ad2      	subs	r2, r2, r3
 8006934:	69bb      	ldr	r3, [r7, #24]
 8006936:	605a      	str	r2, [r3, #4]
						pxBlock->xBlockSize = xWantedSize;
 8006938:	6a7b      	ldr	r3, [r7, #36]	@ 0x24
 800693a:	687a      	ldr	r2, [r7, #4]
 800693c:	605a      	str	r2, [r3, #4]

						/* Insert the new block into the list of free blocks. */
						prvInsertBlockIntoFreeList( pxNewBlockLink );
 800693e:	69b8      	ldr	r0, [r7, #24]
 8006940:	f000 f90a 	bl	8006b58 <prvInsertBlockIntoFreeList>
					else
					{
						mtCOVERAGE_TEST_MARKER();
					}

					xFreeBytesRemaining -= pxBlock->xBlockSize;
 8006944:	4b1d      	ldr	r3, [pc, #116]	@ (80069bc <pvPortMalloc+0x18c>)
 8006946:	681a      	ldr	r2, [r3, #0]
 8006948:	6a7b      	ldr	r3, [r7, #36]	@ 0x24
 800694a:	685b      	ldr	r3, [r3, #4]
 800694c:	1ad3      	subs	r3, r2, r3
 800694e:	4a1b      	ldr	r2, [pc, #108]	@ (80069bc <pvPortMalloc+0x18c>)
 8006950:	6013      	str	r3, [r2, #0]

					if( xFreeBytesRemaining < xMinimumEverFreeBytesRemaining )
 8006952:	4b1a      	ldr	r3, [pc, #104]	@ (80069bc <pvPortMalloc+0x18c>)
 8006954:	681a      	ldr	r2, [r3, #0]
 8006956:	4b1b      	ldr	r3, [pc, #108]	@ (80069c4 <pvPortMalloc+0x194>)
 8006958:	681b      	ldr	r3, [r3, #0]
 800695a:	429a      	cmp	r2, r3
 800695c:	d203      	bcs.n	8006966 <pvPortMalloc+0x136>
					{
						xMinimumEverFreeBytesRemaining = xFreeBytesRemaining;
 800695e:	4b17      	ldr	r3, [pc, #92]	@ (80069bc <pvPortMalloc+0x18c>)
 8006960:	681b      	ldr	r3, [r3, #0]
 8006962:	4a18      	ldr	r2, [pc, #96]	@ (80069c4 <pvPortMalloc+0x194>)
 8006964:	6013      	str	r3, [r2, #0]
						mtCOVERAGE_TEST_MARKER();
					}

					/* The block is being returned - it is allocated and owned
					by the application and has no "next" block. */
					pxBlock->xBlockSize |= xBlockAllocatedBit;
 8006966:	6a7b      	ldr	r3, [r7, #36]	@ 0x24
 8006968:	685a      	ldr	r2, [r3, #4]
 800696a:	4b13      	ldr	r3, [pc, #76]	@ (80069b8 <pvPortMalloc+0x188>)
 800696c:	681b      	ldr	r3, [r3, #0]
 800696e:	431a      	orrs	r2, r3
 8006970:	6a7b      	ldr	r3, [r7, #36]	@ 0x24
 8006972:	605a      	str	r2, [r3, #4]
					pxBlock->pxNextFreeBlock = NULL;
 8006974:	6a7b      	ldr	r3, [r7, #36]	@ 0x24
 8006976:	2200      	movs	r2, #0
 8006978:	601a      	str	r2, [r3, #0]
					xNumberOfSuccessfulAllocations++;
 800697a:	4b13      	ldr	r3, [pc, #76]	@ (80069c8 <pvPortMalloc+0x198>)
 800697c:	681b      	ldr	r3, [r3, #0]
 800697e:	3301      	adds	r3, #1
 8006980:	4a11      	ldr	r2, [pc, #68]	@ (80069c8 <pvPortMalloc+0x198>)
 8006982:	6013      	str	r3, [r2, #0]
			mtCOVERAGE_TEST_MARKER();
		}

		traceMALLOC( pvReturn, xWantedSize );
	}
	( void ) xTaskResumeAll();
 8006984:	f7ff faa2 	bl	8005ecc <xTaskResumeAll>
			mtCOVERAGE_TEST_MARKER();
		}
	}
	#endif

	configASSERT( ( ( ( size_t ) pvReturn ) & ( size_t ) portBYTE_ALIGNMENT_MASK ) == 0 );
 8006988:	69fb      	ldr	r3, [r7, #28]
 800698a:	f003 0307 	and.w	r3, r3, #7
 800698e:	2b00      	cmp	r3, #0
 8006990:	d00b      	beq.n	80069aa <pvPortMalloc+0x17a>
	__asm volatile
 8006992:	f04f 0350 	mov.w	r3, #80	@ 0x50
 8006996:	f383 8811 	msr	BASEPRI, r3
 800699a:	f3bf 8f6f 	isb	sy
 800699e:	f3bf 8f4f 	dsb	sy
 80069a2:	60fb      	str	r3, [r7, #12]
}
 80069a4:	bf00      	nop
 80069a6:	bf00      	nop
 80069a8:	e7fd      	b.n	80069a6 <pvPortMalloc+0x176>
	return pvReturn;
 80069aa:	69fb      	ldr	r3, [r7, #28]
}
 80069ac:	4618      	mov	r0, r3
 80069ae:	3728      	adds	r7, #40	@ 0x28
 80069b0:	46bd      	mov	sp, r7
 80069b2:	bd80      	pop	{r7, pc}
 80069b4:	20001240 	.word	0x20001240
 80069b8:	20001254 	.word	0x20001254
 80069bc:	20001244 	.word	0x20001244
 80069c0:	20001238 	.word	0x20001238
 80069c4:	20001248 	.word	0x20001248
 80069c8:	2000124c 	.word	0x2000124c

080069cc <vPortFree>:
/*-----------------------------------------------------------*/

void vPortFree( void *pv )
{
 80069cc:	b580      	push	{r7, lr}
 80069ce:	b086      	sub	sp, #24
 80069d0:	af00      	add	r7, sp, #0
 80069d2:	6078      	str	r0, [r7, #4]
uint8_t *puc = ( uint8_t * ) pv;
 80069d4:	687b      	ldr	r3, [r7, #4]
 80069d6:	617b      	str	r3, [r7, #20]
BlockLink_t *pxLink;

	if( pv != NULL )
 80069d8:	687b      	ldr	r3, [r7, #4]
 80069da:	2b00      	cmp	r3, #0
 80069dc:	d04f      	beq.n	8006a7e <vPortFree+0xb2>
	{
		/* The memory being freed will have an BlockLink_t structure immediately
		before it. */
		puc -= xHeapStructSize;
 80069de:	2308      	movs	r3, #8
 80069e0:	425b      	negs	r3, r3
 80069e2:	697a      	ldr	r2, [r7, #20]
 80069e4:	4413      	add	r3, r2
 80069e6:	617b      	str	r3, [r7, #20]

		/* This casting is to keep the compiler from issuing warnings. */
		pxLink = ( void * ) puc;
 80069e8:	697b      	ldr	r3, [r7, #20]
 80069ea:	613b      	str	r3, [r7, #16]

		/* Check the block is actually allocated. */
		configASSERT( ( pxLink->xBlockSize & xBlockAllocatedBit ) != 0 );
 80069ec:	693b      	ldr	r3, [r7, #16]
 80069ee:	685a      	ldr	r2, [r3, #4]
 80069f0:	4b25      	ldr	r3, [pc, #148]	@ (8006a88 <vPortFree+0xbc>)
 80069f2:	681b      	ldr	r3, [r3, #0]
 80069f4:	4013      	ands	r3, r2
 80069f6:	2b00      	cmp	r3, #0
 80069f8:	d10b      	bne.n	8006a12 <vPortFree+0x46>
	__asm volatile
 80069fa:	f04f 0350 	mov.w	r3, #80	@ 0x50
 80069fe:	f383 8811 	msr	BASEPRI, r3
 8006a02:	f3bf 8f6f 	isb	sy
 8006a06:	f3bf 8f4f 	dsb	sy
 8006a0a:	60fb      	str	r3, [r7, #12]
}
 8006a0c:	bf00      	nop
 8006a0e:	bf00      	nop
 8006a10:	e7fd      	b.n	8006a0e <vPortFree+0x42>
		configASSERT( pxLink->pxNextFreeBlock == NULL );
 8006a12:	693b      	ldr	r3, [r7, #16]
 8006a14:	681b      	ldr	r3, [r3, #0]
 8006a16:	2b00      	cmp	r3, #0
 8006a18:	d00b      	beq.n	8006a32 <vPortFree+0x66>
	__asm volatile
 8006a1a:	f04f 0350 	mov.w	r3, #80	@ 0x50
 8006a1e:	f383 8811 	msr	BASEPRI, r3
 8006a22:	f3bf 8f6f 	isb	sy
 8006a26:	f3bf 8f4f 	dsb	sy
 8006a2a:	60bb      	str	r3, [r7, #8]
}
 8006a2c:	bf00      	nop
 8006a2e:	bf00      	nop
 8006a30:	e7fd      	b.n	8006a2e <vPortFree+0x62>

		if( ( pxLink->xBlockSize & xBlockAllocatedBit ) != 0 )
 8006a32:	693b      	ldr	r3, [r7, #16]
 8006a34:	685a      	ldr	r2, [r3, #4]
 8006a36:	4b14      	ldr	r3, [pc, #80]	@ (8006a88 <vPortFree+0xbc>)
 8006a38:	681b      	ldr	r3, [r3, #0]
 8006a3a:	4013      	ands	r3, r2
 8006a3c:	2b00      	cmp	r3, #0
 8006a3e:	d01e      	beq.n	8006a7e <vPortFree+0xb2>
		{
			if( pxLink->pxNextFreeBlock == NULL )
 8006a40:	693b      	ldr	r3, [r7, #16]
 8006a42:	681b      	ldr	r3, [r3, #0]
 8006a44:	2b00      	cmp	r3, #0
 8006a46:	d11a      	bne.n	8006a7e <vPortFree+0xb2>
			{
				/* The block is being returned to the heap - it is no longer
				allocated. */
				pxLink->xBlockSize &= ~xBlockAllocatedBit;
 8006a48:	693b      	ldr	r3, [r7, #16]
 8006a4a:	685a      	ldr	r2, [r3, #4]
 8006a4c:	4b0e      	ldr	r3, [pc, #56]	@ (8006a88 <vPortFree+0xbc>)
 8006a4e:	681b      	ldr	r3, [r3, #0]
 8006a50:	43db      	mvns	r3, r3
 8006a52:	401a      	ands	r2, r3
 8006a54:	693b      	ldr	r3, [r7, #16]
 8006a56:	605a      	str	r2, [r3, #4]

				vTaskSuspendAll();
 8006a58:	f7ff fa2a 	bl	8005eb0 <vTaskSuspendAll>
				{
					/* Add this block to the list of free blocks. */
					xFreeBytesRemaining += pxLink->xBlockSize;
 8006a5c:	693b      	ldr	r3, [r7, #16]
 8006a5e:	685a      	ldr	r2, [r3, #4]
 8006a60:	4b0a      	ldr	r3, [pc, #40]	@ (8006a8c <vPortFree+0xc0>)
 8006a62:	681b      	ldr	r3, [r3, #0]
 8006a64:	4413      	add	r3, r2
 8006a66:	4a09      	ldr	r2, [pc, #36]	@ (8006a8c <vPortFree+0xc0>)
 8006a68:	6013      	str	r3, [r2, #0]
					traceFREE( pv, pxLink->xBlockSize );
					prvInsertBlockIntoFreeList( ( ( BlockLink_t * ) pxLink ) );
 8006a6a:	6938      	ldr	r0, [r7, #16]
 8006a6c:	f000 f874 	bl	8006b58 <prvInsertBlockIntoFreeList>
					xNumberOfSuccessfulFrees++;
 8006a70:	4b07      	ldr	r3, [pc, #28]	@ (8006a90 <vPortFree+0xc4>)
 8006a72:	681b      	ldr	r3, [r3, #0]
 8006a74:	3301      	adds	r3, #1
 8006a76:	4a06      	ldr	r2, [pc, #24]	@ (8006a90 <vPortFree+0xc4>)
 8006a78:	6013      	str	r3, [r2, #0]
				}
				( void ) xTaskResumeAll();
 8006a7a:	f7ff fa27 	bl	8005ecc <xTaskResumeAll>
		else
		{
			mtCOVERAGE_TEST_MARKER();
		}
	}
}
 8006a7e:	bf00      	nop
 8006a80:	3718      	adds	r7, #24
 8006a82:	46bd      	mov	sp, r7
 8006a84:	bd80      	pop	{r7, pc}
 8006a86:	bf00      	nop
 8006a88:	20001254 	.word	0x20001254
 8006a8c:	20001244 	.word	0x20001244
 8006a90:	20001250 	.word	0x20001250

08006a94 <prvHeapInit>:
	/* This just exists to keep the linker quiet. */
}
/*-----------------------------------------------------------*/

static void prvHeapInit( void )
{
 8006a94:	b480      	push	{r7}
 8006a96:	b085      	sub	sp, #20
 8006a98:	af00      	add	r7, sp, #0
BlockLink_t *pxFirstFreeBlock;
uint8_t *pucAlignedHeap;
size_t uxAddress;
size_t xTotalHeapSize = configTOTAL_HEAP_SIZE;
 8006a9a:	f44f 6340 	mov.w	r3, #3072	@ 0xc00
 8006a9e:	60bb      	str	r3, [r7, #8]

	/* Ensure the heap starts on a correctly aligned boundary. */
	uxAddress = ( size_t ) ucHeap;
 8006aa0:	4b27      	ldr	r3, [pc, #156]	@ (8006b40 <prvHeapInit+0xac>)
 8006aa2:	60fb      	str	r3, [r7, #12]

	if( ( uxAddress & portBYTE_ALIGNMENT_MASK ) != 0 )
 8006aa4:	68fb      	ldr	r3, [r7, #12]
 8006aa6:	f003 0307 	and.w	r3, r3, #7
 8006aaa:	2b00      	cmp	r3, #0
 8006aac:	d00c      	beq.n	8006ac8 <prvHeapInit+0x34>
	{
		uxAddress += ( portBYTE_ALIGNMENT - 1 );
 8006aae:	68fb      	ldr	r3, [r7, #12]
 8006ab0:	3307      	adds	r3, #7
 8006ab2:	60fb      	str	r3, [r7, #12]
		uxAddress &= ~( ( size_t ) portBYTE_ALIGNMENT_MASK );
 8006ab4:	68fb      	ldr	r3, [r7, #12]
 8006ab6:	f023 0307 	bic.w	r3, r3, #7
 8006aba:	60fb      	str	r3, [r7, #12]
		xTotalHeapSize -= uxAddress - ( size_t ) ucHeap;
 8006abc:	68ba      	ldr	r2, [r7, #8]
 8006abe:	68fb      	ldr	r3, [r7, #12]
 8006ac0:	1ad3      	subs	r3, r2, r3
 8006ac2:	4a1f      	ldr	r2, [pc, #124]	@ (8006b40 <prvHeapInit+0xac>)
 8006ac4:	4413      	add	r3, r2
 8006ac6:	60bb      	str	r3, [r7, #8]
	}

	pucAlignedHeap = ( uint8_t * ) uxAddress;
 8006ac8:	68fb      	ldr	r3, [r7, #12]
 8006aca:	607b      	str	r3, [r7, #4]

	/* xStart is used to hold a pointer to the first item in the list of free
	blocks.  The void cast is used to prevent compiler warnings. */
	xStart.pxNextFreeBlock = ( void * ) pucAlignedHeap;
 8006acc:	4a1d      	ldr	r2, [pc, #116]	@ (8006b44 <prvHeapInit+0xb0>)
 8006ace:	687b      	ldr	r3, [r7, #4]
 8006ad0:	6013      	str	r3, [r2, #0]
	xStart.xBlockSize = ( size_t ) 0;
 8006ad2:	4b1c      	ldr	r3, [pc, #112]	@ (8006b44 <prvHeapInit+0xb0>)
 8006ad4:	2200      	movs	r2, #0
 8006ad6:	605a      	str	r2, [r3, #4]

	/* pxEnd is used to mark the end of the list of free blocks and is inserted
	at the end of the heap space. */
	uxAddress = ( ( size_t ) pucAlignedHeap ) + xTotalHeapSize;
 8006ad8:	687b      	ldr	r3, [r7, #4]
 8006ada:	68ba      	ldr	r2, [r7, #8]
 8006adc:	4413      	add	r3, r2
 8006ade:	60fb      	str	r3, [r7, #12]
	uxAddress -= xHeapStructSize;
 8006ae0:	2208      	movs	r2, #8
 8006ae2:	68fb      	ldr	r3, [r7, #12]
 8006ae4:	1a9b      	subs	r3, r3, r2
 8006ae6:	60fb      	str	r3, [r7, #12]
	uxAddress &= ~( ( size_t ) portBYTE_ALIGNMENT_MASK );
 8006ae8:	68fb      	ldr	r3, [r7, #12]
 8006aea:	f023 0307 	bic.w	r3, r3, #7
 8006aee:	60fb      	str	r3, [r7, #12]
	pxEnd = ( void * ) uxAddress;
 8006af0:	68fb      	ldr	r3, [r7, #12]
 8006af2:	4a15      	ldr	r2, [pc, #84]	@ (8006b48 <prvHeapInit+0xb4>)
 8006af4:	6013      	str	r3, [r2, #0]
	pxEnd->xBlockSize = 0;
 8006af6:	4b14      	ldr	r3, [pc, #80]	@ (8006b48 <prvHeapInit+0xb4>)
 8006af8:	681b      	ldr	r3, [r3, #0]
 8006afa:	2200      	movs	r2, #0
 8006afc:	605a      	str	r2, [r3, #4]
	pxEnd->pxNextFreeBlock = NULL;
 8006afe:	4b12      	ldr	r3, [pc, #72]	@ (8006b48 <prvHeapInit+0xb4>)
 8006b00:	681b      	ldr	r3, [r3, #0]
 8006b02:	2200      	movs	r2, #0
 8006b04:	601a      	str	r2, [r3, #0]

	/* To start with there is a single free block that is sized to take up the
	entire heap space, minus the space taken by pxEnd. */
	pxFirstFreeBlock = ( void * ) pucAlignedHeap;
 8006b06:	687b      	ldr	r3, [r7, #4]
 8006b08:	603b      	str	r3, [r7, #0]
	pxFirstFreeBlock->xBlockSize = uxAddress - ( size_t ) pxFirstFreeBlock;
 8006b0a:	683b      	ldr	r3, [r7, #0]
 8006b0c:	68fa      	ldr	r2, [r7, #12]
 8006b0e:	1ad2      	subs	r2, r2, r3
 8006b10:	683b      	ldr	r3, [r7, #0]
 8006b12:	605a      	str	r2, [r3, #4]
	pxFirstFreeBlock->pxNextFreeBlock = pxEnd;
 8006b14:	4b0c      	ldr	r3, [pc, #48]	@ (8006b48 <prvHeapInit+0xb4>)
 8006b16:	681a      	ldr	r2, [r3, #0]
 8006b18:	683b      	ldr	r3, [r7, #0]
 8006b1a:	601a      	str	r2, [r3, #0]

	/* Only one block exists - and it covers the entire usable heap space. */
	xMinimumEverFreeBytesRemaining = pxFirstFreeBlock->xBlockSize;
 8006b1c:	683b      	ldr	r3, [r7, #0]
 8006b1e:	685b      	ldr	r3, [r3, #4]
 8006b20:	4a0a      	ldr	r2, [pc, #40]	@ (8006b4c <prvHeapInit+0xb8>)
 8006b22:	6013      	str	r3, [r2, #0]
	xFreeBytesRemaining = pxFirstFreeBlock->xBlockSize;
 8006b24:	683b      	ldr	r3, [r7, #0]
 8006b26:	685b      	ldr	r3, [r3, #4]
 8006b28:	4a09      	ldr	r2, [pc, #36]	@ (8006b50 <prvHeapInit+0xbc>)
 8006b2a:	6013      	str	r3, [r2, #0]

	/* Work out the position of the top bit in a size_t variable. */
	xBlockAllocatedBit = ( ( size_t ) 1 ) << ( ( sizeof( size_t ) * heapBITS_PER_BYTE ) - 1 );
 8006b2c:	4b09      	ldr	r3, [pc, #36]	@ (8006b54 <prvHeapInit+0xc0>)
 8006b2e:	f04f 4200 	mov.w	r2, #2147483648	@ 0x80000000
 8006b32:	601a      	str	r2, [r3, #0]
}
 8006b34:	bf00      	nop
 8006b36:	3714      	adds	r7, #20
 8006b38:	46bd      	mov	sp, r7
 8006b3a:	bc80      	pop	{r7}
 8006b3c:	4770      	bx	lr
 8006b3e:	bf00      	nop
 8006b40:	20000638 	.word	0x20000638
 8006b44:	20001238 	.word	0x20001238
 8006b48:	20001240 	.word	0x20001240
 8006b4c:	20001248 	.word	0x20001248
 8006b50:	20001244 	.word	0x20001244
 8006b54:	20001254 	.word	0x20001254

08006b58 <prvInsertBlockIntoFreeList>:
/*-----------------------------------------------------------*/

static void prvInsertBlockIntoFreeList( BlockLink_t *pxBlockToInsert )
{
 8006b58:	b480      	push	{r7}
 8006b5a:	b085      	sub	sp, #20
 8006b5c:	af00      	add	r7, sp, #0
 8006b5e:	6078      	str	r0, [r7, #4]
BlockLink_t *pxIterator;
uint8_t *puc;

	/* Iterate through the list until a block is found that has a higher address
	than the block being inserted. */
	for( pxIterator = &xStart; pxIterator->pxNextFreeBlock < pxBlockToInsert; pxIterator = pxIterator->pxNextFreeBlock )
 8006b60:	4b27      	ldr	r3, [pc, #156]	@ (8006c00 <prvInsertBlockIntoFreeList+0xa8>)
 8006b62:	60fb      	str	r3, [r7, #12]
 8006b64:	e002      	b.n	8006b6c <prvInsertBlockIntoFreeList+0x14>
 8006b66:	68fb      	ldr	r3, [r7, #12]
 8006b68:	681b      	ldr	r3, [r3, #0]
 8006b6a:	60fb      	str	r3, [r7, #12]
 8006b6c:	68fb      	ldr	r3, [r7, #12]
 8006b6e:	681b      	ldr	r3, [r3, #0]
 8006b70:	687a      	ldr	r2, [r7, #4]
 8006b72:	429a      	cmp	r2, r3
 8006b74:	d8f7      	bhi.n	8006b66 <prvInsertBlockIntoFreeList+0xe>
		/* Nothing to do here, just iterate to the right position. */
	}

	/* Do the block being inserted, and the block it is being inserted after
	make a contiguous block of memory? */
	puc = ( uint8_t * ) pxIterator;
 8006b76:	68fb      	ldr	r3, [r7, #12]
 8006b78:	60bb      	str	r3, [r7, #8]
	if( ( puc + pxIterator->xBlockSize ) == ( uint8_t * ) pxBlockToInsert )
 8006b7a:	68fb      	ldr	r3, [r7, #12]
 8006b7c:	685b      	ldr	r3, [r3, #4]
 8006b7e:	68ba      	ldr	r2, [r7, #8]
 8006b80:	4413      	add	r3, r2
 8006b82:	687a      	ldr	r2, [r7, #4]
 8006b84:	429a      	cmp	r2, r3
 8006b86:	d108      	bne.n	8006b9a <prvInsertBlockIntoFreeList+0x42>
	{
		pxIterator->xBlockSize += pxBlockToInsert->xBlockSize;
 8006b88:	68fb      	ldr	r3, [r7, #12]
 8006b8a:	685a      	ldr	r2, [r3, #4]
 8006b8c:	687b      	ldr	r3, [r7, #4]
 8006b8e:	685b      	ldr	r3, [r3, #4]
 8006b90:	441a      	add	r2, r3
 8006b92:	68fb      	ldr	r3, [r7, #12]
 8006b94:	605a      	str	r2, [r3, #4]
		pxBlockToInsert = pxIterator;
 8006b96:	68fb      	ldr	r3, [r7, #12]
 8006b98:	607b      	str	r3, [r7, #4]
		mtCOVERAGE_TEST_MARKER();
	}

	/* Do the block being inserted, and the block it is being inserted before
	make a contiguous block of memory? */
	puc = ( uint8_t * ) pxBlockToInsert;
 8006b9a:	687b      	ldr	r3, [r7, #4]
 8006b9c:	60bb      	str	r3, [r7, #8]
	if( ( puc + pxBlockToInsert->xBlockSize ) == ( uint8_t * ) pxIterator->pxNextFreeBlock )
 8006b9e:	687b      	ldr	r3, [r7, #4]
 8006ba0:	685b      	ldr	r3, [r3, #4]
 8006ba2:	68ba      	ldr	r2, [r7, #8]
 8006ba4:	441a      	add	r2, r3
 8006ba6:	68fb      	ldr	r3, [r7, #12]
 8006ba8:	681b      	ldr	r3, [r3, #0]
 8006baa:	429a      	cmp	r2, r3
 8006bac:	d118      	bne.n	8006be0 <prvInsertBlockIntoFreeList+0x88>
	{
		if( pxIterator->pxNextFreeBlock != pxEnd )
 8006bae:	68fb      	ldr	r3, [r7, #12]
 8006bb0:	681a      	ldr	r2, [r3, #0]
 8006bb2:	4b14      	ldr	r3, [pc, #80]	@ (8006c04 <prvInsertBlockIntoFreeList+0xac>)
 8006bb4:	681b      	ldr	r3, [r3, #0]
 8006bb6:	429a      	cmp	r2, r3
 8006bb8:	d00d      	beq.n	8006bd6 <prvInsertBlockIntoFreeList+0x7e>
		{
			/* Form one big block from the two blocks. */
			pxBlockToInsert->xBlockSize += pxIterator->pxNextFreeBlock->xBlockSize;
 8006bba:	687b      	ldr	r3, [r7, #4]
 8006bbc:	685a      	ldr	r2, [r3, #4]
 8006bbe:	68fb      	ldr	r3, [r7, #12]
 8006bc0:	681b      	ldr	r3, [r3, #0]
 8006bc2:	685b      	ldr	r3, [r3, #4]
 8006bc4:	441a      	add	r2, r3
 8006bc6:	687b      	ldr	r3, [r7, #4]
 8006bc8:	605a      	str	r2, [r3, #4]
			pxBlockToInsert->pxNextFreeBlock = pxIterator->pxNextFreeBlock->pxNextFreeBlock;
 8006bca:	68fb      	ldr	r3, [r7, #12]
 8006bcc:	681b      	ldr	r3, [r3, #0]
 8006bce:	681a      	ldr	r2, [r3, #0]
 8006bd0:	687b      	ldr	r3, [r7, #4]
 8006bd2:	601a      	str	r2, [r3, #0]
 8006bd4:	e008      	b.n	8006be8 <prvInsertBlockIntoFreeList+0x90>
		}
		else
		{
			pxBlockToInsert->pxNextFreeBlock = pxEnd;
 8006bd6:	4b0b      	ldr	r3, [pc, #44]	@ (8006c04 <prvInsertBlockIntoFreeList+0xac>)
 8006bd8:	681a      	ldr	r2, [r3, #0]
 8006bda:	687b      	ldr	r3, [r7, #4]
 8006bdc:	601a      	str	r2, [r3, #0]
 8006bde:	e003      	b.n	8006be8 <prvInsertBlockIntoFreeList+0x90>
		}
	}
	else
	{
		pxBlockToInsert->pxNextFreeBlock = pxIterator->pxNextFreeBlock;
 8006be0:	68fb      	ldr	r3, [r7, #12]
 8006be2:	681a      	ldr	r2, [r3, #0]
 8006be4:	687b      	ldr	r3, [r7, #4]
 8006be6:	601a      	str	r2, [r3, #0]

	/* If the block being inserted plugged a gab, so was merged with the block
	before and the block after, then it's pxNextFreeBlock pointer will have
	already been set, and should not be set here as that would make it point
	to itself. */
	if( pxIterator != pxBlockToInsert )
 8006be8:	68fa      	ldr	r2, [r7, #12]
 8006bea:	687b      	ldr	r3, [r7, #4]
 8006bec:	429a      	cmp	r2, r3
 8006bee:	d002      	beq.n	8006bf6 <prvInsertBlockIntoFreeList+0x9e>
	{
		pxIterator->pxNextFreeBlock = pxBlockToInsert;
 8006bf0:	68fb      	ldr	r3, [r7, #12]
 8006bf2:	687a      	ldr	r2, [r7, #4]
 8006bf4:	601a      	str	r2, [r3, #0]
	}
	else
	{
		mtCOVERAGE_TEST_MARKER();
	}
}
 8006bf6:	bf00      	nop
 8006bf8:	3714      	adds	r7, #20
 8006bfa:	46bd      	mov	sp, r7
 8006bfc:	bc80      	pop	{r7}
 8006bfe:	4770      	bx	lr
 8006c00:	20001238 	.word	0x20001238
 8006c04:	20001240 	.word	0x20001240

08006c08 <memset>:
 8006c08:	4603      	mov	r3, r0
 8006c0a:	4402      	add	r2, r0
 8006c0c:	4293      	cmp	r3, r2
 8006c0e:	d100      	bne.n	8006c12 <memset+0xa>
 8006c10:	4770      	bx	lr
 8006c12:	f803 1b01 	strb.w	r1, [r3], #1
 8006c16:	e7f9      	b.n	8006c0c <memset+0x4>

08006c18 <_reclaim_reent>:
 8006c18:	4b29      	ldr	r3, [pc, #164]	@ (8006cc0 <_reclaim_reent+0xa8>)
 8006c1a:	b570      	push	{r4, r5, r6, lr}
 8006c1c:	681b      	ldr	r3, [r3, #0]
 8006c1e:	4604      	mov	r4, r0
 8006c20:	4283      	cmp	r3, r0
 8006c22:	d04b      	beq.n	8006cbc <_reclaim_reent+0xa4>
 8006c24:	69c3      	ldr	r3, [r0, #28]
 8006c26:	b1ab      	cbz	r3, 8006c54 <_reclaim_reent+0x3c>
 8006c28:	68db      	ldr	r3, [r3, #12]
 8006c2a:	b16b      	cbz	r3, 8006c48 <_reclaim_reent+0x30>
 8006c2c:	2500      	movs	r5, #0
 8006c2e:	69e3      	ldr	r3, [r4, #28]
 8006c30:	68db      	ldr	r3, [r3, #12]
 8006c32:	5959      	ldr	r1, [r3, r5]
 8006c34:	2900      	cmp	r1, #0
 8006c36:	d13b      	bne.n	8006cb0 <_reclaim_reent+0x98>
 8006c38:	3504      	adds	r5, #4
 8006c3a:	2d80      	cmp	r5, #128	@ 0x80
 8006c3c:	d1f7      	bne.n	8006c2e <_reclaim_reent+0x16>
 8006c3e:	69e3      	ldr	r3, [r4, #28]
 8006c40:	4620      	mov	r0, r4
 8006c42:	68d9      	ldr	r1, [r3, #12]
 8006c44:	f000 f86a 	bl	8006d1c <_free_r>
 8006c48:	69e3      	ldr	r3, [r4, #28]
 8006c4a:	6819      	ldr	r1, [r3, #0]
 8006c4c:	b111      	cbz	r1, 8006c54 <_reclaim_reent+0x3c>
 8006c4e:	4620      	mov	r0, r4
 8006c50:	f000 f864 	bl	8006d1c <_free_r>
 8006c54:	6961      	ldr	r1, [r4, #20]
 8006c56:	b111      	cbz	r1, 8006c5e <_reclaim_reent+0x46>
 8006c58:	4620      	mov	r0, r4
 8006c5a:	f000 f85f 	bl	8006d1c <_free_r>
 8006c5e:	69e1      	ldr	r1, [r4, #28]
 8006c60:	b111      	cbz	r1, 8006c68 <_reclaim_reent+0x50>
 8006c62:	4620      	mov	r0, r4
 8006c64:	f000 f85a 	bl	8006d1c <_free_r>
 8006c68:	6b21      	ldr	r1, [r4, #48]	@ 0x30
 8006c6a:	b111      	cbz	r1, 8006c72 <_reclaim_reent+0x5a>
 8006c6c:	4620      	mov	r0, r4
 8006c6e:	f000 f855 	bl	8006d1c <_free_r>
 8006c72:	6b61      	ldr	r1, [r4, #52]	@ 0x34
 8006c74:	b111      	cbz	r1, 8006c7c <_reclaim_reent+0x64>
 8006c76:	4620      	mov	r0, r4
 8006c78:	f000 f850 	bl	8006d1c <_free_r>
 8006c7c:	6ba1      	ldr	r1, [r4, #56]	@ 0x38
 8006c7e:	b111      	cbz	r1, 8006c86 <_reclaim_reent+0x6e>
 8006c80:	4620      	mov	r0, r4
 8006c82:	f000 f84b 	bl	8006d1c <_free_r>
 8006c86:	6ca1      	ldr	r1, [r4, #72]	@ 0x48
 8006c88:	b111      	cbz	r1, 8006c90 <_reclaim_reent+0x78>
 8006c8a:	4620      	mov	r0, r4
 8006c8c:	f000 f846 	bl	8006d1c <_free_r>
 8006c90:	6c61      	ldr	r1, [r4, #68]	@ 0x44
 8006c92:	b111      	cbz	r1, 8006c9a <_reclaim_reent+0x82>
 8006c94:	4620      	mov	r0, r4
 8006c96:	f000 f841 	bl	8006d1c <_free_r>
 8006c9a:	6ae1      	ldr	r1, [r4, #44]	@ 0x2c
 8006c9c:	b111      	cbz	r1, 8006ca4 <_reclaim_reent+0x8c>
 8006c9e:	4620      	mov	r0, r4
 8006ca0:	f000 f83c 	bl	8006d1c <_free_r>
 8006ca4:	6a23      	ldr	r3, [r4, #32]
 8006ca6:	b14b      	cbz	r3, 8006cbc <_reclaim_reent+0xa4>
 8006ca8:	4620      	mov	r0, r4
 8006caa:	e8bd 4070 	ldmia.w	sp!, {r4, r5, r6, lr}
 8006cae:	4718      	bx	r3
 8006cb0:	680e      	ldr	r6, [r1, #0]
 8006cb2:	4620      	mov	r0, r4
 8006cb4:	f000 f832 	bl	8006d1c <_free_r>
 8006cb8:	4631      	mov	r1, r6
 8006cba:	e7bb      	b.n	8006c34 <_reclaim_reent+0x1c>
 8006cbc:	bd70      	pop	{r4, r5, r6, pc}
 8006cbe:	bf00      	nop
 8006cc0:	20000018 	.word	0x20000018

08006cc4 <__errno>:
 8006cc4:	4b01      	ldr	r3, [pc, #4]	@ (8006ccc <__errno+0x8>)
 8006cc6:	6818      	ldr	r0, [r3, #0]
 8006cc8:	4770      	bx	lr
 8006cca:	bf00      	nop
 8006ccc:	20000018 	.word	0x20000018

08006cd0 <__libc_init_array>:
 8006cd0:	b570      	push	{r4, r5, r6, lr}
 8006cd2:	2600      	movs	r6, #0
 8006cd4:	4d0c      	ldr	r5, [pc, #48]	@ (8006d08 <__libc_init_array+0x38>)
 8006cd6:	4c0d      	ldr	r4, [pc, #52]	@ (8006d0c <__libc_init_array+0x3c>)
 8006cd8:	1b64      	subs	r4, r4, r5
 8006cda:	10a4      	asrs	r4, r4, #2
 8006cdc:	42a6      	cmp	r6, r4
 8006cde:	d109      	bne.n	8006cf4 <__libc_init_array+0x24>
 8006ce0:	f000 fa5c 	bl	800719c <_init>
 8006ce4:	2600      	movs	r6, #0
 8006ce6:	4d0a      	ldr	r5, [pc, #40]	@ (8006d10 <__libc_init_array+0x40>)
 8006ce8:	4c0a      	ldr	r4, [pc, #40]	@ (8006d14 <__libc_init_array+0x44>)
 8006cea:	1b64      	subs	r4, r4, r5
 8006cec:	10a4      	asrs	r4, r4, #2
 8006cee:	42a6      	cmp	r6, r4
 8006cf0:	d105      	bne.n	8006cfe <__libc_init_array+0x2e>
 8006cf2:	bd70      	pop	{r4, r5, r6, pc}
 8006cf4:	f855 3b04 	ldr.w	r3, [r5], #4
 8006cf8:	4798      	blx	r3
 8006cfa:	3601      	adds	r6, #1
 8006cfc:	e7ee      	b.n	8006cdc <__libc_init_array+0xc>
 8006cfe:	f855 3b04 	ldr.w	r3, [r5], #4
 8006d02:	4798      	blx	r3
 8006d04:	3601      	adds	r6, #1
 8006d06:	e7f2      	b.n	8006cee <__libc_init_array+0x1e>
 8006d08:	0800726c 	.word	0x0800726c
 8006d0c:	0800726c 	.word	0x0800726c
 8006d10:	0800726c 	.word	0x0800726c
 8006d14:	08007270 	.word	0x08007270

08006d18 <__retarget_lock_acquire_recursive>:
 8006d18:	4770      	bx	lr

08006d1a <__retarget_lock_release_recursive>:
 8006d1a:	4770      	bx	lr

08006d1c <_free_r>:
 8006d1c:	b538      	push	{r3, r4, r5, lr}
 8006d1e:	4605      	mov	r5, r0
 8006d20:	2900      	cmp	r1, #0
 8006d22:	d040      	beq.n	8006da6 <_free_r+0x8a>
 8006d24:	f851 3c04 	ldr.w	r3, [r1, #-4]
 8006d28:	1f0c      	subs	r4, r1, #4
 8006d2a:	2b00      	cmp	r3, #0
 8006d2c:	bfb8      	it	lt
 8006d2e:	18e4      	addlt	r4, r4, r3
 8006d30:	f000 f83c 	bl	8006dac <__malloc_lock>
 8006d34:	4a1c      	ldr	r2, [pc, #112]	@ (8006da8 <_free_r+0x8c>)
 8006d36:	6813      	ldr	r3, [r2, #0]
 8006d38:	b933      	cbnz	r3, 8006d48 <_free_r+0x2c>
 8006d3a:	6063      	str	r3, [r4, #4]
 8006d3c:	6014      	str	r4, [r2, #0]
 8006d3e:	4628      	mov	r0, r5
 8006d40:	e8bd 4038 	ldmia.w	sp!, {r3, r4, r5, lr}
 8006d44:	f000 b838 	b.w	8006db8 <__malloc_unlock>
 8006d48:	42a3      	cmp	r3, r4
 8006d4a:	d908      	bls.n	8006d5e <_free_r+0x42>
 8006d4c:	6820      	ldr	r0, [r4, #0]
 8006d4e:	1821      	adds	r1, r4, r0
 8006d50:	428b      	cmp	r3, r1
 8006d52:	bf01      	itttt	eq
 8006d54:	6819      	ldreq	r1, [r3, #0]
 8006d56:	685b      	ldreq	r3, [r3, #4]
 8006d58:	1809      	addeq	r1, r1, r0
 8006d5a:	6021      	streq	r1, [r4, #0]
 8006d5c:	e7ed      	b.n	8006d3a <_free_r+0x1e>
 8006d5e:	461a      	mov	r2, r3
 8006d60:	685b      	ldr	r3, [r3, #4]
 8006d62:	b10b      	cbz	r3, 8006d68 <_free_r+0x4c>
 8006d64:	42a3      	cmp	r3, r4
 8006d66:	d9fa      	bls.n	8006d5e <_free_r+0x42>
 8006d68:	6811      	ldr	r1, [r2, #0]
 8006d6a:	1850      	adds	r0, r2, r1
 8006d6c:	42a0      	cmp	r0, r4
 8006d6e:	d10b      	bne.n	8006d88 <_free_r+0x6c>
 8006d70:	6820      	ldr	r0, [r4, #0]
 8006d72:	4401      	add	r1, r0
 8006d74:	1850      	adds	r0, r2, r1
 8006d76:	4283      	cmp	r3, r0
 8006d78:	6011      	str	r1, [r2, #0]
 8006d7a:	d1e0      	bne.n	8006d3e <_free_r+0x22>
 8006d7c:	6818      	ldr	r0, [r3, #0]
 8006d7e:	685b      	ldr	r3, [r3, #4]
 8006d80:	4408      	add	r0, r1
 8006d82:	6010      	str	r0, [r2, #0]
 8006d84:	6053      	str	r3, [r2, #4]
 8006d86:	e7da      	b.n	8006d3e <_free_r+0x22>
 8006d88:	d902      	bls.n	8006d90 <_free_r+0x74>
 8006d8a:	230c      	movs	r3, #12
 8006d8c:	602b      	str	r3, [r5, #0]
 8006d8e:	e7d6      	b.n	8006d3e <_free_r+0x22>
 8006d90:	6820      	ldr	r0, [r4, #0]
 8006d92:	1821      	adds	r1, r4, r0
 8006d94:	428b      	cmp	r3, r1
 8006d96:	bf01      	itttt	eq
 8006d98:	6819      	ldreq	r1, [r3, #0]
 8006d9a:	685b      	ldreq	r3, [r3, #4]
 8006d9c:	1809      	addeq	r1, r1, r0
 8006d9e:	6021      	streq	r1, [r4, #0]
 8006da0:	6063      	str	r3, [r4, #4]
 8006da2:	6054      	str	r4, [r2, #4]
 8006da4:	e7cb      	b.n	8006d3e <_free_r+0x22>
 8006da6:	bd38      	pop	{r3, r4, r5, pc}
 8006da8:	20001394 	.word	0x20001394

08006dac <__malloc_lock>:
 8006dac:	4801      	ldr	r0, [pc, #4]	@ (8006db4 <__malloc_lock+0x8>)
 8006dae:	f7ff bfb3 	b.w	8006d18 <__retarget_lock_acquire_recursive>
 8006db2:	bf00      	nop
 8006db4:	20001390 	.word	0x20001390

08006db8 <__malloc_unlock>:
 8006db8:	4801      	ldr	r0, [pc, #4]	@ (8006dc0 <__malloc_unlock+0x8>)
 8006dba:	f7ff bfae 	b.w	8006d1a <__retarget_lock_release_recursive>
 8006dbe:	bf00      	nop
 8006dc0:	20001390 	.word	0x20001390

08006dc4 <log>:
 8006dc4:	b5f8      	push	{r3, r4, r5, r6, r7, lr}
 8006dc6:	4604      	mov	r4, r0
 8006dc8:	460d      	mov	r5, r1
 8006dca:	f000 f835 	bl	8006e38 <__ieee754_log>
 8006dce:	4622      	mov	r2, r4
 8006dd0:	4606      	mov	r6, r0
 8006dd2:	460f      	mov	r7, r1
 8006dd4:	462b      	mov	r3, r5
 8006dd6:	4620      	mov	r0, r4
 8006dd8:	4629      	mov	r1, r5
 8006dda:	f7f9 fe0f 	bl	80009fc <__aeabi_dcmpun>
 8006dde:	b998      	cbnz	r0, 8006e08 <log+0x44>
 8006de0:	2200      	movs	r2, #0
 8006de2:	2300      	movs	r3, #0
 8006de4:	4620      	mov	r0, r4
 8006de6:	4629      	mov	r1, r5
 8006de8:	f7f9 fdfe 	bl	80009e8 <__aeabi_dcmpgt>
 8006dec:	b960      	cbnz	r0, 8006e08 <log+0x44>
 8006dee:	2200      	movs	r2, #0
 8006df0:	2300      	movs	r3, #0
 8006df2:	4620      	mov	r0, r4
 8006df4:	4629      	mov	r1, r5
 8006df6:	f7f9 fdcf 	bl	8000998 <__aeabi_dcmpeq>
 8006dfa:	b140      	cbz	r0, 8006e0e <log+0x4a>
 8006dfc:	f7ff ff62 	bl	8006cc4 <__errno>
 8006e00:	2322      	movs	r3, #34	@ 0x22
 8006e02:	2600      	movs	r6, #0
 8006e04:	4f06      	ldr	r7, [pc, #24]	@ (8006e20 <log+0x5c>)
 8006e06:	6003      	str	r3, [r0, #0]
 8006e08:	4630      	mov	r0, r6
 8006e0a:	4639      	mov	r1, r7
 8006e0c:	bdf8      	pop	{r3, r4, r5, r6, r7, pc}
 8006e0e:	f7ff ff59 	bl	8006cc4 <__errno>
 8006e12:	2321      	movs	r3, #33	@ 0x21
 8006e14:	6003      	str	r3, [r0, #0]
 8006e16:	4803      	ldr	r0, [pc, #12]	@ (8006e24 <log+0x60>)
 8006e18:	e8bd 40f8 	ldmia.w	sp!, {r3, r4, r5, r6, r7, lr}
 8006e1c:	f000 b804 	b.w	8006e28 <nan>
 8006e20:	fff00000 	.word	0xfff00000
 8006e24:	0800726a 	.word	0x0800726a

08006e28 <nan>:
 8006e28:	2000      	movs	r0, #0
 8006e2a:	4901      	ldr	r1, [pc, #4]	@ (8006e30 <nan+0x8>)
 8006e2c:	4770      	bx	lr
 8006e2e:	bf00      	nop
 8006e30:	7ff80000 	.word	0x7ff80000
 8006e34:	00000000 	.word	0x00000000

08006e38 <__ieee754_log>:
 8006e38:	e92d 4ff0 	stmdb	sp!, {r4, r5, r6, r7, r8, r9, sl, fp, lr}
 8006e3c:	f5b1 1f80 	cmp.w	r1, #1048576	@ 0x100000
 8006e40:	4602      	mov	r2, r0
 8006e42:	460b      	mov	r3, r1
 8006e44:	460d      	mov	r5, r1
 8006e46:	b087      	sub	sp, #28
 8006e48:	da24      	bge.n	8006e94 <__ieee754_log+0x5c>
 8006e4a:	f021 4400 	bic.w	r4, r1, #2147483648	@ 0x80000000
 8006e4e:	4304      	orrs	r4, r0
 8006e50:	d108      	bne.n	8006e64 <__ieee754_log+0x2c>
 8006e52:	2200      	movs	r2, #0
 8006e54:	2300      	movs	r3, #0
 8006e56:	2000      	movs	r0, #0
 8006e58:	49cb      	ldr	r1, [pc, #812]	@ (8007188 <__ieee754_log+0x350>)
 8006e5a:	f7f9 fc5f 	bl	800071c <__aeabi_ddiv>
 8006e5e:	b007      	add	sp, #28
 8006e60:	e8bd 8ff0 	ldmia.w	sp!, {r4, r5, r6, r7, r8, r9, sl, fp, pc}
 8006e64:	2900      	cmp	r1, #0
 8006e66:	da04      	bge.n	8006e72 <__ieee754_log+0x3a>
 8006e68:	f7f9 f976 	bl	8000158 <__aeabi_dsub>
 8006e6c:	2200      	movs	r2, #0
 8006e6e:	2300      	movs	r3, #0
 8006e70:	e7f3      	b.n	8006e5a <__ieee754_log+0x22>
 8006e72:	2200      	movs	r2, #0
 8006e74:	4bc5      	ldr	r3, [pc, #788]	@ (800718c <__ieee754_log+0x354>)
 8006e76:	f7f9 fb27 	bl	80004c8 <__aeabi_dmul>
 8006e7a:	460b      	mov	r3, r1
 8006e7c:	460d      	mov	r5, r1
 8006e7e:	4602      	mov	r2, r0
 8006e80:	f06f 0135 	mvn.w	r1, #53	@ 0x35
 8006e84:	48c2      	ldr	r0, [pc, #776]	@ (8007190 <__ieee754_log+0x358>)
 8006e86:	4285      	cmp	r5, r0
 8006e88:	dd06      	ble.n	8006e98 <__ieee754_log+0x60>
 8006e8a:	4610      	mov	r0, r2
 8006e8c:	4619      	mov	r1, r3
 8006e8e:	f7f9 f965 	bl	800015c <__adddf3>
 8006e92:	e7e4      	b.n	8006e5e <__ieee754_log+0x26>
 8006e94:	2100      	movs	r1, #0
 8006e96:	e7f5      	b.n	8006e84 <__ieee754_log+0x4c>
 8006e98:	152c      	asrs	r4, r5, #20
 8006e9a:	f2a4 34ff 	subw	r4, r4, #1023	@ 0x3ff
 8006e9e:	f3c5 0513 	ubfx	r5, r5, #0, #20
 8006ea2:	440c      	add	r4, r1
 8006ea4:	f505 2115 	add.w	r1, r5, #610304	@ 0x95000
 8006ea8:	f601 7164 	addw	r1, r1, #3940	@ 0xf64
 8006eac:	f401 1680 	and.w	r6, r1, #1048576	@ 0x100000
 8006eb0:	f086 517f 	eor.w	r1, r6, #1069547520	@ 0x3fc00000
 8006eb4:	f481 1140 	eor.w	r1, r1, #3145728	@ 0x300000
 8006eb8:	ea41 0305 	orr.w	r3, r1, r5
 8006ebc:	4610      	mov	r0, r2
 8006ebe:	4619      	mov	r1, r3
 8006ec0:	2200      	movs	r2, #0
 8006ec2:	4bb4      	ldr	r3, [pc, #720]	@ (8007194 <__ieee754_log+0x35c>)
 8006ec4:	f7f9 f948 	bl	8000158 <__aeabi_dsub>
 8006ec8:	1cab      	adds	r3, r5, #2
 8006eca:	f3c3 0313 	ubfx	r3, r3, #0, #20
 8006ece:	2b02      	cmp	r3, #2
 8006ed0:	4682      	mov	sl, r0
 8006ed2:	468b      	mov	fp, r1
 8006ed4:	f04f 0200 	mov.w	r2, #0
 8006ed8:	eb04 5416 	add.w	r4, r4, r6, lsr #20
 8006edc:	dc53      	bgt.n	8006f86 <__ieee754_log+0x14e>
 8006ede:	2300      	movs	r3, #0
 8006ee0:	f7f9 fd5a 	bl	8000998 <__aeabi_dcmpeq>
 8006ee4:	b1d0      	cbz	r0, 8006f1c <__ieee754_log+0xe4>
 8006ee6:	2c00      	cmp	r4, #0
 8006ee8:	f000 8120 	beq.w	800712c <__ieee754_log+0x2f4>
 8006eec:	4620      	mov	r0, r4
 8006eee:	f7f9 fa81 	bl	80003f4 <__aeabi_i2d>
 8006ef2:	a391      	add	r3, pc, #580	@ (adr r3, 8007138 <__ieee754_log+0x300>)
 8006ef4:	e9d3 2300 	ldrd	r2, r3, [r3]
 8006ef8:	4606      	mov	r6, r0
 8006efa:	460f      	mov	r7, r1
 8006efc:	f7f9 fae4 	bl	80004c8 <__aeabi_dmul>
 8006f00:	a38f      	add	r3, pc, #572	@ (adr r3, 8007140 <__ieee754_log+0x308>)
 8006f02:	e9d3 2300 	ldrd	r2, r3, [r3]
 8006f06:	4604      	mov	r4, r0
 8006f08:	460d      	mov	r5, r1
 8006f0a:	4630      	mov	r0, r6
 8006f0c:	4639      	mov	r1, r7
 8006f0e:	f7f9 fadb 	bl	80004c8 <__aeabi_dmul>
 8006f12:	4602      	mov	r2, r0
 8006f14:	460b      	mov	r3, r1
 8006f16:	4620      	mov	r0, r4
 8006f18:	4629      	mov	r1, r5
 8006f1a:	e7b8      	b.n	8006e8e <__ieee754_log+0x56>
 8006f1c:	a38a      	add	r3, pc, #552	@ (adr r3, 8007148 <__ieee754_log+0x310>)
 8006f1e:	e9d3 2300 	ldrd	r2, r3, [r3]
 8006f22:	4650      	mov	r0, sl
 8006f24:	4659      	mov	r1, fp
 8006f26:	f7f9 facf 	bl	80004c8 <__aeabi_dmul>
 8006f2a:	4602      	mov	r2, r0
 8006f2c:	460b      	mov	r3, r1
 8006f2e:	2000      	movs	r0, #0
 8006f30:	4999      	ldr	r1, [pc, #612]	@ (8007198 <__ieee754_log+0x360>)
 8006f32:	f7f9 f911 	bl	8000158 <__aeabi_dsub>
 8006f36:	4652      	mov	r2, sl
 8006f38:	4606      	mov	r6, r0
 8006f3a:	460f      	mov	r7, r1
 8006f3c:	465b      	mov	r3, fp
 8006f3e:	4650      	mov	r0, sl
 8006f40:	4659      	mov	r1, fp
 8006f42:	f7f9 fac1 	bl	80004c8 <__aeabi_dmul>
 8006f46:	4602      	mov	r2, r0
 8006f48:	460b      	mov	r3, r1
 8006f4a:	4630      	mov	r0, r6
 8006f4c:	4639      	mov	r1, r7
 8006f4e:	f7f9 fabb 	bl	80004c8 <__aeabi_dmul>
 8006f52:	4606      	mov	r6, r0
 8006f54:	460f      	mov	r7, r1
 8006f56:	b914      	cbnz	r4, 8006f5e <__ieee754_log+0x126>
 8006f58:	4632      	mov	r2, r6
 8006f5a:	463b      	mov	r3, r7
 8006f5c:	e0a0      	b.n	80070a0 <__ieee754_log+0x268>
 8006f5e:	4620      	mov	r0, r4
 8006f60:	f7f9 fa48 	bl	80003f4 <__aeabi_i2d>
 8006f64:	a374      	add	r3, pc, #464	@ (adr r3, 8007138 <__ieee754_log+0x300>)
 8006f66:	e9d3 2300 	ldrd	r2, r3, [r3]
 8006f6a:	4680      	mov	r8, r0
 8006f6c:	4689      	mov	r9, r1
 8006f6e:	f7f9 faab 	bl	80004c8 <__aeabi_dmul>
 8006f72:	a373      	add	r3, pc, #460	@ (adr r3, 8007140 <__ieee754_log+0x308>)
 8006f74:	e9d3 2300 	ldrd	r2, r3, [r3]
 8006f78:	4604      	mov	r4, r0
 8006f7a:	460d      	mov	r5, r1
 8006f7c:	4640      	mov	r0, r8
 8006f7e:	4649      	mov	r1, r9
 8006f80:	f7f9 faa2 	bl	80004c8 <__aeabi_dmul>
 8006f84:	e0a5      	b.n	80070d2 <__ieee754_log+0x29a>
 8006f86:	f04f 4380 	mov.w	r3, #1073741824	@ 0x40000000
 8006f8a:	f7f9 f8e7 	bl	800015c <__adddf3>
 8006f8e:	4602      	mov	r2, r0
 8006f90:	460b      	mov	r3, r1
 8006f92:	4650      	mov	r0, sl
 8006f94:	4659      	mov	r1, fp
 8006f96:	f7f9 fbc1 	bl	800071c <__aeabi_ddiv>
 8006f9a:	e9cd 0100 	strd	r0, r1, [sp]
 8006f9e:	4620      	mov	r0, r4
 8006fa0:	f7f9 fa28 	bl	80003f4 <__aeabi_i2d>
 8006fa4:	e9dd 2300 	ldrd	r2, r3, [sp]
 8006fa8:	e9cd 0102 	strd	r0, r1, [sp, #8]
 8006fac:	4610      	mov	r0, r2
 8006fae:	4619      	mov	r1, r3
 8006fb0:	f7f9 fa8a 	bl	80004c8 <__aeabi_dmul>
 8006fb4:	4602      	mov	r2, r0
 8006fb6:	460b      	mov	r3, r1
 8006fb8:	e9cd 2304 	strd	r2, r3, [sp, #16]
 8006fbc:	f7f9 fa84 	bl	80004c8 <__aeabi_dmul>
 8006fc0:	a363      	add	r3, pc, #396	@ (adr r3, 8007150 <__ieee754_log+0x318>)
 8006fc2:	e9d3 2300 	ldrd	r2, r3, [r3]
 8006fc6:	4680      	mov	r8, r0
 8006fc8:	4689      	mov	r9, r1
 8006fca:	f7f9 fa7d 	bl	80004c8 <__aeabi_dmul>
 8006fce:	a362      	add	r3, pc, #392	@ (adr r3, 8007158 <__ieee754_log+0x320>)
 8006fd0:	e9d3 2300 	ldrd	r2, r3, [r3]
 8006fd4:	f7f9 f8c2 	bl	800015c <__adddf3>
 8006fd8:	4642      	mov	r2, r8
 8006fda:	464b      	mov	r3, r9
 8006fdc:	f7f9 fa74 	bl	80004c8 <__aeabi_dmul>
 8006fe0:	a35f      	add	r3, pc, #380	@ (adr r3, 8007160 <__ieee754_log+0x328>)
 8006fe2:	e9d3 2300 	ldrd	r2, r3, [r3]
 8006fe6:	f7f9 f8b9 	bl	800015c <__adddf3>
 8006fea:	4642      	mov	r2, r8
 8006fec:	464b      	mov	r3, r9
 8006fee:	f7f9 fa6b 	bl	80004c8 <__aeabi_dmul>
 8006ff2:	a35d      	add	r3, pc, #372	@ (adr r3, 8007168 <__ieee754_log+0x330>)
 8006ff4:	e9d3 2300 	ldrd	r2, r3, [r3]
 8006ff8:	f7f9 f8b0 	bl	800015c <__adddf3>
 8006ffc:	e9dd 2304 	ldrd	r2, r3, [sp, #16]
 8007000:	f7f9 fa62 	bl	80004c8 <__aeabi_dmul>
 8007004:	a35a      	add	r3, pc, #360	@ (adr r3, 8007170 <__ieee754_log+0x338>)
 8007006:	e9d3 2300 	ldrd	r2, r3, [r3]
 800700a:	e9cd 0104 	strd	r0, r1, [sp, #16]
 800700e:	4640      	mov	r0, r8
 8007010:	4649      	mov	r1, r9
 8007012:	f7f9 fa59 	bl	80004c8 <__aeabi_dmul>
 8007016:	a358      	add	r3, pc, #352	@ (adr r3, 8007178 <__ieee754_log+0x340>)
 8007018:	e9d3 2300 	ldrd	r2, r3, [r3]
 800701c:	f7f9 f89e 	bl	800015c <__adddf3>
 8007020:	4642      	mov	r2, r8
 8007022:	464b      	mov	r3, r9
 8007024:	f7f9 fa50 	bl	80004c8 <__aeabi_dmul>
 8007028:	a355      	add	r3, pc, #340	@ (adr r3, 8007180 <__ieee754_log+0x348>)
 800702a:	e9d3 2300 	ldrd	r2, r3, [r3]
 800702e:	f7f9 f895 	bl	800015c <__adddf3>
 8007032:	4642      	mov	r2, r8
 8007034:	464b      	mov	r3, r9
 8007036:	f7f9 fa47 	bl	80004c8 <__aeabi_dmul>
 800703a:	4602      	mov	r2, r0
 800703c:	460b      	mov	r3, r1
 800703e:	e9dd 0104 	ldrd	r0, r1, [sp, #16]
 8007042:	f7f9 f88b 	bl	800015c <__adddf3>
 8007046:	f5a5 26c2 	sub.w	r6, r5, #397312	@ 0x61000
 800704a:	f5c5 25d7 	rsb	r5, r5, #440320	@ 0x6b800
 800704e:	f2a6 467a 	subw	r6, r6, #1146	@ 0x47a
 8007052:	3551      	adds	r5, #81	@ 0x51
 8007054:	4335      	orrs	r5, r6
 8007056:	2d00      	cmp	r5, #0
 8007058:	4680      	mov	r8, r0
 800705a:	4689      	mov	r9, r1
 800705c:	dd48      	ble.n	80070f0 <__ieee754_log+0x2b8>
 800705e:	2200      	movs	r2, #0
 8007060:	4b4d      	ldr	r3, [pc, #308]	@ (8007198 <__ieee754_log+0x360>)
 8007062:	4650      	mov	r0, sl
 8007064:	4659      	mov	r1, fp
 8007066:	f7f9 fa2f 	bl	80004c8 <__aeabi_dmul>
 800706a:	4652      	mov	r2, sl
 800706c:	465b      	mov	r3, fp
 800706e:	f7f9 fa2b 	bl	80004c8 <__aeabi_dmul>
 8007072:	4602      	mov	r2, r0
 8007074:	460b      	mov	r3, r1
 8007076:	4606      	mov	r6, r0
 8007078:	460f      	mov	r7, r1
 800707a:	4640      	mov	r0, r8
 800707c:	4649      	mov	r1, r9
 800707e:	f7f9 f86d 	bl	800015c <__adddf3>
 8007082:	e9dd 2300 	ldrd	r2, r3, [sp]
 8007086:	f7f9 fa1f 	bl	80004c8 <__aeabi_dmul>
 800708a:	4680      	mov	r8, r0
 800708c:	4689      	mov	r9, r1
 800708e:	b964      	cbnz	r4, 80070aa <__ieee754_log+0x272>
 8007090:	4602      	mov	r2, r0
 8007092:	460b      	mov	r3, r1
 8007094:	4630      	mov	r0, r6
 8007096:	4639      	mov	r1, r7
 8007098:	f7f9 f85e 	bl	8000158 <__aeabi_dsub>
 800709c:	4602      	mov	r2, r0
 800709e:	460b      	mov	r3, r1
 80070a0:	4650      	mov	r0, sl
 80070a2:	4659      	mov	r1, fp
 80070a4:	f7f9 f858 	bl	8000158 <__aeabi_dsub>
 80070a8:	e6d9      	b.n	8006e5e <__ieee754_log+0x26>
 80070aa:	a323      	add	r3, pc, #140	@ (adr r3, 8007138 <__ieee754_log+0x300>)
 80070ac:	e9d3 2300 	ldrd	r2, r3, [r3]
 80070b0:	e9dd 0102 	ldrd	r0, r1, [sp, #8]
 80070b4:	f7f9 fa08 	bl	80004c8 <__aeabi_dmul>
 80070b8:	a321      	add	r3, pc, #132	@ (adr r3, 8007140 <__ieee754_log+0x308>)
 80070ba:	e9d3 2300 	ldrd	r2, r3, [r3]
 80070be:	4604      	mov	r4, r0
 80070c0:	460d      	mov	r5, r1
 80070c2:	e9dd 0102 	ldrd	r0, r1, [sp, #8]
 80070c6:	f7f9 f9ff 	bl	80004c8 <__aeabi_dmul>
 80070ca:	4642      	mov	r2, r8
 80070cc:	464b      	mov	r3, r9
 80070ce:	f7f9 f845 	bl	800015c <__adddf3>
 80070d2:	4602      	mov	r2, r0
 80070d4:	460b      	mov	r3, r1
 80070d6:	4630      	mov	r0, r6
 80070d8:	4639      	mov	r1, r7
 80070da:	f7f9 f83d 	bl	8000158 <__aeabi_dsub>
 80070de:	4652      	mov	r2, sl
 80070e0:	465b      	mov	r3, fp
 80070e2:	f7f9 f839 	bl	8000158 <__aeabi_dsub>
 80070e6:	4602      	mov	r2, r0
 80070e8:	460b      	mov	r3, r1
 80070ea:	4620      	mov	r0, r4
 80070ec:	4629      	mov	r1, r5
 80070ee:	e7d9      	b.n	80070a4 <__ieee754_log+0x26c>
 80070f0:	4602      	mov	r2, r0
 80070f2:	460b      	mov	r3, r1
 80070f4:	4650      	mov	r0, sl
 80070f6:	4659      	mov	r1, fp
 80070f8:	f7f9 f82e 	bl	8000158 <__aeabi_dsub>
 80070fc:	e9dd 2300 	ldrd	r2, r3, [sp]
 8007100:	f7f9 f9e2 	bl	80004c8 <__aeabi_dmul>
 8007104:	4606      	mov	r6, r0
 8007106:	460f      	mov	r7, r1
 8007108:	2c00      	cmp	r4, #0
 800710a:	f43f af25 	beq.w	8006f58 <__ieee754_log+0x120>
 800710e:	a30a      	add	r3, pc, #40	@ (adr r3, 8007138 <__ieee754_log+0x300>)
 8007110:	e9d3 2300 	ldrd	r2, r3, [r3]
 8007114:	e9dd 0102 	ldrd	r0, r1, [sp, #8]
 8007118:	f7f9 f9d6 	bl	80004c8 <__aeabi_dmul>
 800711c:	a308      	add	r3, pc, #32	@ (adr r3, 8007140 <__ieee754_log+0x308>)
 800711e:	e9d3 2300 	ldrd	r2, r3, [r3]
 8007122:	4604      	mov	r4, r0
 8007124:	460d      	mov	r5, r1
 8007126:	e9dd 0102 	ldrd	r0, r1, [sp, #8]
 800712a:	e729      	b.n	8006f80 <__ieee754_log+0x148>
 800712c:	2000      	movs	r0, #0
 800712e:	2100      	movs	r1, #0
 8007130:	e695      	b.n	8006e5e <__ieee754_log+0x26>
 8007132:	bf00      	nop
 8007134:	f3af 8000 	nop.w
 8007138:	fee00000 	.word	0xfee00000
 800713c:	3fe62e42 	.word	0x3fe62e42
 8007140:	35793c76 	.word	0x35793c76
 8007144:	3dea39ef 	.word	0x3dea39ef
 8007148:	55555555 	.word	0x55555555
 800714c:	3fd55555 	.word	0x3fd55555
 8007150:	df3e5244 	.word	0xdf3e5244
 8007154:	3fc2f112 	.word	0x3fc2f112
 8007158:	96cb03de 	.word	0x96cb03de
 800715c:	3fc74664 	.word	0x3fc74664
 8007160:	94229359 	.word	0x94229359
 8007164:	3fd24924 	.word	0x3fd24924
 8007168:	55555593 	.word	0x55555593
 800716c:	3fe55555 	.word	0x3fe55555
 8007170:	d078c69f 	.word	0xd078c69f
 8007174:	3fc39a09 	.word	0x3fc39a09
 8007178:	1d8e78af 	.word	0x1d8e78af
 800717c:	3fcc71c5 	.word	0x3fcc71c5
 8007180:	9997fa04 	.word	0x9997fa04
 8007184:	3fd99999 	.word	0x3fd99999
 8007188:	c3500000 	.word	0xc3500000
 800718c:	43500000 	.word	0x43500000
 8007190:	7fefffff 	.word	0x7fefffff
 8007194:	3ff00000 	.word	0x3ff00000
 8007198:	3fe00000 	.word	0x3fe00000

0800719c <_init>:
 800719c:	b5f8      	push	{r3, r4, r5, r6, r7, lr}
 800719e:	bf00      	nop
 80071a0:	bcf8      	pop	{r3, r4, r5, r6, r7}
 80071a2:	bc08      	pop	{r3}
 80071a4:	469e      	mov	lr, r3
 80071a6:	4770      	bx	lr

080071a8 <_fini>:
 80071a8:	b5f8      	push	{r3, r4, r5, r6, r7, lr}
 80071aa:	bf00      	nop
 80071ac:	bcf8      	pop	{r3, r4, r5, r6, r7}
 80071ae:	bc08      	pop	{r3}
 80071b0:	469e      	mov	lr, r3
 80071b2:	4770      	bx	lr
